---
triple:          'arm64-apple-darwin'
binary-path:     standalone_test
relocations:
  - { offsetInCU: 0x448D, offset: 0x448D, size: 0x8, addend: 0x0, symName: __ZNSt3__16chrono13duration_castB8ue170006INS0_8durationIxNS_5ratioILl1ELl1000EEEEExNS3_ILl1ELl1000000EEEEENS_9enable_ifIXsr13__is_durationIT_EE5valueES8_E4typeERKNS2_IT0_T1_EE, symObjAddr: 0x944, symBinAddr: 0x100002300, symSize: 0x30 }
  - { offsetInCU: 0x45F4, offset: 0x45F4, size: 0x8, addend: 0x0, symName: __ZNSt3__16chronogtB8ue170006IxNS_5ratioILl1ELl1000EEExS3_EEbRKNS0_8durationIT_T0_EERKNS4_IT1_T2_EE, symObjAddr: 0x31D4, symBinAddr: 0x100004B90, symSize: 0x30 }
  - { offsetInCU: 0x4655, offset: 0x4655, size: 0x8, addend: 0x0, symName: __ZNSt3__16chronoltB8ue170006IxNS_5ratioILl1ELl1000EEEeNS2_ILl1ELl1EEEEEbRKNS0_8durationIT_T0_EERKNS5_IT1_T2_EE, symObjAddr: 0x3240, symBinAddr: 0x100004BFC, symSize: 0x34 }
  - { offsetInCU: 0x46B6, offset: 0x46B6, size: 0x8, addend: 0x0, symName: __ZNSt3__16chrono13duration_castB8ue170006INS0_8durationIxNS_5ratioILl1ELl1000000000EEEEExNS3_ILl1ELl1000EEEEENS_9enable_ifIXsr13__is_durationIT_EE5valueES8_E4typeERKNS2_IT0_T1_EE, symObjAddr: 0x3274, symBinAddr: 0x100004C30, symSize: 0x30 }
  - { offsetInCU: 0x46FD, offset: 0x46FD, size: 0x8, addend: 0x0, symName: __ZNSt3__16chronoltB8ue170006IxNS_5ratioILl1ELl1000000000EEExNS2_ILl1ELl1000EEEEEbRKNS0_8durationIT_T0_EERKNS5_IT1_T2_EE, symObjAddr: 0x32A4, symBinAddr: 0x100004C60, symSize: 0x34 }
  - { offsetInCU: 0x475E, offset: 0x475E, size: 0x8, addend: 0x0, symName: __ZNSt3__16chronoltB8ue170006IxNS_5ratioILl1ELl1000EEExS3_EEbRKNS0_8durationIT_T0_EERKNS4_IT1_T2_EE, symObjAddr: 0x3334, symBinAddr: 0x100004CF0, symSize: 0x34 }
  - { offsetInCU: 0x483C, offset: 0x483C, size: 0x8, addend: 0x0, symName: __ZNSt3__16chrono13duration_castB8ue170006INS0_8durationIeNS_5ratioILl1ELl1000EEEEExS4_EENS_9enable_ifIXsr13__is_durationIT_EE5valueES7_E4typeERKNS2_IT0_T1_EE, symObjAddr: 0x350C, symBinAddr: 0x100004EC8, symSize: 0x30 }
  - { offsetInCU: 0x48CE, offset: 0x48CE, size: 0x8, addend: 0x0, symName: __ZNSt3__16chrono13duration_castB8ue170006INS0_8durationIeNS_5ratioILl1ELl1000EEEEEeNS3_ILl1ELl1EEEEENS_9enable_ifIXsr13__is_durationIT_EE5valueES8_E4typeERKNS2_IT0_T1_EE, symObjAddr: 0x362C, symBinAddr: 0x100004FE8, symSize: 0x30 }
  - { offsetInCU: 0xE2D2, offset: 0xE2D2, size: 0x8, addend: 0x0, symName: __ZNSt3__124__put_character_sequenceB8ue170006IcNS_11char_traitsIcEEEERNS_13basic_ostreamIT_T0_EES7_PKS4_m, symObjAddr: 0x26A0, symBinAddr: 0x10000405C, symSize: 0x1EC }
  - { offsetInCU: 0x100F8, offset: 0x100F8, size: 0x8, addend: 0x0, symName: __ZNSt3__111make_uniqueB8ue170006IN5hf3fs17monitor_collector19MLWorkloadAnalyticsEJRNS3_6ConfigEEEENS_11__unique_ifIT_E15__unique_singleEDpOT0_, symObjAddr: 0x70C, symBinAddr: 0x1000020C8, symSize: 0x6C }
  - { offsetInCU: 0x1013A, offset: 0x1013A, size: 0x8, addend: 0x0, symName: __ZNSt3__1lsB8ue170006IcNS_11char_traitsIcEENS_9allocatorIcEEEERNS_13basic_ostreamIT_T0_EES9_RKNS_12basic_stringIS6_S7_T1_EE, symObjAddr: 0x7BC, symBinAddr: 0x100002178, symSize: 0x4C }
  - { offsetInCU: 0x10192, offset: 0x10192, size: 0x8, addend: 0x0, symName: __ZNSt3__1lsB8ue170006INS_11char_traitsIcEEEERNS_13basic_ostreamIcT_EES6_PKc, symObjAddr: 0x808, symBinAddr: 0x1000021C4, symSize: 0x48 }
  - { offsetInCU: 0x101D8, offset: 0x101D8, size: 0x8, addend: 0x0, symName: __ZNSt3__14endlB8ue170006IcNS_11char_traitsIcEEEERNS_13basic_ostreamIT_T0_EES7_, symObjAddr: 0x894, symBinAddr: 0x100002250, symSize: 0x58 }
  - { offsetInCU: 0x1021D, offset: 0x1021D, size: 0x8, addend: 0x0, symName: __ZNSt3__111this_thread9sleep_forB8ue170006IxNS_5ratioILl1ELl1000EEEEEvRKNS_6chrono8durationIT_T0_EE, symObjAddr: 0x9D8, symBinAddr: 0x100002394, symSize: 0xBC }
  - { offsetInCU: 0x1029E, offset: 0x1029E, size: 0x8, addend: 0x0, symName: __ZNSt3__1plB8ue170006IcNS_11char_traitsIcEENS_9allocatorIcEEEENS_12basic_stringIT_T0_T1_EEOS9_PKS6_, symObjAddr: 0x13C8, symBinAddr: 0x100002D84, symSize: 0x40 }
  - { offsetInCU: 0x102F6, offset: 0x102F6, size: 0x8, addend: 0x0, symName: __ZNSt3__1plB8ue170006IcNS_11char_traitsIcEENS_9allocatorIcEEEENS_12basic_stringIT_T0_T1_EEPKS6_OS9_, symObjAddr: 0x1408, symBinAddr: 0x100002DC4, symSize: 0x44 }
  - { offsetInCU: 0x1034E, offset: 0x1034E, size: 0x8, addend: 0x0, symName: __ZNSt3__118__constexpr_strlenB8ue170006EPKc, symObjAddr: 0x23B4, symBinAddr: 0x100003D70, symSize: 0x24 }
  - { offsetInCU: 0x1037A, offset: 0x1037A, size: 0x8, addend: 0x0, symName: __ZNSt3__116__pad_and_outputB8ue170006IcNS_11char_traitsIcEEEENS_19ostreambuf_iteratorIT_T0_EES6_PKS4_S8_S8_RNS_8ios_baseES4_, symObjAddr: 0x28A8, symBinAddr: 0x100004264, symSize: 0x240 }
  - { offsetInCU: 0x10449, offset: 0x10449, size: 0x8, addend: 0x0, symName: __ZNSt3__112__to_addressB8ue170006IcEEPT_S2_, symObjAddr: 0x2D18, symBinAddr: 0x1000046D4, symSize: 0x14 }
  - { offsetInCU: 0x104B1, offset: 0x104B1, size: 0x8, addend: 0x0, symName: __ZNSt3__19use_facetB8ue170006INS_5ctypeIcEEEERKT_RKNS_6localeE, symObjAddr: 0x2F98, symBinAddr: 0x100004954, symSize: 0x2C }
  - { offsetInCU: 0x1097E, offset: 0x1097E, size: 0x8, addend: 0x0, symName: __ZNSt3__112__to_addressB8ue170006IKcEEPT_S3_, symObjAddr: 0x30AC, symBinAddr: 0x100004A68, symSize: 0x14 }
  - { offsetInCU: 0x10BD0, offset: 0x10BD0, size: 0x8, addend: 0x0, symName: __ZNSt3__134__libcpp_atomic_refcount_decrementB8ue170006IlEET_RS1_, symObjAddr: 0x39BC, symBinAddr: 0x100005378, symSize: 0x30 }
  - { offsetInCU: 0x10C05, offset: 0x10C05, size: 0x8, addend: 0x0, symName: __ZNSt3__119__libcpp_deallocateB8ue170006EPvmm, symObjAddr: 0x3CD8, symBinAddr: 0x100005694, symSize: 0x60 }
  - { offsetInCU: 0x10C6A, offset: 0x10C6A, size: 0x8, addend: 0x0, symName: __ZNSt3__124__is_overaligned_for_newB8ue170006Em, symObjAddr: 0x3D38, symBinAddr: 0x1000056F4, symSize: 0x20 }
  - { offsetInCU: 0x10C98, offset: 0x10C98, size: 0x8, addend: 0x0, symName: __ZNSt3__127__do_deallocate_handle_sizeB8ue170006IJSt11align_val_tEEEvPvmDpT_, symObjAddr: 0x3D58, symBinAddr: 0x100005714, symSize: 0x30 }
  - { offsetInCU: 0x10CEB, offset: 0x10CEB, size: 0x8, addend: 0x0, symName: __ZNSt3__127__do_deallocate_handle_sizeB8ue170006IJEEEvPvmDpT_, symObjAddr: 0x3D88, symBinAddr: 0x100005744, symSize: 0x28 }
  - { offsetInCU: 0x10D29, offset: 0x10D29, size: 0x8, addend: 0x0, symName: __ZNSt3__124__libcpp_operator_deleteB8ue170006IJPvSt11align_val_tEEEvDpT_, symObjAddr: 0x3DB0, symBinAddr: 0x10000576C, symSize: 0x2C }
  - { offsetInCU: 0x10D72, offset: 0x10D72, size: 0x8, addend: 0x0, symName: __ZNSt3__124__libcpp_operator_deleteB8ue170006IJPvEEEvDpT_, symObjAddr: 0x3DDC, symBinAddr: 0x100005798, symSize: 0x24 }
  - { offsetInCU: 0x1143E, offset: 0x1143E, size: 0x8, addend: 0x0, symName: __ZNKSt3__16chrono15__duration_castINS0_8durationIxNS_5ratioILl1ELl1000000EEEEENS2_IxNS3_ILl1ELl1000EEEEES6_Lb1ELb0EEclB8ue170006ERKS5_, symObjAddr: 0x21D0, symBinAddr: 0x100003B8C, symSize: 0x48 }
  - { offsetInCU: 0x1275D, offset: 0x1275D, size: 0x8, addend: 0x0, symName: __ZNKSt3__16chrono13__duration_ltINS0_8durationIxNS_5ratioILl1ELl1000EEEEENS2_IeNS3_ILl1ELl1EEEEEEclB8ue170006ERKS5_RKS7_, symObjAddr: 0x33BC, symBinAddr: 0x100004D78, symSize: 0x78 }
  - { offsetInCU: 0x127DA, offset: 0x127DA, size: 0x8, addend: 0x0, symName: __ZNKSt3__16chrono15__duration_castINS0_8durationIeNS_5ratioILl1ELl1EEEEENS2_IeNS3_ILl1ELl1000EEEEENS3_ILl1000ELl1EEELb0ELb1EEclB8ue170006ERKS5_, symObjAddr: 0x365C, symBinAddr: 0x100005018, symSize: 0x4C }
  - { offsetInCU: 0x12846, offset: 0x12846, size: 0x8, addend: 0x0, symName: __ZNKSt3__16chrono15__duration_castINS0_8durationIxNS_5ratioILl1ELl1000EEEEENS2_IxNS3_ILl1ELl1000000000EEEEENS3_ILl1000000ELl1EEELb0ELb1EEclB8ue170006ERKS5_, symObjAddr: 0x36C0, symBinAddr: 0x10000507C, symSize: 0x4C }
  - { offsetInCU: 0x1288F, offset: 0x1288F, size: 0x8, addend: 0x0, symName: __ZNKSt3__16chrono13__duration_ltINS0_8durationIxNS_5ratioILl1ELl1000000000EEEEENS2_IxNS3_ILl1ELl1000EEEEEEclB8ue170006ERKS5_RKS7_, symObjAddr: 0x3770, symBinAddr: 0x10000512C, symSize: 0x6C }
  - { offsetInCU: 0x14C27, offset: 0x14C27, size: 0x8, addend: 0x0, symName: __Z32testRecordingAndPatternDetectionv, symObjAddr: 0x0, symBinAddr: 0x1000019BC, symSize: 0x654 }
  - { offsetInCU: 0x14CCE, offset: 0x14CCE, size: 0x8, addend: 0x0, symName: __ZN5hf3fs17monitor_collector19MLWorkloadAnalytics6ConfigC1Ev, symObjAddr: 0x654, symBinAddr: 0x100002010, symSize: 0x2C }
  - { offsetInCU: 0x14CFB, offset: 0x14CFB, size: 0x8, addend: 0x0, symName: __ZN5hf3fs17monitor_collector19MLWorkloadAnalytics6Config11set_enabledEb, symObjAddr: 0x680, symBinAddr: 0x10000203C, symSize: 0x2C }
  - { offsetInCU: 0x14D30, offset: 0x14D30, size: 0x8, addend: 0x0, symName: __ZN5hf3fs17monitor_collector19MLWorkloadAnalytics6Config24set_analysis_interval_msEy, symObjAddr: 0x6AC, symBinAddr: 0x100002068, symSize: 0x20 }
  - { offsetInCU: 0x14D65, offset: 0x14D65, size: 0x8, addend: 0x0, symName: __ZN5hf3fs17monitor_collector19MLWorkloadAnalytics6Config22set_report_interval_msEy, symObjAddr: 0x6CC, symBinAddr: 0x100002088, symSize: 0x20 }
  - { offsetInCU: 0x14D9A, offset: 0x14D9A, size: 0x8, addend: 0x0, symName: __ZN5hf3fs17monitor_collector19MLWorkloadAnalytics6Config25set_min_ops_for_detectionEy, symObjAddr: 0x6EC, symBinAddr: 0x1000020A8, symSize: 0x20 }
  - { offsetInCU: 0x14DCF, offset: 0x14DCF, size: 0x8, addend: 0x0, symName: __ZNKSt3__110unique_ptrIN5hf3fs17monitor_collector19MLWorkloadAnalyticsENS_14default_deleteIS3_EEEptB8ue170006Ev, symObjAddr: 0x778, symBinAddr: 0x100002134, symSize: 0x28 }
  - { offsetInCU: 0x14DF5, offset: 0x14DF5, size: 0x8, addend: 0x0, symName: __ZNK5hf3fs6ResultINS_4VoidENSt3__112basic_stringIcNS2_11char_traitsIcEENS2_9allocatorIcEEEEEcvbEv, symObjAddr: 0x7A0, symBinAddr: 0x10000215C, symSize: 0x1C }
  - { offsetInCU: 0x14E1B, offset: 0x14E1B, size: 0x8, addend: 0x0, symName: __ZNKR5hf3fs6ResultINS_4VoidENSt3__112basic_stringIcNS2_11char_traitsIcEENS2_9allocatorIcEEEEE5errorEv, symObjAddr: 0x850, symBinAddr: 0x10000220C, symSize: 0x18 }
  - { offsetInCU: 0x14E41, offset: 0x14E41, size: 0x8, addend: 0x0, symName: __ZNSt3__113basic_ostreamIcNS_11char_traitsIcEEElsB8ue170006EPFRS3_S4_E, symObjAddr: 0x868, symBinAddr: 0x100002224, symSize: 0x2C }
  - { offsetInCU: 0x14E7A, offset: 0x14E7A, size: 0x8, addend: 0x0, symName: __ZN5hf3fs17monitor_collector15OperationRecordC1Ev, symObjAddr: 0x8EC, symBinAddr: 0x1000022A8, symSize: 0x2C }
  - { offsetInCU: 0x14EA7, offset: 0x14EA7, size: 0x8, addend: 0x0, symName: __ZNSt3__112basic_stringIcNS_11char_traitsIcEENS_9allocatorIcEEEaSB8ue170006EPKc, symObjAddr: 0x918, symBinAddr: 0x1000022D4, symSize: 0x2C }
  - { offsetInCU: 0x14F04, offset: 0x14F04, size: 0x8, addend: 0x0, symName: __ZNKSt3__16chrono10time_pointINS0_12system_clockENS0_8durationIxNS_5ratioILl1ELl1000000EEEEEE16time_since_epochB8ue170006Ev, symObjAddr: 0x974, symBinAddr: 0x100002330, symSize: 0x20 }
  - { offsetInCU: 0x14F2A, offset: 0x14F2A, size: 0x8, addend: 0x0, symName: __ZNKSt3__16chrono8durationIxNS_5ratioILl1ELl1000EEEE5countB8ue170006Ev, symObjAddr: 0x994, symBinAddr: 0x100002350, symSize: 0x18 }
  - { offsetInCU: 0x14F50, offset: 0x14F50, size: 0x8, addend: 0x0, symName: __ZN5hf3fs17monitor_collector15OperationRecordD1Ev, symObjAddr: 0x9AC, symBinAddr: 0x100002368, symSize: 0x2C }
  - { offsetInCU: 0x14F87, offset: 0x14F87, size: 0x8, addend: 0x0, symName: __ZNSt3__16chrono8durationIxNS_5ratioILl1ELl1000EEEEC1B8ue170006IiEERKT_PNS_9enable_ifIXaasr14is_convertibleIS8_xEE5valueooL_ZNS_17integral_constantIbLb0EE5valueEEntsr23treat_as_floating_pointIS6_EE5valueEvE4typeE, symObjAddr: 0xA94, symBinAddr: 0x100002450, symSize: 0x3C }
  - { offsetInCU: 0x14FD9, offset: 0x14FD9, size: 0x8, addend: 0x0, symName: __ZNSt3__112basic_stringIcNS_11char_traitsIcEENS_9allocatorIcEEEC1B8ue170006ILi0EEEPKc, symObjAddr: 0xAD0, symBinAddr: 0x10000248C, symSize: 0x34 }
  - { offsetInCU: 0x15018, offset: 0x15018, size: 0x8, addend: 0x0, symName: __ZNKSt3__110shared_ptrIN5hf3fs17monitor_collector13WorkloadStatsEEcvbB8ue170006Ev, symObjAddr: 0xB04, symBinAddr: 0x1000024C0, symSize: 0x30 }
  - { offsetInCU: 0x1503E, offset: 0x1503E, size: 0x8, addend: 0x0, symName: __ZNKSt3__110shared_ptrIN5hf3fs17monitor_collector13WorkloadStatsEEptB8ue170006Ev, symObjAddr: 0xB34, symBinAddr: 0x1000024F0, symSize: 0x18 }
  - { offsetInCU: 0x15064, offset: 0x15064, size: 0x8, addend: 0x0, symName: __ZN5hf3fs6ResultINS_4VoidENSt3__112basic_stringIcNS2_11char_traitsIcEENS2_9allocatorIcEEEEED1Ev, symObjAddr: 0xB4C, symBinAddr: 0x100002508, symSize: 0x2C }
  - { offsetInCU: 0x15090, offset: 0x15090, size: 0x8, addend: 0x0, symName: __ZNSt3__110shared_ptrIN5hf3fs17monitor_collector13WorkloadStatsEED1B8ue170006Ev, symObjAddr: 0xB78, symBinAddr: 0x100002534, symSize: 0x2C }
  - { offsetInCU: 0x150BA, offset: 0x150BA, size: 0x8, addend: 0x0, symName: __ZNSt3__110unique_ptrIN5hf3fs17monitor_collector19MLWorkloadAnalyticsENS_14default_deleteIS3_EEED1B8ue170006Ev, symObjAddr: 0xBA4, symBinAddr: 0x100002560, symSize: 0x2C }
  - { offsetInCU: 0x150E3, offset: 0x150E3, size: 0x8, addend: 0x0, symName: __Z25testWorkloadTypeDetectionv, symObjAddr: 0xBD0, symBinAddr: 0x10000258C, symSize: 0x7F8 }
  - { offsetInCU: 0x151AD, offset: 0x151AD, size: 0x8, addend: 0x0, symName: __ZNSt3__112basic_stringIcNS_11char_traitsIcEENS_9allocatorIcEEEaSB8ue170006EOS5_, symObjAddr: 0x144C, symBinAddr: 0x100002E08, symSize: 0x34 }
  - { offsetInCU: 0x151E1, offset: 0x151E1, size: 0x8, addend: 0x0, symName: __Z22testFrameworkDetectionv, symObjAddr: 0x1480, symBinAddr: 0x100002E3C, symSize: 0x9A8 }
  - { offsetInCU: 0x152C3, offset: 0x152C3, size: 0x8, addend: 0x0, symName: _main, symObjAddr: 0x1E28, symBinAddr: 0x1000037E4, symSize: 0x128 }
  - { offsetInCU: 0x152EE, offset: 0x152EE, size: 0x8, addend: 0x0, symName: __ZN5hf3fs17monitor_collector19MLWorkloadAnalytics6ConfigC2Ev, symObjAddr: 0x1F5C, symBinAddr: 0x100003918, symSize: 0x54 }
  - { offsetInCU: 0x1531B, offset: 0x1531B, size: 0x8, addend: 0x0, symName: __ZN5hf3fs17monitor_collector15OperationRecordC2Ev, symObjAddr: 0x1FB0, symBinAddr: 0x10000396C, symSize: 0x3C }
  - { offsetInCU: 0x15348, offset: 0x15348, size: 0x8, addend: 0x0, symName: __ZNSt3__112basic_stringIcNS_11char_traitsIcEENS_9allocatorIcEEEC1B8ue170006Ev, symObjAddr: 0x1FEC, symBinAddr: 0x1000039A8, symSize: 0x2C }
  - { offsetInCU: 0x15372, offset: 0x15372, size: 0x8, addend: 0x0, symName: __ZNSt3__112basic_stringIcNS_11char_traitsIcEENS_9allocatorIcEEEC2B8ue170006Ev, symObjAddr: 0x2018, symBinAddr: 0x1000039D4, symSize: 0x48 }
  - { offsetInCU: 0x153A2, offset: 0x153A2, size: 0x8, addend: 0x0, symName: __ZNSt3__117__compressed_pairINS_12basic_stringIcNS_11char_traitsIcEENS_9allocatorIcEEE5__repES5_EC1B8ue170006INS_18__default_init_tagESA_EEOT_OT0_, symObjAddr: 0x2060, symBinAddr: 0x100003A1C, symSize: 0x3C }
  - { offsetInCU: 0x153FA, offset: 0x153FA, size: 0x8, addend: 0x0, symName: __ZNSt3__112basic_stringIcNS_11char_traitsIcEENS_9allocatorIcEEE14__default_initB8ue170006Ev, symObjAddr: 0x209C, symBinAddr: 0x100003A58, symSize: 0x40 }
  - { offsetInCU: 0x15420, offset: 0x15420, size: 0x8, addend: 0x0, symName: __ZNSt3__117__compressed_pairINS_12basic_stringIcNS_11char_traitsIcEENS_9allocatorIcEEE5__repES5_EC2B8ue170006INS_18__default_init_tagESA_EEOT_OT0_, symObjAddr: 0x20DC, symBinAddr: 0x100003A98, symSize: 0x3C }
  - { offsetInCU: 0x15478, offset: 0x15478, size: 0x8, addend: 0x0, symName: __ZNSt3__122__compressed_pair_elemINS_12basic_stringIcNS_11char_traitsIcEENS_9allocatorIcEEE5__repELi0ELb0EEC2B8ue170006ENS_18__default_init_tagE, symObjAddr: 0x2118, symBinAddr: 0x100003AD4, symSize: 0x14 }
  - { offsetInCU: 0x154AD, offset: 0x154AD, size: 0x8, addend: 0x0, symName: __ZNSt3__122__compressed_pair_elemINS_9allocatorIcEELi1ELb1EEC2B8ue170006ENS_18__default_init_tagE, symObjAddr: 0x212C, symBinAddr: 0x100003AE8, symSize: 0x2C }
  - { offsetInCU: 0x154E2, offset: 0x154E2, size: 0x8, addend: 0x0, symName: __ZNSt3__19allocatorIcEC2B8ue170006Ev, symObjAddr: 0x2158, symBinAddr: 0x100003B14, symSize: 0x2C }
  - { offsetInCU: 0x1550C, offset: 0x1550C, size: 0x8, addend: 0x0, symName: __ZNSt3__116__non_trivial_ifILb1ENS_9allocatorIcEEEC2B8ue170006Ev, symObjAddr: 0x2184, symBinAddr: 0x100003B40, symSize: 0x14 }
  - { offsetInCU: 0x15536, offset: 0x15536, size: 0x8, addend: 0x0, symName: __ZNSt3__117__compressed_pairINS_12basic_stringIcNS_11char_traitsIcEENS_9allocatorIcEEE5__repES5_E5firstB8ue170006Ev, symObjAddr: 0x2198, symBinAddr: 0x100003B54, symSize: 0x24 }
  - { offsetInCU: 0x1555C, offset: 0x1555C, size: 0x8, addend: 0x0, symName: __ZNSt3__122__compressed_pair_elemINS_12basic_stringIcNS_11char_traitsIcEENS_9allocatorIcEEE5__repELi0ELb0EE5__getB8ue170006Ev, symObjAddr: 0x21BC, symBinAddr: 0x100003B78, symSize: 0x14 }
  - { offsetInCU: 0x15582, offset: 0x15582, size: 0x8, addend: 0x0, symName: __ZNKSt3__16chrono8durationIxNS_5ratioILl1ELl1000000EEEE5countB8ue170006Ev, symObjAddr: 0x2218, symBinAddr: 0x100003BD4, symSize: 0x18 }
  - { offsetInCU: 0x155B2, offset: 0x155B2, size: 0x8, addend: 0x0, symName: __ZNSt3__16chrono8durationIxNS_5ratioILl1ELl1000EEEEC1B8ue170006IxEERKT_PNS_9enable_ifIXaasr14is_convertibleIS8_xEE5valueooL_ZNS_17integral_constantIbLb0EE5valueEEntsr23treat_as_floating_pointIS6_EE5valueEvE4typeE, symObjAddr: 0x2230, symBinAddr: 0x100003BEC, symSize: 0x3C }
  - { offsetInCU: 0x155FF, offset: 0x155FF, size: 0x8, addend: 0x0, symName: __ZNSt3__16chrono8durationIxNS_5ratioILl1ELl1000EEEEC2B8ue170006IxEERKT_PNS_9enable_ifIXaasr14is_convertibleIS8_xEE5valueooL_ZNS_17integral_constantIbLb0EE5valueEEntsr23treat_as_floating_pointIS6_EE5valueEvE4typeE, symObjAddr: 0x226C, symBinAddr: 0x100003C28, symSize: 0x28 }
  - { offsetInCU: 0x1564C, offset: 0x1564C, size: 0x8, addend: 0x0, symName: __ZN5hf3fs17monitor_collector15OperationRecordD2Ev, symObjAddr: 0x2294, symBinAddr: 0x100003C50, symSize: 0x3C }
  - { offsetInCU: 0x15679, offset: 0x15679, size: 0x8, addend: 0x0, symName: __ZNSt3__16chrono8durationIxNS_5ratioILl1ELl1000EEEEC2B8ue170006IiEERKT_PNS_9enable_ifIXaasr14is_convertibleIS8_xEE5valueooL_ZNS_17integral_constantIbLb0EE5valueEEntsr23treat_as_floating_pointIS6_EE5valueEvE4typeE, symObjAddr: 0x22D0, symBinAddr: 0x100003C8C, symSize: 0x28 }
  - { offsetInCU: 0x156C6, offset: 0x156C6, size: 0x8, addend: 0x0, symName: __ZN5hf3fs6ResultINS_4VoidENSt3__112basic_stringIcNS2_11char_traitsIcEENS2_9allocatorIcEEEEED2Ev, symObjAddr: 0x22F8, symBinAddr: 0x100003CB4, symSize: 0x30 }
  - { offsetInCU: 0x156F2, offset: 0x156F2, size: 0x8, addend: 0x0, symName: __ZNSt3__112basic_stringIcNS_11char_traitsIcEENS_9allocatorIcEEEC2B8ue170006ILi0EEEPKc, symObjAddr: 0x2328, symBinAddr: 0x100003CE4, symSize: 0x58 }
  - { offsetInCU: 0x15731, offset: 0x15731, size: 0x8, addend: 0x0, symName: __ZNSt3__111char_traitsIcE6lengthB8ue170006EPKc, symObjAddr: 0x2380, symBinAddr: 0x100003D3C, symSize: 0x34 }
  - { offsetInCU: 0x15754, offset: 0x15754, size: 0x8, addend: 0x0, symName: __ZNSt3__110unique_ptrIN5hf3fs17monitor_collector19MLWorkloadAnalyticsENS_14default_deleteIS3_EEEC1B8ue170006ILb1EvEEPS3_, symObjAddr: 0x23D8, symBinAddr: 0x100003D94, symSize: 0x34 }
  - { offsetInCU: 0x15797, offset: 0x15797, size: 0x8, addend: 0x0, symName: __ZNSt3__110unique_ptrIN5hf3fs17monitor_collector19MLWorkloadAnalyticsENS_14default_deleteIS3_EEEC2B8ue170006ILb1EvEEPS3_, symObjAddr: 0x240C, symBinAddr: 0x100003DC8, symSize: 0x44 }
  - { offsetInCU: 0x157E0, offset: 0x157E0, size: 0x8, addend: 0x0, symName: __ZNSt3__117__compressed_pairIPN5hf3fs17monitor_collector19MLWorkloadAnalyticsENS_14default_deleteIS3_EEEC1B8ue170006IRS4_NS_16__value_init_tagEEEOT_OT0_, symObjAddr: 0x2450, symBinAddr: 0x100003E0C, symSize: 0x3C }
  - { offsetInCU: 0x15838, offset: 0x15838, size: 0x8, addend: 0x0, symName: __ZNSt3__117__compressed_pairIPN5hf3fs17monitor_collector19MLWorkloadAnalyticsENS_14default_deleteIS3_EEEC2B8ue170006IRS4_NS_16__value_init_tagEEEOT_OT0_, symObjAddr: 0x248C, symBinAddr: 0x100003E48, symSize: 0x40 }
  - { offsetInCU: 0x15890, offset: 0x15890, size: 0x8, addend: 0x0, symName: __ZNSt3__122__compressed_pair_elemIPN5hf3fs17monitor_collector19MLWorkloadAnalyticsELi0ELb0EEC2B8ue170006IRS4_vEEOT_, symObjAddr: 0x24CC, symBinAddr: 0x100003E88, symSize: 0x24 }
  - { offsetInCU: 0x158D2, offset: 0x158D2, size: 0x8, addend: 0x0, symName: __ZNSt3__122__compressed_pair_elemINS_14default_deleteIN5hf3fs17monitor_collector19MLWorkloadAnalyticsEEELi1ELb1EEC2B8ue170006ENS_16__value_init_tagE, symObjAddr: 0x24F0, symBinAddr: 0x100003EAC, symSize: 0x14 }
  - { offsetInCU: 0x15907, offset: 0x15907, size: 0x8, addend: 0x0, symName: __ZNSt3__110unique_ptrIN5hf3fs17monitor_collector19MLWorkloadAnalyticsENS_14default_deleteIS3_EEED2B8ue170006Ev, symObjAddr: 0x2504, symBinAddr: 0x100003EC0, symSize: 0x30 }
  - { offsetInCU: 0x15931, offset: 0x15931, size: 0x8, addend: 0x0, symName: __ZNSt3__110unique_ptrIN5hf3fs17monitor_collector19MLWorkloadAnalyticsENS_14default_deleteIS3_EEE5resetB8ue170006EPS3_, symObjAddr: 0x2534, symBinAddr: 0x100003EF0, symSize: 0x78 }
  - { offsetInCU: 0x15975, offset: 0x15975, size: 0x8, addend: 0x0, symName: __ZNSt3__117__compressed_pairIPN5hf3fs17monitor_collector19MLWorkloadAnalyticsENS_14default_deleteIS3_EEE5firstB8ue170006Ev, symObjAddr: 0x25AC, symBinAddr: 0x100003F68, symSize: 0x24 }
  - { offsetInCU: 0x1599B, offset: 0x1599B, size: 0x8, addend: 0x0, symName: __ZNSt3__117__compressed_pairIPN5hf3fs17monitor_collector19MLWorkloadAnalyticsENS_14default_deleteIS3_EEE6secondB8ue170006Ev, symObjAddr: 0x25D0, symBinAddr: 0x100003F8C, symSize: 0x24 }
  - { offsetInCU: 0x159C1, offset: 0x159C1, size: 0x8, addend: 0x0, symName: __ZNKSt3__114default_deleteIN5hf3fs17monitor_collector19MLWorkloadAnalyticsEEclB8ue170006EPS3_, symObjAddr: 0x25F4, symBinAddr: 0x100003FB0, symSize: 0x4C }
  - { offsetInCU: 0x159F5, offset: 0x159F5, size: 0x8, addend: 0x0, symName: __ZNSt3__122__compressed_pair_elemIPN5hf3fs17monitor_collector19MLWorkloadAnalyticsELi0ELb0EE5__getB8ue170006Ev, symObjAddr: 0x2640, symBinAddr: 0x100003FFC, symSize: 0x14 }
  - { offsetInCU: 0x15A1B, offset: 0x15A1B, size: 0x8, addend: 0x0, symName: __ZNSt3__122__compressed_pair_elemINS_14default_deleteIN5hf3fs17monitor_collector19MLWorkloadAnalyticsEEELi1ELb1EE5__getB8ue170006Ev, symObjAddr: 0x2654, symBinAddr: 0x100004010, symSize: 0x14 }
  - { offsetInCU: 0x15A41, offset: 0x15A41, size: 0x8, addend: 0x0, symName: __ZNKSt3__117__compressed_pairIPN5hf3fs17monitor_collector19MLWorkloadAnalyticsENS_14default_deleteIS3_EEE5firstB8ue170006Ev, symObjAddr: 0x2668, symBinAddr: 0x100004024, symSize: 0x24 }
  - { offsetInCU: 0x15A67, offset: 0x15A67, size: 0x8, addend: 0x0, symName: __ZNKSt3__122__compressed_pair_elemIPN5hf3fs17monitor_collector19MLWorkloadAnalyticsELi0ELb0EE5__getB8ue170006Ev, symObjAddr: 0x268C, symBinAddr: 0x100004048, symSize: 0x14 }
  - { offsetInCU: 0x15AAB, offset: 0x15AAB, size: 0x8, addend: 0x0, symName: __ZNKSt3__113basic_ostreamIcNS_11char_traitsIcEEE6sentrycvbB8ue170006Ev, symObjAddr: 0x288C, symBinAddr: 0x100004248, symSize: 0x1C }
  - { offsetInCU: 0x15AD1, offset: 0x15AD1, size: 0x8, addend: 0x0, symName: __ZNSt3__119ostreambuf_iteratorIcNS_11char_traitsIcEEEC1B8ue170006ERNS_13basic_ostreamIcS2_EE, symObjAddr: 0x2AE8, symBinAddr: 0x1000044A4, symSize: 0x34 }
  - { offsetInCU: 0x15B09, offset: 0x15B09, size: 0x8, addend: 0x0, symName: __ZNKSt3__18ios_base5flagsB8ue170006Ev, symObjAddr: 0x2B1C, symBinAddr: 0x1000044D8, symSize: 0x18 }
  - { offsetInCU: 0x15B31, offset: 0x15B31, size: 0x8, addend: 0x0, symName: __ZNKSt3__19basic_iosIcNS_11char_traitsIcEEE4fillB8ue170006Ev, symObjAddr: 0x2B34, symBinAddr: 0x1000044F0, symSize: 0x64 }
  - { offsetInCU: 0x15B59, offset: 0x15B59, size: 0x8, addend: 0x0, symName: __ZNKSt3__119ostreambuf_iteratorIcNS_11char_traitsIcEEE6failedB8ue170006Ev, symObjAddr: 0x2B98, symBinAddr: 0x100004554, symSize: 0x24 }
  - { offsetInCU: 0x15B7F, offset: 0x15B7F, size: 0x8, addend: 0x0, symName: __ZNSt3__19basic_iosIcNS_11char_traitsIcEEE8setstateB8ue170006Ej, symObjAddr: 0x2BBC, symBinAddr: 0x100004578, symSize: 0x2C }
  - { offsetInCU: 0x15BB4, offset: 0x15BB4, size: 0x8, addend: 0x0, symName: __ZNKSt3__18ios_base5widthB8ue170006Ev, symObjAddr: 0x2BE8, symBinAddr: 0x1000045A4, symSize: 0x18 }
  - { offsetInCU: 0x15BDC, offset: 0x15BDC, size: 0x8, addend: 0x0, symName: __ZNSt3__115basic_streambufIcNS_11char_traitsIcEEE5sputnB8ue170006EPKcl, symObjAddr: 0x2C00, symBinAddr: 0x1000045BC, symSize: 0x3C }
  - { offsetInCU: 0x15C1E, offset: 0x15C1E, size: 0x8, addend: 0x0, symName: __ZNSt3__112basic_stringIcNS_11char_traitsIcEENS_9allocatorIcEEEC1B8ue170006Emc, symObjAddr: 0x2C3C, symBinAddr: 0x1000045F8, symSize: 0x3C }
  - { offsetInCU: 0x15C66, offset: 0x15C66, size: 0x8, addend: 0x0, symName: __ZNSt3__112basic_stringIcNS_11char_traitsIcEENS_9allocatorIcEEE4dataB8ue170006Ev, symObjAddr: 0x2C78, symBinAddr: 0x100004634, symSize: 0x28 }
  - { offsetInCU: 0x15C8C, offset: 0x15C8C, size: 0x8, addend: 0x0, symName: __ZNSt3__18ios_base5widthB8ue170006El, symObjAddr: 0x2CA0, symBinAddr: 0x10000465C, symSize: 0x2C }
  - { offsetInCU: 0x15CD2, offset: 0x15CD2, size: 0x8, addend: 0x0, symName: __ZNSt3__112basic_stringIcNS_11char_traitsIcEENS_9allocatorIcEEEC2B8ue170006Emc, symObjAddr: 0x2CCC, symBinAddr: 0x100004688, symSize: 0x4C }
  - { offsetInCU: 0x15D1A, offset: 0x15D1A, size: 0x8, addend: 0x0, symName: __ZNSt3__112basic_stringIcNS_11char_traitsIcEENS_9allocatorIcEEE13__get_pointerB8ue170006Ev, symObjAddr: 0x2D2C, symBinAddr: 0x1000046E8, symSize: 0x54 }
  - { offsetInCU: 0x15D40, offset: 0x15D40, size: 0x8, addend: 0x0, symName: __ZNKSt3__112basic_stringIcNS_11char_traitsIcEENS_9allocatorIcEEE9__is_longB8ue170006Ev, symObjAddr: 0x2D80, symBinAddr: 0x10000473C, symSize: 0x38 }
  - { offsetInCU: 0x15D66, offset: 0x15D66, size: 0x8, addend: 0x0, symName: __ZNSt3__112basic_stringIcNS_11char_traitsIcEENS_9allocatorIcEEE18__get_long_pointerB8ue170006Ev, symObjAddr: 0x2DB8, symBinAddr: 0x100004774, symSize: 0x28 }
  - { offsetInCU: 0x15D8C, offset: 0x15D8C, size: 0x8, addend: 0x0, symName: __ZNSt3__112basic_stringIcNS_11char_traitsIcEENS_9allocatorIcEEE19__get_short_pointerB8ue170006Ev, symObjAddr: 0x2DE0, symBinAddr: 0x10000479C, symSize: 0x28 }
  - { offsetInCU: 0x15DB2, offset: 0x15DB2, size: 0x8, addend: 0x0, symName: __ZNKSt3__117__compressed_pairINS_12basic_stringIcNS_11char_traitsIcEENS_9allocatorIcEEE5__repES5_E5firstB8ue170006Ev, symObjAddr: 0x2E08, symBinAddr: 0x1000047C4, symSize: 0x24 }
  - { offsetInCU: 0x15DD8, offset: 0x15DD8, size: 0x8, addend: 0x0, symName: __ZNKSt3__122__compressed_pair_elemINS_12basic_stringIcNS_11char_traitsIcEENS_9allocatorIcEEE5__repELi0ELb0EE5__getB8ue170006Ev, symObjAddr: 0x2E2C, symBinAddr: 0x1000047E8, symSize: 0x14 }
  - { offsetInCU: 0x15DFE, offset: 0x15DFE, size: 0x8, addend: 0x0, symName: __ZNSt3__114pointer_traitsIPcE10pointer_toB8ue170006ERc, symObjAddr: 0x2E40, symBinAddr: 0x1000047FC, symSize: 0x14 }
  - { offsetInCU: 0x15E21, offset: 0x15E21, size: 0x8, addend: 0x0, symName: __ZNSt3__119ostreambuf_iteratorIcNS_11char_traitsIcEEEC2B8ue170006ERNS_13basic_ostreamIcS2_EE, symObjAddr: 0x2E54, symBinAddr: 0x100004810, symSize: 0x54 }
  - { offsetInCU: 0x15E59, offset: 0x15E59, size: 0x8, addend: 0x0, symName: __ZNKSt3__19basic_iosIcNS_11char_traitsIcEEE5rdbufB8ue170006Ev, symObjAddr: 0x2EA8, symBinAddr: 0x100004864, symSize: 0x24 }
  - { offsetInCU: 0x15E81, offset: 0x15E81, size: 0x8, addend: 0x0, symName: __ZNKSt3__18ios_base5rdbufB8ue170006Ev, symObjAddr: 0x2ECC, symBinAddr: 0x100004888, symSize: 0x18 }
  - { offsetInCU: 0x15EA7, offset: 0x15EA7, size: 0x8, addend: 0x0, symName: __ZNSt3__111char_traitsIcE11eq_int_typeB8ue170006Eii, symObjAddr: 0x2EE4, symBinAddr: 0x1000048A0, symSize: 0x28 }
  - { offsetInCU: 0x15EDA, offset: 0x15EDA, size: 0x8, addend: 0x0, symName: __ZNSt3__111char_traitsIcE3eofB8ue170006Ev, symObjAddr: 0x2F0C, symBinAddr: 0x1000048C8, symSize: 0x8 }
  - { offsetInCU: 0x15EEE, offset: 0x15EEE, size: 0x8, addend: 0x0, symName: __ZNKSt3__19basic_iosIcNS_11char_traitsIcEEE5widenB8ue170006Ec, symObjAddr: 0x2F14, symBinAddr: 0x1000048D0, symSize: 0x84 }
  - { offsetInCU: 0x15F5C, offset: 0x15F5C, size: 0x8, addend: 0x0, symName: __ZNKSt3__15ctypeIcE5widenB8ue170006Ec, symObjAddr: 0x2FC4, symBinAddr: 0x100004980, symSize: 0x38 }
  - { offsetInCU: 0x15F91, offset: 0x15F91, size: 0x8, addend: 0x0, symName: __ZNSt3__18ios_base8setstateB8ue170006Ej, symObjAddr: 0x2FFC, symBinAddr: 0x1000049B8, symSize: 0x34 }
  - { offsetInCU: 0x15FC8, offset: 0x15FC8, size: 0x8, addend: 0x0, symName: __ZNKSt3__112basic_stringIcNS_11char_traitsIcEENS_9allocatorIcEEE4dataB8ue170006Ev, symObjAddr: 0x3030, symBinAddr: 0x1000049EC, symSize: 0x28 }
  - { offsetInCU: 0x15FEE, offset: 0x15FEE, size: 0x8, addend: 0x0, symName: __ZNKSt3__112basic_stringIcNS_11char_traitsIcEENS_9allocatorIcEEE4sizeB8ue170006Ev, symObjAddr: 0x3058, symBinAddr: 0x100004A14, symSize: 0x54 }
  - { offsetInCU: 0x16014, offset: 0x16014, size: 0x8, addend: 0x0, symName: __ZNKSt3__112basic_stringIcNS_11char_traitsIcEENS_9allocatorIcEEE13__get_pointerB8ue170006Ev, symObjAddr: 0x30C0, symBinAddr: 0x100004A7C, symSize: 0x54 }
  - { offsetInCU: 0x1603A, offset: 0x1603A, size: 0x8, addend: 0x0, symName: __ZNKSt3__112basic_stringIcNS_11char_traitsIcEENS_9allocatorIcEEE18__get_long_pointerB8ue170006Ev, symObjAddr: 0x3114, symBinAddr: 0x100004AD0, symSize: 0x28 }
  - { offsetInCU: 0x16060, offset: 0x16060, size: 0x8, addend: 0x0, symName: __ZNKSt3__112basic_stringIcNS_11char_traitsIcEENS_9allocatorIcEEE19__get_short_pointerB8ue170006Ev, symObjAddr: 0x313C, symBinAddr: 0x100004AF8, symSize: 0x28 }
  - { offsetInCU: 0x16086, offset: 0x16086, size: 0x8, addend: 0x0, symName: __ZNSt3__114pointer_traitsIPKcE10pointer_toB8ue170006ERS1_, symObjAddr: 0x3164, symBinAddr: 0x100004B20, symSize: 0x14 }
  - { offsetInCU: 0x160A9, offset: 0x160A9, size: 0x8, addend: 0x0, symName: __ZNKSt3__112basic_stringIcNS_11char_traitsIcEENS_9allocatorIcEEE15__get_long_sizeB8ue170006Ev, symObjAddr: 0x3178, symBinAddr: 0x100004B34, symSize: 0x28 }
  - { offsetInCU: 0x160CF, offset: 0x160CF, size: 0x8, addend: 0x0, symName: __ZNKSt3__112basic_stringIcNS_11char_traitsIcEENS_9allocatorIcEEE16__get_short_sizeB8ue170006Ev, symObjAddr: 0x31A0, symBinAddr: 0x100004B5C, symSize: 0x34 }
  - { offsetInCU: 0x160F5, offset: 0x160F5, size: 0x8, addend: 0x0, symName: __ZNSt3__16chrono8durationIxNS_5ratioILl1ELl1000EEEE4zeroB8ue170006Ev, symObjAddr: 0x3204, symBinAddr: 0x100004BC0, symSize: 0x3C }
  - { offsetInCU: 0x16109, offset: 0x16109, size: 0x8, addend: 0x0, symName: __ZNSt3__16chrono8durationIxNS_5ratioILl1ELl1000000000EEEEppB8ue170006Ev, symObjAddr: 0x32D8, symBinAddr: 0x100004C94, symSize: 0x20 }
  - { offsetInCU: 0x1612F, offset: 0x1612F, size: 0x8, addend: 0x0, symName: __ZNSt3__16chrono8durationIxNS_5ratioILl1ELl1000000000EEEE3maxB8ue170006Ev, symObjAddr: 0x32F8, symBinAddr: 0x100004CB4, symSize: 0x3C }
  - { offsetInCU: 0x1614D, offset: 0x1614D, size: 0x8, addend: 0x0, symName: __ZNKSt3__16chrono13__duration_ltINS0_8durationIxNS_5ratioILl1ELl1000EEEEES5_EclB8ue170006ERKS5_S8_, symObjAddr: 0x3368, symBinAddr: 0x100004D24, symSize: 0x4C }
  - { offsetInCU: 0x16191, offset: 0x16191, size: 0x8, addend: 0x0, symName: __ZNSt3__16chrono15duration_valuesIxE4zeroB8ue170006Ev, symObjAddr: 0x33B4, symBinAddr: 0x100004D70, symSize: 0x8 }
  - { offsetInCU: 0x161A5, offset: 0x161A5, size: 0x8, addend: 0x0, symName: __ZNSt3__16chrono8durationIeNS_5ratioILl1ELl1000EEEEC1B8ue170006IxS3_EERKNS1_IT_T0_EEPNS_9enable_ifIXaasr13__no_overflowIS7_S3_EE5valueooL_ZNS_17integral_constantIbLb1EE5valueEEaaeqsr13__no_overflowIS7_S3_E4typeE3denLi1Entsr23treat_as_floating_pointIS6_EE5valueEvE4typeE, symObjAddr: 0x3434, symBinAddr: 0x100004DF0, symSize: 0x3C }
  - { offsetInCU: 0x161FC, offset: 0x161FC, size: 0x8, addend: 0x0, symName: __ZNKSt3__16chrono8durationIeNS_5ratioILl1ELl1000EEEE5countB8ue170006Ev, symObjAddr: 0x3470, symBinAddr: 0x100004E2C, symSize: 0x18 }
  - { offsetInCU: 0x16222, offset: 0x16222, size: 0x8, addend: 0x0, symName: __ZNSt3__16chrono8durationIeNS_5ratioILl1ELl1000EEEEC1B8ue170006IeNS2_ILl1ELl1EEEEERKNS1_IT_T0_EEPNS_9enable_ifIXaasr13__no_overflowIS8_S3_EE5valueooL_ZNS_17integral_constantIbLb1EE5valueEEaaeqsr13__no_overflowIS8_S3_E4typeE3denLi1Entsr23treat_as_floating_pointIS7_EE5valueEvE4typeE, symObjAddr: 0x3488, symBinAddr: 0x100004E44, symSize: 0x3C }
  - { offsetInCU: 0x16279, offset: 0x16279, size: 0x8, addend: 0x0, symName: __ZNSt3__16chrono8durationIeNS_5ratioILl1ELl1000EEEEC2B8ue170006IxS3_EERKNS1_IT_T0_EEPNS_9enable_ifIXaasr13__no_overflowIS7_S3_EE5valueooL_ZNS_17integral_constantIbLb1EE5valueEEaaeqsr13__no_overflowIS7_S3_E4typeE3denLi1Entsr23treat_as_floating_pointIS6_EE5valueEvE4typeE, symObjAddr: 0x34C4, symBinAddr: 0x100004E80, symSize: 0x48 }
  - { offsetInCU: 0x162DA, offset: 0x162DA, size: 0x8, addend: 0x0, symName: __ZNKSt3__16chrono15__duration_castINS0_8durationIxNS_5ratioILl1ELl1000EEEEENS2_IeS4_EENS3_ILl1ELl1EEELb1ELb1EEclB8ue170006ERKS5_, symObjAddr: 0x353C, symBinAddr: 0x100004EF8, symSize: 0x44 }
  - { offsetInCU: 0x16318, offset: 0x16318, size: 0x8, addend: 0x0, symName: __ZNSt3__16chrono8durationIeNS_5ratioILl1ELl1000EEEEC1B8ue170006IeEERKT_PNS_9enable_ifIXaasr14is_convertibleIS8_eEE5valueooL_ZNS_17integral_constantIbLb1EE5valueEEntsr23treat_as_floating_pointIS6_EE5valueEvE4typeE, symObjAddr: 0x3580, symBinAddr: 0x100004F3C, symSize: 0x3C }
  - { offsetInCU: 0x16365, offset: 0x16365, size: 0x8, addend: 0x0, symName: __ZNSt3__16chrono8durationIeNS_5ratioILl1ELl1000EEEEC2B8ue170006IeEERKT_PNS_9enable_ifIXaasr14is_convertibleIS8_eEE5valueooL_ZNS_17integral_constantIbLb1EE5valueEEntsr23treat_as_floating_pointIS6_EE5valueEvE4typeE, symObjAddr: 0x35BC, symBinAddr: 0x100004F78, symSize: 0x28 }
  - { offsetInCU: 0x163B2, offset: 0x163B2, size: 0x8, addend: 0x0, symName: __ZNSt3__16chrono8durationIeNS_5ratioILl1ELl1000EEEEC2B8ue170006IeNS2_ILl1ELl1EEEEERKNS1_IT_T0_EEPNS_9enable_ifIXaasr13__no_overflowIS8_S3_EE5valueooL_ZNS_17integral_constantIbLb1EE5valueEEaaeqsr13__no_overflowIS8_S3_E4typeE3denLi1Entsr23treat_as_floating_pointIS7_EE5valueEvE4typeE, symObjAddr: 0x35E4, symBinAddr: 0x100004FA0, symSize: 0x48 }
  - { offsetInCU: 0x16409, offset: 0x16409, size: 0x8, addend: 0x0, symName: __ZNKSt3__16chrono8durationIeNS_5ratioILl1ELl1EEEE5countB8ue170006Ev, symObjAddr: 0x36A8, symBinAddr: 0x100005064, symSize: 0x18 }
  - { offsetInCU: 0x1642F, offset: 0x1642F, size: 0x8, addend: 0x0, symName: __ZNSt3__16chrono8durationIxNS_5ratioILl1ELl1000000000EEEEC1B8ue170006IxEERKT_PNS_9enable_ifIXaasr14is_convertibleIS8_xEE5valueooL_ZNS_17integral_constantIbLb0EE5valueEEntsr23treat_as_floating_pointIS6_EE5valueEvE4typeE, symObjAddr: 0x370C, symBinAddr: 0x1000050C8, symSize: 0x3C }
  - { offsetInCU: 0x1647C, offset: 0x1647C, size: 0x8, addend: 0x0, symName: __ZNSt3__16chrono8durationIxNS_5ratioILl1ELl1000000000EEEEC2B8ue170006IxEERKT_PNS_9enable_ifIXaasr14is_convertibleIS8_xEE5valueooL_ZNS_17integral_constantIbLb0EE5valueEEntsr23treat_as_floating_pointIS6_EE5valueEvE4typeE, symObjAddr: 0x3748, symBinAddr: 0x100005104, symSize: 0x28 }
  - { offsetInCU: 0x164C9, offset: 0x164C9, size: 0x8, addend: 0x0, symName: __ZNKSt3__16chrono8durationIxNS_5ratioILl1ELl1000000000EEEE5countB8ue170006Ev, symObjAddr: 0x37DC, symBinAddr: 0x100005198, symSize: 0x18 }
  - { offsetInCU: 0x164EF, offset: 0x164EF, size: 0x8, addend: 0x0, symName: __ZNSt3__16chrono8durationIxNS_5ratioILl1ELl1000000000EEEEC1B8ue170006IxNS2_ILl1ELl1000EEEEERKNS1_IT_T0_EEPNS_9enable_ifIXaasr13__no_overflowIS8_S3_EE5valueooL_ZNS_17integral_constantIbLb0EE5valueEEaaeqsr13__no_overflowIS8_S3_E4typeE3denLi1Entsr23treat_as_floating_pointIS7_EE5valueEvE4typeE, symObjAddr: 0x37F4, symBinAddr: 0x1000051B0, symSize: 0x3C }
  - { offsetInCU: 0x16546, offset: 0x16546, size: 0x8, addend: 0x0, symName: __ZNSt3__16chrono8durationIxNS_5ratioILl1ELl1000000000EEEEC2B8ue170006IxNS2_ILl1ELl1000EEEEERKNS1_IT_T0_EEPNS_9enable_ifIXaasr13__no_overflowIS8_S3_EE5valueooL_ZNS_17integral_constantIbLb0EE5valueEEaaeqsr13__no_overflowIS8_S3_E4typeE3denLi1Entsr23treat_as_floating_pointIS7_EE5valueEvE4typeE, symObjAddr: 0x3830, symBinAddr: 0x1000051EC, symSize: 0x50 }
  - { offsetInCU: 0x1659D, offset: 0x1659D, size: 0x8, addend: 0x0, symName: __ZNSt3__16chrono15duration_valuesIxE3maxB8ue170006Ev, symObjAddr: 0x3880, symBinAddr: 0x10000523C, symSize: 0x14 }
  - { offsetInCU: 0x165B1, offset: 0x165B1, size: 0x8, addend: 0x0, symName: __ZNSt3__114numeric_limitsIxE3maxB8ue170006Ev, symObjAddr: 0x3894, symBinAddr: 0x100005250, symSize: 0x14 }
  - { offsetInCU: 0x165C5, offset: 0x165C5, size: 0x8, addend: 0x0, symName: __ZNSt3__123__libcpp_numeric_limitsIxLb1EE3maxB8ue170006Ev, symObjAddr: 0x38A8, symBinAddr: 0x100005264, symSize: 0x8 }
  - { offsetInCU: 0x165D9, offset: 0x165D9, size: 0x8, addend: 0x0, symName: __ZNSt3__110shared_ptrIN5hf3fs17monitor_collector13WorkloadStatsEED2B8ue170006Ev, symObjAddr: 0x38B0, symBinAddr: 0x10000526C, symSize: 0x54 }
  - { offsetInCU: 0x16603, offset: 0x16603, size: 0x8, addend: 0x0, symName: __ZNSt3__119__shared_weak_count16__release_sharedB8ue170006Ev, symObjAddr: 0x3904, symBinAddr: 0x1000052C0, symSize: 0x3C }
  - { offsetInCU: 0x16629, offset: 0x16629, size: 0x8, addend: 0x0, symName: __ZNSt3__114__shared_count16__release_sharedB8ue170006Ev, symObjAddr: 0x3940, symBinAddr: 0x1000052FC, symSize: 0x7C }
  - { offsetInCU: 0x1664F, offset: 0x1664F, size: 0x8, addend: 0x0, symName: __ZNKSt3__110shared_ptrIN5hf3fs17monitor_collector13WorkloadStatsEE3getB8ue170006Ev, symObjAddr: 0x39EC, symBinAddr: 0x1000053A8, symSize: 0x18 }
  - { offsetInCU: 0x16675, offset: 0x16675, size: 0x8, addend: 0x0, symName: __ZNSt3__112basic_stringIcNS_11char_traitsIcEENS_9allocatorIcEEEC1B8ue170006EOS5_, symObjAddr: 0x3A04, symBinAddr: 0x1000053C0, symSize: 0x34 }
  - { offsetInCU: 0x166AE, offset: 0x166AE, size: 0x8, addend: 0x0, symName: __ZNSt3__112basic_stringIcNS_11char_traitsIcEENS_9allocatorIcEEEC2B8ue170006EOS5_, symObjAddr: 0x3A38, symBinAddr: 0x1000053F4, symSize: 0x48 }
  - { offsetInCU: 0x166E7, offset: 0x166E7, size: 0x8, addend: 0x0, symName: __ZNSt3__112basic_stringIcNS_11char_traitsIcEENS_9allocatorIcEEE13__move_assignB8ue170006ERS5_NS_17integral_constantIbLb1EEE, symObjAddr: 0x3A80, symBinAddr: 0x10000543C, symSize: 0xC8 }
  - { offsetInCU: 0x1672A, offset: 0x1672A, size: 0x8, addend: 0x0, symName: __ZNSt3__116allocator_traitsINS_9allocatorIcEEE10deallocateB8ue170006ERS2_Pcm, symObjAddr: 0x3B48, symBinAddr: 0x100005504, symSize: 0x34 }
  - { offsetInCU: 0x1676C, offset: 0x1676C, size: 0x8, addend: 0x0, symName: __ZNSt3__112basic_stringIcNS_11char_traitsIcEENS_9allocatorIcEEE7__allocB8ue170006Ev, symObjAddr: 0x3B7C, symBinAddr: 0x100005538, symSize: 0x24 }
  - { offsetInCU: 0x16792, offset: 0x16792, size: 0x8, addend: 0x0, symName: __ZNKSt3__112basic_stringIcNS_11char_traitsIcEENS_9allocatorIcEEE14__get_long_capB8ue170006Ev, symObjAddr: 0x3BA0, symBinAddr: 0x10000555C, symSize: 0x30 }
  - { offsetInCU: 0x167B8, offset: 0x167B8, size: 0x8, addend: 0x0, symName: __ZNSt3__112basic_stringIcNS_11char_traitsIcEENS_9allocatorIcEEE19__move_assign_allocB8ue170006ERS5_, symObjAddr: 0x3BD0, symBinAddr: 0x10000558C, symSize: 0x2C }
  - { offsetInCU: 0x167ED, offset: 0x167ED, size: 0x8, addend: 0x0, symName: __ZNSt3__112basic_stringIcNS_11char_traitsIcEENS_9allocatorIcEEE16__set_short_sizeB8ue170006Em, symObjAddr: 0x3BFC, symBinAddr: 0x1000055B8, symSize: 0x78 }
  - { offsetInCU: 0x16822, offset: 0x16822, size: 0x8, addend: 0x0, symName: __ZNSt3__111char_traitsIcE6assignB8ue170006ERcRKc, symObjAddr: 0x3C74, symBinAddr: 0x100005630, symSize: 0x24 }
  - { offsetInCU: 0x16853, offset: 0x16853, size: 0x8, addend: 0x0, symName: __ZNSt3__19allocatorIcE10deallocateB8ue170006EPcm, symObjAddr: 0x3C98, symBinAddr: 0x100005654, symSize: 0x40 }
  - { offsetInCU: 0x16895, offset: 0x16895, size: 0x8, addend: 0x0, symName: __ZNSt3__117__compressed_pairINS_12basic_stringIcNS_11char_traitsIcEENS_9allocatorIcEEE5__repES5_E6secondB8ue170006Ev, symObjAddr: 0x3E00, symBinAddr: 0x1000057BC, symSize: 0x24 }
  - { offsetInCU: 0x168BB, offset: 0x168BB, size: 0x8, addend: 0x0, symName: __ZNSt3__122__compressed_pair_elemINS_9allocatorIcEELi1ELb1EE5__getB8ue170006Ev, symObjAddr: 0x3E24, symBinAddr: 0x1000057E0, symSize: 0x14 }
  - { offsetInCU: 0x168E1, offset: 0x168E1, size: 0x8, addend: 0x0, symName: __ZNSt3__112basic_stringIcNS_11char_traitsIcEENS_9allocatorIcEEE19__move_assign_allocB8ue170006ERS5_NS_17integral_constantIbLb1EEE, symObjAddr: 0x3E38, symBinAddr: 0x1000057F4, symSize: 0x38 }
  - { offsetInCU: 0x3E, offset: 0x16A4B, size: 0x8, addend: 0x0, symName: __ZN5folly7dynamic6objectE, symObjAddr: 0x1FFAD8, symBinAddr: 0x100040000, symSize: 0x0 }
  - { offsetInCU: 0x24A, offset: 0x16C57, size: 0x8, addend: 0x0, symName: __ZN5folly7dynamic5arrayE, symObjAddr: 0x1FFB50, symBinAddr: 0x100040078, symSize: 0x0 }
  - { offsetInCU: 0x4A4, offset: 0x16EB1, size: 0x8, addend: 0x0, symName: __ZN5folly6toJsonERKNS_7dynamicE, symObjAddr: 0x2C54, symBinAddr: 0x1000082E4, symSize: 0x3C }
  - { offsetInCU: 0x7E2C, offset: 0x1E839, size: 0x8, addend: 0x0, symName: __ZNSt3__119piecewise_constructE, symObjAddr: 0x3492A, symBinAddr: 0x100039130, symSize: 0x0 }
  - { offsetInCU: 0x10B12, offset: 0x2751F, size: 0x8, addend: 0x0, symName: '__ZNSt3__110__function10__not_nullB8ue170006IZN5hf3fs17monitor_collector19MLWorkloadAnalyticsC1ERKNS4_6ConfigEE3$_0EEbRKT_', symObjAddr: 0x127BC, symBinAddr: 0x100016990, symSize: 0x18 }
  - { offsetInCU: 0x10B45, offset: 0x27552, size: 0x8, addend: 0x0, symName: '__ZNSt3__110__function10__not_nullB8ue170006IZN5hf3fs17monitor_collector19MLWorkloadAnalytics4initEvE3$_1EEbRKT_', symObjAddr: 0x1424C, symBinAddr: 0x100018420, symSize: 0x18 }
  - { offsetInCU: 0x10B78, offset: 0x27585, size: 0x8, addend: 0x0, symName: '__ZNSt3__110__function10__not_nullB8ue170006IZN5hf3fs17monitor_collector19MLWorkloadAnalytics4initEvE3$_2EEbRKT_', symObjAddr: 0x15CD0, symBinAddr: 0x100019EA4, symSize: 0x18 }
  - { offsetInCU: 0x10BAB, offset: 0x275B8, size: 0x8, addend: 0x0, symName: '__ZNSt3__110__function10__not_nullB8ue170006IZN5hf3fs17monitor_collector19MLWorkloadAnalytics15recordOperationERKNS3_15OperationRecordEE3$_4EEbRKT_', symObjAddr: 0x1B690, symBinAddr: 0x10001F864, symSize: 0x18 }
  - { offsetInCU: 0x10BDE, offset: 0x275EB, size: 0x8, addend: 0x0, symName: '__ZNSt3__110__function10__not_nullB8ue170006IZN5hf3fs17monitor_collector19MLWorkloadAnalytics15recordOperationERKNS3_15OperationRecordEE3$_6EEbRKT_', symObjAddr: 0x259F0, symBinAddr: 0x100029A40, symSize: 0x18 }
  - { offsetInCU: 0x2AD9A, offset: 0x417A7, size: 0x8, addend: 0x0, symName: '__ZNSt3__111__introsortINS_17_ClassicAlgPolicyERZN5hf3fs17monitor_collector19MLWorkloadAnalytics20cleanupIdleWorkloadsEvE3$_8PNS_4pairIyyEELb0EEEvT1_SA_T0_NS_15iterator_traitsISA_E15difference_typeEb', symObjAddr: 0x30930, symBinAddr: 0x100034980, symSize: 0x434 }
  - { offsetInCU: 0x2AEC6, offset: 0x418D3, size: 0x8, addend: 0x0, symName: '__ZNSt3__126__insertion_sort_unguardedB8ue170006INS_17_ClassicAlgPolicyERZN5hf3fs17monitor_collector19MLWorkloadAnalytics20cleanupIdleWorkloadsEvE3$_8PNS_4pairIyyEEEEvT1_SA_T0_', symObjAddr: 0x31000, symBinAddr: 0x100035050, symSize: 0x120 }
  - { offsetInCU: 0x2AFB7, offset: 0x419C4, size: 0x8, addend: 0x0, symName: '__ZNSt3__111__sift_downB8ue170006INS_17_ClassicAlgPolicyERZN5hf3fs17monitor_collector19MLWorkloadAnalytics20cleanupIdleWorkloadsEvE3$_8PNS_4pairIyyEEEEvT1_OT0_NS_15iterator_traitsISA_E15difference_typeESA_', symObjAddr: 0x3226C, symBinAddr: 0x1000362BC, symSize: 0x20C }
  - { offsetInCU: 0x2B065, offset: 0x41A72, size: 0x8, addend: 0x0, symName: '__ZNSt3__117__floyd_sift_downB8ue170006INS_17_ClassicAlgPolicyERZN5hf3fs17monitor_collector19MLWorkloadAnalytics20cleanupIdleWorkloadsEvE3$_8PNS_4pairIyyEEEET1_SA_OT0_NS_15iterator_traitsISA_E15difference_typeE', symObjAddr: 0x32614, symBinAddr: 0x100036664, symSize: 0x100 }
  - { offsetInCU: 0x2B0FE, offset: 0x41B0B, size: 0x8, addend: 0x0, symName: '__ZNSt3__131__partition_with_equals_on_leftB8ue170006INS_17_ClassicAlgPolicyEPNS_4pairIyyEERZN5hf3fs17monitor_collector19MLWorkloadAnalytics20cleanupIdleWorkloadsEvE3$_8EET0_SA_SA_T1_', symObjAddr: 0x3132C, symBinAddr: 0x10003537C, symSize: 0x20C }
  - { offsetInCU: 0x2B1BA, offset: 0x41BC7, size: 0x8, addend: 0x0, symName: '__ZNSt3__118__bitset_partitionB8ue170006INS_17_ClassicAlgPolicyEPNS_4pairIyyEERZN5hf3fs17monitor_collector19MLWorkloadAnalytics20cleanupIdleWorkloadsEvE3$_8EENS2_IT0_bEESA_SA_T1_', symObjAddr: 0x31538, symBinAddr: 0x100035588, symSize: 0x32C }
  - { offsetInCU: 0x2B2B7, offset: 0x41CC4, size: 0x8, addend: 0x0, symName: __ZNSt3__124__swap_bitmap_pos_withinB8ue170006INS_17_ClassicAlgPolicyEPNS_4pairIyyEEEEvRT0_S6_RyS7_, symObjAddr: 0x32D60, symBinAddr: 0x100036DB0, symSize: 0x1E0 }
  - { offsetInCU: 0x2B384, offset: 0x41D91, size: 0x8, addend: 0x0, symName: '__ZNSt3__132__partition_with_equals_on_rightB8ue170006INS_17_ClassicAlgPolicyEPNS_4pairIyyEERZN5hf3fs17monitor_collector19MLWorkloadAnalytics20cleanupIdleWorkloadsEvE3$_8EENS2_IT0_bEESA_SA_T1_', symObjAddr: 0x31864, symBinAddr: 0x1000358B4, symSize: 0x224 }
  - { offsetInCU: 0x2B44F, offset: 0x41E5C, size: 0x8, addend: 0x0, symName: '__ZNSt3__127__insertion_sort_incompleteB8ue170006INS_17_ClassicAlgPolicyERZN5hf3fs17monitor_collector19MLWorkloadAnalytics20cleanupIdleWorkloadsEvE3$_8PNS_4pairIyyEEEEbT1_SA_T0_', symObjAddr: 0x31A88, symBinAddr: 0x100035AD8, symSize: 0x304 }
  - { offsetInCU: 0x2C886, offset: 0x43293, size: 0x8, addend: 0x0, symName: '__ZNSt3__111make_uniqueB8ue170006IN5hf3fs16BackgroundRunnerEJRA19_KcZNS1_17monitor_collector19MLWorkloadAnalytics4initEvE3$_1NS_6chrono8durationIxNS_5ratioILl1ELl1000EEEEEEEENS_11__unique_ifIT_E15__unique_singleEDpOT0_', symObjAddr: 0xACC, symBinAddr: 0x100006174, symSize: 0x160 }
  - { offsetInCU: 0x2C8F2, offset: 0x432FF, size: 0x8, addend: 0x0, symName: '__ZNSt3__111make_uniqueB8ue170006IN5hf3fs16BackgroundRunnerEJRA19_KcZNS1_17monitor_collector19MLWorkloadAnalytics4initEvE3$_2NS_6chrono8durationIxNS_5ratioILl1ELl1000EEEEEEEENS_11__unique_ifIT_E15__unique_singleEDpOT0_', symObjAddr: 0xD08, symBinAddr: 0x1000063B0, symSize: 0x160 }
  - { offsetInCU: 0x2CC27, offset: 0x43634, size: 0x8, addend: 0x0, symName: __ZNSt3__1eqB8ue170006ERKNS_19__hash_map_iteratorINS_15__hash_iteratorIPNS_11__hash_nodeINS_17__hash_value_typeIyNS_10shared_ptrIN5hf3fs17monitor_collector13WorkloadStatsEEEEEPvEEEEEESG_, symObjAddr: 0x14A4, symBinAddr: 0x100006B4C, symSize: 0x30 }
  - { offsetInCU: 0x2CC64, offset: 0x43671, size: 0x8, addend: 0x0, symName: __ZNSt3__1neB8ue170006IcNS_11char_traitsIcEENS_9allocatorIcEEEEbRKNS_12basic_stringIT_T0_T1_EESB_, symObjAddr: 0x1564, symBinAddr: 0x100006C0C, symSize: 0x34 }
  - { offsetInCU: 0x2CCBC, offset: 0x436C9, size: 0x8, addend: 0x0, symName: __ZNSt3__1neB8ue170006IPNS_10shared_ptrIN5hf3fs17monitor_collector13WorkloadStatsEEEEEbRKNS_11__wrap_iterIT_EESB_, symObjAddr: 0x1824, symBinAddr: 0x100006EB4, symSize: 0x34 }
  - { offsetInCU: 0x2CCFF, offset: 0x4370C, size: 0x8, addend: 0x0, symName: __ZNSt3__1neB8ue170006ERKNS_19__hash_map_iteratorINS_15__hash_iteratorIPNS_11__hash_nodeINS_17__hash_value_typeIyNS_10shared_ptrIN5hf3fs17monitor_collector13WorkloadStatsEEEEEPvEEEEEESG_, symObjAddr: 0x253C, symBinAddr: 0x100007BCC, symSize: 0x30 }
  - { offsetInCU: 0x2CD3C, offset: 0x43749, size: 0x8, addend: 0x0, symName: __ZNSt3__13getB8ue170006ILm0EKyNS_10shared_ptrIN5hf3fs17monitor_collector13WorkloadStatsEEEEERKNS_13tuple_elementIXT_ENS_4pairIT0_T1_EEE4typeERKSB_, symObjAddr: 0x2594, symBinAddr: 0x100007C24, symSize: 0x24 }
  - { offsetInCU: 0x2CD86, offset: 0x43793, size: 0x8, addend: 0x0, symName: __ZNSt3__13getB8ue170006ILm1EKyNS_10shared_ptrIN5hf3fs17monitor_collector13WorkloadStatsEEEEERKNS_13tuple_elementIXT_ENS_4pairIT0_T1_EEE4typeERKSB_, symObjAddr: 0x25B8, symBinAddr: 0x100007C48, symSize: 0x24 }
  - { offsetInCU: 0x2CDD0, offset: 0x437DD, size: 0x8, addend: 0x0, symName: __ZNSt3__1neB8ue170006ERKNS_19__hash_map_iteratorINS_15__hash_iteratorIPNS_11__hash_nodeINS_17__hash_value_typeINS_12basic_stringIcNS_11char_traitsIcEENS_9allocatorIcEEEEyEEPvEEEEEESH_, symObjAddr: 0x29BC, symBinAddr: 0x10000804C, symSize: 0x30 }
  - { offsetInCU: 0x2CE0D, offset: 0x4381A, size: 0x8, addend: 0x0, symName: __ZNSt3__13getB8ue170006ILm0EKNS_12basic_stringIcNS_11char_traitsIcEENS_9allocatorIcEEEEyEERKNS_13tuple_elementIXT_ENS_4pairIT0_T1_EEE4typeERKSC_, symObjAddr: 0x2A14, symBinAddr: 0x1000080A4, symSize: 0x24 }
  - { offsetInCU: 0x2CE57, offset: 0x43864, size: 0x8, addend: 0x0, symName: __ZNSt3__13getB8ue170006ILm1EKNS_12basic_stringIcNS_11char_traitsIcEENS_9allocatorIcEEEEyEERKNS_13tuple_elementIXT_ENS_4pairIT0_T1_EEE4typeERKSC_, symObjAddr: 0x2A38, symBinAddr: 0x1000080C8, symSize: 0x24 }
  - { offsetInCU: 0x2CEA1, offset: 0x438AE, size: 0x8, addend: 0x0, symName: __ZNSt3__1neB8ue170006IPNS_12basic_stringIcNS_11char_traitsIcEENS_9allocatorIcEEEEEEbRKNS_11__wrap_iterIT_EESC_, symObjAddr: 0x2B1C, symBinAddr: 0x1000081AC, symSize: 0x34 }
  - { offsetInCU: 0x2CEE4, offset: 0x438F1, size: 0x8, addend: 0x0, symName: __ZNSt3__13getB8ue170006ILm0EKyNS_10shared_ptrIN5hf3fs17monitor_collector13WorkloadStatsEEEEERNS_13tuple_elementIXT_ENS_4pairIT0_T1_EEE4typeERSB_, symObjAddr: 0x3C38, symBinAddr: 0x1000092C8, symSize: 0x24 }
  - { offsetInCU: 0x2CF2E, offset: 0x4393B, size: 0x8, addend: 0x0, symName: __ZNSt3__13getB8ue170006ILm1EKyNS_10shared_ptrIN5hf3fs17monitor_collector13WorkloadStatsEEEEERNS_13tuple_elementIXT_ENS_4pairIT0_T1_EEE4typeERSB_, symObjAddr: 0x3C5C, symBinAddr: 0x1000092EC, symSize: 0x24 }
  - { offsetInCU: 0x2CF78, offset: 0x43985, size: 0x8, addend: 0x0, symName: __ZNSt3__1neB8ue170006ERKNS_19__hash_map_iteratorINS_15__hash_iteratorIPNS_11__hash_nodeINS_17__hash_value_typeIyNS_6vectorIN5hf3fs17monitor_collector15OperationRecordENS_9allocatorIS7_EEEEEEPvEEEEEESI_, symObjAddr: 0x4708, symBinAddr: 0x100009D98, symSize: 0x30 }
  - { offsetInCU: 0x2CFB5, offset: 0x439C2, size: 0x8, addend: 0x0, symName: __ZNSt3__1neB8ue170006IPN5hf3fs17monitor_collector15OperationRecordEEEbRKNS_11__wrap_iterIT_EES9_, symObjAddr: 0x4844, symBinAddr: 0x100009ED4, symSize: 0x34 }
  - { offsetInCU: 0x2CFF8, offset: 0x43A05, size: 0x8, addend: 0x0, symName: __ZNSt3__110accumulateB8ue170006INS_11__wrap_iterIPyEEyEET0_T_S5_S4_, symObjAddr: 0x49D4, symBinAddr: 0x10000A064, symSize: 0x70 }
  - { offsetInCU: 0x2D052, offset: 0x43A5F, size: 0x8, addend: 0x0, symName: __ZNSt3__1neB8ue170006IPyEEbRKNS_11__wrap_iterIT_EES6_, symObjAddr: 0x4AA4, symBinAddr: 0x10000A134, symSize: 0x34 }
  - { offsetInCU: 0x2D095, offset: 0x43AA2, size: 0x8, addend: 0x0, symName: __ZNSt3__111make_sharedB8ue170006IN5hf3fs17monitor_collector13WorkloadStatsEJRS3_EvEENS_10shared_ptrIT_EEDpOT0_, symObjAddr: 0x51B4, symBinAddr: 0x10000A7EC, symSize: 0x40 }
  - { offsetInCU: 0x2D0D9, offset: 0x43AE6, size: 0x8, addend: 0x0, symName: '__ZNSt3__19remove_ifB8ue170006INS_11__wrap_iterIPNS_10shared_ptrIN5hf3fs17monitor_collector13WorkloadStatsEEEEEZNS4_19MLWorkloadAnalytics14generateReportEvE3$_7EET_SB_SB_T0_', symObjAddr: 0x53BC, symBinAddr: 0x10000A9C8, symSize: 0xFC }
  - { offsetInCU: 0x2D14F, offset: 0x43B5C, size: 0x8, addend: 0x0, symName: __ZNSt3__1eqB8ue170006IcNS_11char_traitsIcEENS_9allocatorIcEEEEbRKNS_12basic_stringIT_T0_T1_EEPKS6_, symObjAddr: 0x5540, symBinAddr: 0x10000AB4C, symSize: 0xAC }
  - { offsetInCU: 0x2D1B6, offset: 0x43BC3, size: 0x8, addend: 0x0, symName: __ZNSt3__1eqB8ue170006ERKNS_19__hash_map_iteratorINS_15__hash_iteratorIPNS_11__hash_nodeINS_17__hash_value_typeIyNS_6vectorIN5hf3fs17monitor_collector15OperationRecordENS_9allocatorIS7_EEEEEEPvEEEEEESI_, symObjAddr: 0x5A28, symBinAddr: 0x10000B034, symSize: 0x30 }
  - { offsetInCU: 0x2D1F3, offset: 0x43C00, size: 0x8, addend: 0x0, symName: __ZNSt3__1neB8ue170006IPKN5hf3fs17monitor_collector15OperationRecordEEEbRKNS_11__wrap_iterIT_EESA_, symObjAddr: 0x5AB8, symBinAddr: 0x10000B0C4, symSize: 0x34 }
  - { offsetInCU: 0x2D236, offset: 0x43C43, size: 0x8, addend: 0x0, symName: __ZNSt3__19transformB8ue170006INS_11__wrap_iterIPcEES3_PFiiEEET0_T_S7_S6_T1_, symObjAddr: 0x5B24, symBinAddr: 0x10000B130, symSize: 0x98 }
  - { offsetInCU: 0x2D2A7, offset: 0x43CB4, size: 0x8, addend: 0x0, symName: __ZNSt3__13maxB8ue170006IiEET_St16initializer_listIS1_E, symObjAddr: 0x5C80, symBinAddr: 0x10000B28C, symSize: 0x50 }
  - { offsetInCU: 0x2D2DD, offset: 0x43CEA, size: 0x8, addend: 0x0, symName: '__ZNSt3__14sortB8ue170006INS_11__wrap_iterIPNS_4pairIyyEEEEZN5hf3fs17monitor_collector19MLWorkloadAnalytics20cleanupIdleWorkloadsEvE3$_8EEvT_SA_T0_', symObjAddr: 0x5DD8, symBinAddr: 0x10000B3E4, symSize: 0x40 }
  - { offsetInCU: 0x2D338, offset: 0x43D45, size: 0x8, addend: 0x0, symName: __ZNSt3__112__to_addressB8ue170006IN5folly7dynamicEEEPT_S4_, symObjAddr: 0x6B04, symBinAddr: 0x10000C110, symSize: 0x14 }
  - { offsetInCU: 0x2D39F, offset: 0x43DAC, size: 0x8, addend: 0x0, symName: __ZNSt3__17launderB8ue170006INS_4pairIKNS_12basic_stringIcNS_11char_traitsIcEENS_9allocatorIcEEEEN5folly7dynamicEEEEEPT_SD_, symObjAddr: 0x70EC, symBinAddr: 0x10000C5D0, symSize: 0x24 }
  - { offsetInCU: 0x2D3D7, offset: 0x43DE4, size: 0x8, addend: 0x0, symName: __ZNSt3__19__launderB8ue170006INS_4pairIKNS_12basic_stringIcNS_11char_traitsIcEENS_9allocatorIcEEEEN5folly7dynamicEEEEEPT_SD_, symObjAddr: 0x7110, symBinAddr: 0x10000C5F4, symSize: 0x14 }
  - { offsetInCU: 0x2D441, offset: 0x43E4E, size: 0x8, addend: 0x0, symName: __ZNSt3__112__to_addressB8ue170006IN5hf3fs17monitor_collector15OperationRecordEEEPT_S5_, symObjAddr: 0x8E90, symBinAddr: 0x10000E374, symSize: 0x14 }
  - { offsetInCU: 0x2D475, offset: 0x43E82, size: 0x8, addend: 0x0, symName: __ZNSt3__17launderB8ue170006INS_4pairIKyNS_6vectorIN5hf3fs17monitor_collector15OperationRecordENS_9allocatorIS6_EEEEEEEEPT_SC_, symObjAddr: 0x90A4, symBinAddr: 0x10000E520, symSize: 0x24 }
  - { offsetInCU: 0x2D4AD, offset: 0x43EBA, size: 0x8, addend: 0x0, symName: __ZNSt3__19__launderB8ue170006INS_4pairIKyNS_6vectorIN5hf3fs17monitor_collector15OperationRecordENS_9allocatorIS6_EEEEEEEEPT_SC_, symObjAddr: 0x90C8, symBinAddr: 0x10000E544, symSize: 0x14 }
  - { offsetInCU: 0x2D4E3, offset: 0x43EF0, size: 0x8, addend: 0x0, symName: __ZNSt3__1eqB8ue170006IPNS_10shared_ptrIN5hf3fs17monitor_collector13WorkloadStatsEEEEEbRKNS_11__wrap_iterIT_EESB_, symObjAddr: 0x95BC, symBinAddr: 0x10000E8DC, symSize: 0x48 }
  - { offsetInCU: 0x2D544, offset: 0x43F51, size: 0x8, addend: 0x0, symName: __ZNSt3__13maxB8ue170006ImEERKT_S3_S3_, symObjAddr: 0xA4A4, symBinAddr: 0x10000F7C4, symSize: 0x2C }
  - { offsetInCU: 0x2D588, offset: 0x43F95, size: 0x8, addend: 0x0, symName: __ZNSt3__116__is_hash_power2B8ue170006Em, symObjAddr: 0xA4D0, symBinAddr: 0x10000F7F0, symSize: 0x50 }
  - { offsetInCU: 0x2D5B3, offset: 0x43FC0, size: 0x8, addend: 0x0, symName: __ZNSt3__116__next_hash_pow2B8ue170006Em, symObjAddr: 0xA520, symBinAddr: 0x10000F840, symSize: 0x6C }
  - { offsetInCU: 0x2D5E0, offset: 0x43FED, size: 0x8, addend: 0x0, symName: __ZNSt3__116__constrain_hashB8ue170006Emm, symObjAddr: 0xA774, symBinAddr: 0x10000FA94, symSize: 0x98 }
  - { offsetInCU: 0x2D619, offset: 0x44026, size: 0x8, addend: 0x0, symName: __ZNSt3__117__libcpp_allocateB8ue170006Emm, symObjAddr: 0xA8D4, symBinAddr: 0x10000FBF4, symSize: 0x60 }
  - { offsetInCU: 0x2D673, offset: 0x44080, size: 0x8, addend: 0x0, symName: __ZNSt3__121__libcpp_operator_newB8ue170006IJmSt11align_val_tEEEPvDpT_, symObjAddr: 0xA948, symBinAddr: 0x10000FC68, symSize: 0x2C }
  - { offsetInCU: 0x2D6C0, offset: 0x440CD, size: 0x8, addend: 0x0, symName: __ZNSt3__121__libcpp_operator_newB8ue170006IJmEEEPvDpT_, symObjAddr: 0xA974, symBinAddr: 0x10000FC94, symSize: 0x24 }
  - { offsetInCU: 0x2D6F9, offset: 0x44106, size: 0x8, addend: 0x0, symName: __ZNSt3__13maxB8ue170006ImNS_6__lessIvvEEEERKT_S5_S5_T0_, symObjAddr: 0xA9D0, symBinAddr: 0x10000FCF0, symSize: 0x54 }
  - { offsetInCU: 0x2D7FB, offset: 0x44208, size: 0x8, addend: 0x0, symName: __ZNSt3__112__libcpp_clzB8ue170006Em, symObjAddr: 0xAA58, symBinAddr: 0x10000FD78, symSize: 0x1C }
  - { offsetInCU: 0x2D826, offset: 0x44233, size: 0x8, addend: 0x0, symName: __ZNSt3__1neB8ue170006ERKNS_25__hash_map_const_iteratorINS_21__hash_const_iteratorIPNS_11__hash_nodeINS_17__hash_value_typeINS_12basic_stringIcNS_11char_traitsIcEENS_9allocatorIcEEEEN5folly7dynamicEEEPvEEEEEESJ_, symObjAddr: 0xAAD0, symBinAddr: 0x10000FDF0, symSize: 0x30 }
  - { offsetInCU: 0x2D863, offset: 0x44270, size: 0x8, addend: 0x0, symName: __ZNSt3__1neB8ue170006ERKNS_21__hash_const_iteratorIPNS_11__hash_nodeINS_17__hash_value_typeINS_12basic_stringIcNS_11char_traitsIcEENS_9allocatorIcEEEEN5folly7dynamicEEEPvEEEESH_, symObjAddr: 0xABA4, symBinAddr: 0x10000FEC4, symSize: 0x34 }
  - { offsetInCU: 0x2D8A1, offset: 0x442AE, size: 0x8, addend: 0x0, symName: __ZNSt3__1eqB8ue170006ERKNS_21__hash_const_iteratorIPNS_11__hash_nodeINS_17__hash_value_typeINS_12basic_stringIcNS_11char_traitsIcEENS_9allocatorIcEEEEN5folly7dynamicEEEPvEEEESH_, symObjAddr: 0xABD8, symBinAddr: 0x10000FEF8, symSize: 0x30 }
  - { offsetInCU: 0x2D8DD, offset: 0x442EA, size: 0x8, addend: 0x0, symName: __ZNSt3__116__do_string_hashB8ue170006IPKcEEmT_S3_, symObjAddr: 0xB48C, symBinAddr: 0x1000107AC, symSize: 0x3C }
  - { offsetInCU: 0x2D924, offset: 0x44331, size: 0x8, addend: 0x0, symName: __ZNSt3__110__loadwordB8ue170006ImEET_PKv, symObjAddr: 0xBEFC, symBinAddr: 0x1000111A0, symSize: 0x20 }
  - { offsetInCU: 0x2D967, offset: 0x44374, size: 0x8, addend: 0x0, symName: __ZNSt3__14swapB8ue170006ImEENS_9enable_ifIXaasr21is_move_constructibleIT_EE5valuesr18is_move_assignableIS2_EE5valueEvE4typeERS2_S5_, symObjAddr: 0xC0B8, symBinAddr: 0x10001135C, symSize: 0x3C }
  - { offsetInCU: 0x2D9B8, offset: 0x443C5, size: 0x8, addend: 0x0, symName: __ZNSt3__110__loadwordB8ue170006IjEET_PKv, symObjAddr: 0xC148, symBinAddr: 0x1000113EC, symSize: 0x20 }
  - { offsetInCU: 0x2D9FA, offset: 0x44407, size: 0x8, addend: 0x0, symName: __ZNSt3__1eqB8ue170006INS_9allocatorIcEEEEbRKNS_12basic_stringIcNS_11char_traitsIcEET_EES9_, symObjAddr: 0xC4D8, symBinAddr: 0x1000115E4, symSize: 0x148 }
  - { offsetInCU: 0x2DA6D, offset: 0x4447A, size: 0x8, addend: 0x0, symName: __ZNSt3__17launderB8ue170006IKNS_4pairIKNS_12basic_stringIcNS_11char_traitsIcEENS_9allocatorIcEEEEN5folly7dynamicEEEEEPT_SE_, symObjAddr: 0xC654, symBinAddr: 0x100011760, symSize: 0x24 }
  - { offsetInCU: 0x2DAA5, offset: 0x444B2, size: 0x8, addend: 0x0, symName: __ZNSt3__19__launderB8ue170006IKNS_4pairIKNS_12basic_stringIcNS_11char_traitsIcEENS_9allocatorIcEEEEN5folly7dynamicEEEEEPT_SE_, symObjAddr: 0xC678, symBinAddr: 0x100011784, symSize: 0x14 }
  - { offsetInCU: 0x2DB2C, offset: 0x44539, size: 0x8, addend: 0x0, symName: __ZNSt3__122__make_exception_guardB8ue170006INS_6vectorIN5folly7dynamicENS_9allocatorIS3_EEE16__destroy_vectorEEENS_28__exception_guard_exceptionsIT_EES9_, symObjAddr: 0xD088, symBinAddr: 0x100012194, symSize: 0x40 }
  - { offsetInCU: 0x2DB61, offset: 0x4456E, size: 0x8, addend: 0x0, symName: __ZNSt3__119__allocate_at_leastB8ue170006INS_9allocatorIN5folly7dynamicEEEEENS_19__allocation_resultINS_16allocator_traitsIT_E7pointerEEERS7_m, symObjAddr: 0xD324, symBinAddr: 0x100012430, symSize: 0x40 }
  - { offsetInCU: 0x2DBA4, offset: 0x445B1, size: 0x8, addend: 0x0, symName: __ZNSt3__13minB8ue170006ImEERKT_S3_S3_, symObjAddr: 0xD454, symBinAddr: 0x100012560, symSize: 0x2C }
  - { offsetInCU: 0x2DDD1, offset: 0x447DE, size: 0x8, addend: 0x0, symName: __ZNSt3__13minB8ue170006ImNS_6__lessIvvEEEERKT_S5_S5_T0_, symObjAddr: 0xD4B8, symBinAddr: 0x1000125C4, symSize: 0x54 }
  - { offsetInCU: 0x2DE2C, offset: 0x44839, size: 0x8, addend: 0x0, symName: __ZNSt3__120__throw_length_errorB8ue170006EPKc, symObjAddr: 0xD52C, symBinAddr: 0x100012638, symSize: 0x64 }
  - { offsetInCU: 0x2DE56, offset: 0x44863, size: 0x8, addend: 0x0, symName: __ZNSt3__130__uninitialized_allocator_copyB8ue170006INS_9allocatorIN5folly7dynamicEEEPS3_S5_S5_EET2_RT_T0_T1_S6_, symObjAddr: 0xD6E0, symBinAddr: 0x1000127EC, symSize: 0x80 }
  - { offsetInCU: 0x2DEF3, offset: 0x44900, size: 0x8, addend: 0x0, symName: __ZNSt3__114__unwrap_rangeB8ue170006IPN5folly7dynamicES3_EENS_4pairIT0_S5_EET_S7_, symObjAddr: 0xD7D8, symBinAddr: 0x1000128E4, symSize: 0x60 }
  - { offsetInCU: 0x2DF3F, offset: 0x4494C, size: 0x8, addend: 0x0, symName: __ZNSt3__135__uninitialized_allocator_copy_implB8ue170006INS_9allocatorIN5folly7dynamicEEEPS3_S5_S5_EET2_RT_T0_T1_S6_, symObjAddr: 0xD838, symBinAddr: 0x100012944, symSize: 0xF4 }
  - { offsetInCU: 0x2DFDD, offset: 0x449EA, size: 0x8, addend: 0x0, symName: __ZNSt3__113__unwrap_iterB8ue170006IPN5folly7dynamicENS_18__unwrap_iter_implIS3_Lb1EEELi0EEEDTclsrT0_8__unwrapclsr3stdE7declvalIT_EEEES7_, symObjAddr: 0xD92C, symBinAddr: 0x100012A38, symSize: 0x24 }
  - { offsetInCU: 0x2E021, offset: 0x44A2E, size: 0x8, addend: 0x0, symName: __ZNSt3__113__rewrap_iterB8ue170006IPN5folly7dynamicES3_NS_18__unwrap_iter_implIS3_Lb1EEEEET_S6_T0_, symObjAddr: 0xD950, symBinAddr: 0x100012A5C, symSize: 0x3C }
  - { offsetInCU: 0x2E076, offset: 0x44A83, size: 0x8, addend: 0x0, symName: __ZNSt3__19make_pairB8ue170006IPN5folly7dynamicES3_EENS_4pairINS_18__unwrap_ref_decayIT_E4typeENS5_IT0_E4typeEEEOS6_OS9_, symObjAddr: 0xD98C, symBinAddr: 0x100012A98, symSize: 0x38 }
  - { offsetInCU: 0x2E199, offset: 0x44BA6, size: 0x8, addend: 0x0, symName: __ZNSt3__122__make_exception_guardB8ue170006INS_29_AllocatorDestroyRangeReverseINS_9allocatorIN5folly7dynamicEEEPS4_EEEENS_28__exception_guard_exceptionsIT_EES9_, symObjAddr: 0xDA34, symBinAddr: 0x100012B40, symSize: 0x4C }
  - { offsetInCU: 0x2E1D0, offset: 0x44BDD, size: 0x8, addend: 0x0, symName: __ZNSt3__119__allocator_destroyB8ue170006INS_9allocatorIN5folly7dynamicEEENS_16reverse_iteratorIPS3_EES7_EEvRT_T0_T1_, symObjAddr: 0xDCC4, symBinAddr: 0x100012DD0, symSize: 0x70 }
  - { offsetInCU: 0x2E232, offset: 0x44C3F, size: 0x8, addend: 0x0, symName: __ZNSt3__1neB8ue170006IPN5folly7dynamicES3_EEbRKNS_16reverse_iteratorIT_EERKNS4_IT0_EE, symObjAddr: 0xDD68, symBinAddr: 0x100012E74, symSize: 0x48 }
  - { offsetInCU: 0x2E27E, offset: 0x44C8B, size: 0x8, addend: 0x0, symName: __ZNSt3__112__to_addressB8ue170006INS_16reverse_iteratorIPN5folly7dynamicEEEvEEu7__decayIDTclsr19__to_address_helperIT_EE6__callclsr3stdE7declvalIRKS6_EEEEES8_, symObjAddr: 0xDDB0, symBinAddr: 0x100012EBC, symSize: 0x24 }
  - { offsetInCU: 0x2E481, offset: 0x44E8E, size: 0x8, addend: 0x0, symName: __ZNSt3__116forward_as_tupleB8ue170006IJRKNS_12basic_stringIcNS_11char_traitsIcEENS_9allocatorIcEEEEEEENS_5tupleIJDpOT_EEESC_, symObjAddr: 0xF284, symBinAddr: 0x100013E1C, symSize: 0x2C }
  - { offsetInCU: 0x2E4BB, offset: 0x44EC8, size: 0x8, addend: 0x0, symName: __ZNSt3__116forward_as_tupleB8ue170006IJEEENS_5tupleIJDpOT_EEES4_, symObjAddr: 0xF2B0, symBinAddr: 0x100013E48, symSize: 0x4 }
  - { offsetInCU: 0x2E4EA, offset: 0x44EF7, size: 0x8, addend: 0x0, symName: __ZNSt3__13getB8ue170006ILm0EJRKNS_12basic_stringIcNS_11char_traitsIcEENS_9allocatorIcEEEEEEERNS_13tuple_elementIXT_ENS_5tupleIJDpT0_EEEE4typeERSD_, symObjAddr: 0xF5AC, symBinAddr: 0x100014144, symSize: 0x24 }
  - { offsetInCU: 0x2E584, offset: 0x44F91, size: 0x8, addend: 0x0, symName: __ZNSt3__1eqB8ue170006IPNS_12basic_stringIcNS_11char_traitsIcEENS_9allocatorIcEEEEEEbRKNS_11__wrap_iterIT_EESC_, symObjAddr: 0xF6EC, symBinAddr: 0x100014284, symSize: 0x48 }
  - { offsetInCU: 0x2E5C7, offset: 0x44FD4, size: 0x8, addend: 0x0, symName: __ZNSt3__142__uninitialized_allocator_move_if_noexceptB8ue170006INS_9allocatorIN5folly7dynamicEEENS_16reverse_iteratorIPS3_EES7_S7_EET2_RT_T0_T1_S8_, symObjAddr: 0xFDF0, symBinAddr: 0x100014988, symSize: 0x11C }
  - { offsetInCU: 0x2E668, offset: 0x45075, size: 0x8, addend: 0x0, symName: __ZNSt3__14swapB8ue170006IPN5folly7dynamicEEENS_9enable_ifIXaasr21is_move_constructibleIT_EE5valuesr18is_move_assignableIS5_EE5valueEvE4typeERS5_S8_, symObjAddr: 0xFF0C, symBinAddr: 0x100014AA4, symSize: 0x3C }
  - { offsetInCU: 0x2E6B8, offset: 0x450C5, size: 0x8, addend: 0x0, symName: __ZNSt3__122__make_exception_guardB8ue170006INS_29_AllocatorDestroyRangeReverseINS_9allocatorIN5folly7dynamicEEENS_16reverse_iteratorIPS4_EEEEEENS_28__exception_guard_exceptionsIT_EESB_, symObjAddr: 0xFF48, symBinAddr: 0x100014AE0, symSize: 0x4C }
  - { offsetInCU: 0x2E6EF, offset: 0x450FC, size: 0x8, addend: 0x0, symName: __ZNSt3__119__allocator_destroyB8ue170006INS_9allocatorIN5folly7dynamicEEENS_16reverse_iteratorINS5_IPS3_EEEES8_EEvRT_T0_T1_, symObjAddr: 0x101C0, symBinAddr: 0x100014D58, symSize: 0x70 }
  - { offsetInCU: 0x2E753, offset: 0x45160, size: 0x8, addend: 0x0, symName: __ZNSt3__1neB8ue170006INS_16reverse_iteratorIPN5folly7dynamicEEES5_EEbRKNS1_IT_EERKNS1_IT0_EE, symObjAddr: 0x1026C, symBinAddr: 0x100014E04, symSize: 0x60 }
  - { offsetInCU: 0x2E79F, offset: 0x451AC, size: 0x8, addend: 0x0, symName: __ZNSt3__112__to_addressB8ue170006INS_16reverse_iteratorINS1_IPN5folly7dynamicEEEEEvEEu7__decayIDTclsr19__to_address_helperIT_EE6__callclsr3stdE7declvalIRKS7_EEEEES9_, symObjAddr: 0x102CC, symBinAddr: 0x100014E64, symSize: 0x24 }
  - { offsetInCU: 0x2E7FE, offset: 0x4520B, size: 0x8, addend: 0x0, symName: __ZNSt3__1eqB8ue170006IPN5hf3fs17monitor_collector15OperationRecordEEEbRKNS_11__wrap_iterIT_EES9_, symObjAddr: 0x10BB0, symBinAddr: 0x100015684, symSize: 0x48 }
  - { offsetInCU: 0x2E841, offset: 0x4524E, size: 0x8, addend: 0x0, symName: __ZNSt3__1eqB8ue170006IPyEEbRKNS_11__wrap_iterIT_EES6_, symObjAddr: 0x10C10, symBinAddr: 0x1000156E4, symSize: 0x48 }
  - { offsetInCU: 0x2E884, offset: 0x45291, size: 0x8, addend: 0x0, symName: __ZNSt3__1eqB8ue170006IPKN5hf3fs17monitor_collector15OperationRecordEEEbRKNS_11__wrap_iterIT_EESA_, symObjAddr: 0x10CB0, symBinAddr: 0x100015784, symSize: 0x48 }
  - { offsetInCU: 0x2E8C7, offset: 0x452D4, size: 0x8, addend: 0x0, symName: __ZNSt3__111max_elementB8ue170006IPKiNS_6__lessIvvEEEET_S5_S5_T0_, symObjAddr: 0x10D10, symBinAddr: 0x1000157E4, symSize: 0x30 }
  - { offsetInCU: 0x2E921, offset: 0x4532E, size: 0x8, addend: 0x0, symName: __ZNSt3__113__max_elementB8ue170006IRNS_6__lessIvvEEPKiEET0_S6_S6_T_, symObjAddr: 0x10D78, symBinAddr: 0x10001584C, symSize: 0x9C }
  - { offsetInCU: 0x2E997, offset: 0x453A4, size: 0x8, addend: 0x0, symName: __ZNSt3__1neB8ue170006IPcEEbRKNS_11__wrap_iterIT_EES6_, symObjAddr: 0x1104C, symBinAddr: 0x100015A88, symSize: 0x34 }
  - { offsetInCU: 0x2E9DA, offset: 0x453E7, size: 0x8, addend: 0x0, symName: __ZNSt3__1eqB8ue170006IPcEEbRKNS_11__wrap_iterIT_EES6_, symObjAddr: 0x110B8, symBinAddr: 0x100015AF4, symSize: 0x48 }
  - { offsetInCU: 0x2EA50, offset: 0x4545D, size: 0x8, addend: 0x0, symName: __ZNSt3__17launderB8ue170006INS_4pairIKyNS_10shared_ptrIN5hf3fs17monitor_collector13WorkloadStatsEEEEEEEPT_SA_, symObjAddr: 0x11448, symBinAddr: 0x100015E84, symSize: 0x24 }
  - { offsetInCU: 0x2EA88, offset: 0x45495, size: 0x8, addend: 0x0, symName: __ZNSt3__19__launderB8ue170006INS_4pairIKyNS_10shared_ptrIN5hf3fs17monitor_collector13WorkloadStatsEEEEEEEPT_SA_, symObjAddr: 0x1146C, symBinAddr: 0x100015EA8, symSize: 0x14 }
  - { offsetInCU: 0x2EABF, offset: 0x454CC, size: 0x8, addend: 0x0, symName: __ZNSt3__112__to_addressB8ue170006INS_10shared_ptrIN5hf3fs17monitor_collector13WorkloadStatsEEEEEPT_S7_, symObjAddr: 0x11C04, symBinAddr: 0x100016640, symSize: 0x14 }
  - { offsetInCU: 0x2EC61, offset: 0x4566E, size: 0x8, addend: 0x0, symName: '__ZNSt3__116forward_as_tupleB8ue170006IJZN5hf3fs17monitor_collector19MLWorkloadAnalyticsC1ERKNS3_6ConfigEE3$_0EEENS_5tupleIJDpOT_EEESB_', symObjAddr: 0x12D34, symBinAddr: 0x100016F08, symSize: 0x2C }
  - { offsetInCU: 0x2EC9B, offset: 0x456A8, size: 0x8, addend: 0x0, symName: '__ZNSt3__116forward_as_tupleB8ue170006IJNS_9allocatorIZN5hf3fs17monitor_collector19MLWorkloadAnalyticsC1ERKNS4_6ConfigEE3$_0EEEEENS_5tupleIJDpOT_EEESD_', symObjAddr: 0x12D60, symBinAddr: 0x100016F34, symSize: 0x2C }
  - { offsetInCU: 0x2ECFF, offset: 0x4570C, size: 0x8, addend: 0x0, symName: '__ZNSt3__13getB8ue170006ILm0EJOZN5hf3fs17monitor_collector19MLWorkloadAnalyticsC1ERKNS3_6ConfigEE3$_0EEERNS_13tuple_elementIXT_ENS_5tupleIJDpT0_EEEE4typeERSD_', symObjAddr: 0x13078, symBinAddr: 0x10001724C, symSize: 0x24 }
  - { offsetInCU: 0x2ED42, offset: 0x4574F, size: 0x8, addend: 0x0, symName: '__ZNSt3__13getB8ue170006ILm0EJONS_9allocatorIZN5hf3fs17monitor_collector19MLWorkloadAnalyticsC1ERKNS4_6ConfigEE3$_0EEEEERNS_13tuple_elementIXT_ENS_5tupleIJDpT0_EEEE4typeERSF_', symObjAddr: 0x130B4, symBinAddr: 0x100017288, symSize: 0x24 }
  - { offsetInCU: 0x2F28E, offset: 0x45C9B, size: 0x8, addend: 0x0, symName: '__ZNSt3__116forward_as_tupleB8ue170006IJRKZN5hf3fs17monitor_collector19MLWorkloadAnalyticsC1ERKNS3_6ConfigEE3$_0EEENS_5tupleIJDpOT_EEESD_', symObjAddr: 0x13648, symBinAddr: 0x10001781C, symSize: 0x2C }
  - { offsetInCU: 0x2F2DD, offset: 0x45CEA, size: 0x8, addend: 0x0, symName: '__ZNSt3__13getB8ue170006ILm0EJRKZN5hf3fs17monitor_collector19MLWorkloadAnalyticsC1ERKNS3_6ConfigEE3$_0EEERNS_13tuple_elementIXT_ENS_5tupleIJDpT0_EEEE4typeERSE_', symObjAddr: 0x13838, symBinAddr: 0x100017A0C, symSize: 0x24 }
  - { offsetInCU: 0x2F320, offset: 0x45D2D, size: 0x8, addend: 0x0, symName: '__ZNSt3__116forward_as_tupleB8ue170006IJRKNS_9allocatorIZN5hf3fs17monitor_collector19MLWorkloadAnalyticsC1ERKNS4_6ConfigEE3$_0EEEEENS_5tupleIJDpOT_EEESF_', symObjAddr: 0x13B94, symBinAddr: 0x100017D68, symSize: 0x2C }
  - { offsetInCU: 0x2F36F, offset: 0x45D7C, size: 0x8, addend: 0x0, symName: '__ZNSt3__13getB8ue170006ILm0EJRKNS_9allocatorIZN5hf3fs17monitor_collector19MLWorkloadAnalyticsC1ERKNS4_6ConfigEE3$_0EEEEERNS_13tuple_elementIXT_ENS_5tupleIJDpT0_EEEE4typeERSG_', symObjAddr: 0x13D78, symBinAddr: 0x100017F4C, symSize: 0x24 }
  - { offsetInCU: 0x2F422, offset: 0x45E2F, size: 0x8, addend: 0x0, symName: '__ZNSt3__18__invokeB8ue170006IRZN5hf3fs17monitor_collector19MLWorkloadAnalyticsC1ERKNS3_6ConfigEE3$_0JEEEDTclclsr3stdE7declvalIT_EEspclsr3stdE7declvalIT0_EEEEOS9_DpOSA_', symObjAddr: 0x13E34, symBinAddr: 0x100018008, symSize: 0x24 }
  - { offsetInCU: 0x2F5C8, offset: 0x45FD5, size: 0x8, addend: 0x0, symName: '__ZNSt3__116forward_as_tupleB8ue170006IJZN5hf3fs17monitor_collector19MLWorkloadAnalytics4initEvE3$_1EEENS_5tupleIJDpOT_EEES8_', symObjAddr: 0x1476C, symBinAddr: 0x100018940, symSize: 0x2C }
  - { offsetInCU: 0x2F602, offset: 0x4600F, size: 0x8, addend: 0x0, symName: '__ZNSt3__116forward_as_tupleB8ue170006IJNS_9allocatorIZN5hf3fs17monitor_collector19MLWorkloadAnalytics4initEvE3$_1EEEEENS_5tupleIJDpOT_EEESA_', symObjAddr: 0x14798, symBinAddr: 0x10001896C, symSize: 0x2C }
  - { offsetInCU: 0x2F666, offset: 0x46073, size: 0x8, addend: 0x0, symName: '__ZNSt3__13getB8ue170006ILm0EJOZN5hf3fs17monitor_collector19MLWorkloadAnalytics4initEvE3$_1EEERNS_13tuple_elementIXT_ENS_5tupleIJDpT0_EEEE4typeERSA_', symObjAddr: 0x14AB0, symBinAddr: 0x100018C84, symSize: 0x24 }
  - { offsetInCU: 0x2F6A9, offset: 0x460B6, size: 0x8, addend: 0x0, symName: '__ZNSt3__13getB8ue170006ILm0EJONS_9allocatorIZN5hf3fs17monitor_collector19MLWorkloadAnalytics4initEvE3$_1EEEEERNS_13tuple_elementIXT_ENS_5tupleIJDpT0_EEEE4typeERSC_', symObjAddr: 0x14AEC, symBinAddr: 0x100018CC0, symSize: 0x24 }
  - { offsetInCU: 0x2FBF5, offset: 0x46602, size: 0x8, addend: 0x0, symName: '__ZNSt3__116forward_as_tupleB8ue170006IJRKZN5hf3fs17monitor_collector19MLWorkloadAnalytics4initEvE3$_1EEENS_5tupleIJDpOT_EEESA_', symObjAddr: 0x15080, symBinAddr: 0x100019254, symSize: 0x2C }
  - { offsetInCU: 0x2FC44, offset: 0x46651, size: 0x8, addend: 0x0, symName: '__ZNSt3__13getB8ue170006ILm0EJRKZN5hf3fs17monitor_collector19MLWorkloadAnalytics4initEvE3$_1EEERNS_13tuple_elementIXT_ENS_5tupleIJDpT0_EEEE4typeERSB_', symObjAddr: 0x15270, symBinAddr: 0x100019444, symSize: 0x24 }
  - { offsetInCU: 0x2FC87, offset: 0x46694, size: 0x8, addend: 0x0, symName: '__ZNSt3__116forward_as_tupleB8ue170006IJRKNS_9allocatorIZN5hf3fs17monitor_collector19MLWorkloadAnalytics4initEvE3$_1EEEEENS_5tupleIJDpOT_EEESC_', symObjAddr: 0x155CC, symBinAddr: 0x1000197A0, symSize: 0x2C }
  - { offsetInCU: 0x2FCD6, offset: 0x466E3, size: 0x8, addend: 0x0, symName: '__ZNSt3__13getB8ue170006ILm0EJRKNS_9allocatorIZN5hf3fs17monitor_collector19MLWorkloadAnalytics4initEvE3$_1EEEEERNS_13tuple_elementIXT_ENS_5tupleIJDpT0_EEEE4typeERSD_', symObjAddr: 0x157B0, symBinAddr: 0x100019984, symSize: 0x24 }
  - { offsetInCU: 0x2FD19, offset: 0x46726, size: 0x8, addend: 0x0, symName: '__ZNSt3__18__invokeB8ue170006IRZN5hf3fs17monitor_collector19MLWorkloadAnalytics4initEvE3$_1JEEEDTclclsr3stdE7declvalIT_EEspclsr3stdE7declvalIT0_EEEEOS6_DpOS7_', symObjAddr: 0x1586C, symBinAddr: 0x100019A40, symSize: 0x24 }
  - { offsetInCU: 0x2FEBF, offset: 0x468CC, size: 0x8, addend: 0x0, symName: '__ZNSt3__116forward_as_tupleB8ue170006IJZN5hf3fs17monitor_collector19MLWorkloadAnalytics4initEvE3$_2EEENS_5tupleIJDpOT_EEES8_', symObjAddr: 0x161F0, symBinAddr: 0x10001A3C4, symSize: 0x2C }
  - { offsetInCU: 0x2FEF9, offset: 0x46906, size: 0x8, addend: 0x0, symName: '__ZNSt3__116forward_as_tupleB8ue170006IJNS_9allocatorIZN5hf3fs17monitor_collector19MLWorkloadAnalytics4initEvE3$_2EEEEENS_5tupleIJDpOT_EEESA_', symObjAddr: 0x1621C, symBinAddr: 0x10001A3F0, symSize: 0x2C }
  - { offsetInCU: 0x2FF5D, offset: 0x4696A, size: 0x8, addend: 0x0, symName: '__ZNSt3__13getB8ue170006ILm0EJOZN5hf3fs17monitor_collector19MLWorkloadAnalytics4initEvE3$_2EEERNS_13tuple_elementIXT_ENS_5tupleIJDpT0_EEEE4typeERSA_', symObjAddr: 0x16534, symBinAddr: 0x10001A708, symSize: 0x24 }
  - { offsetInCU: 0x2FFA0, offset: 0x469AD, size: 0x8, addend: 0x0, symName: '__ZNSt3__13getB8ue170006ILm0EJONS_9allocatorIZN5hf3fs17monitor_collector19MLWorkloadAnalytics4initEvE3$_2EEEEERNS_13tuple_elementIXT_ENS_5tupleIJDpT0_EEEE4typeERSC_', symObjAddr: 0x16570, symBinAddr: 0x10001A744, symSize: 0x24 }
  - { offsetInCU: 0x304EC, offset: 0x46EF9, size: 0x8, addend: 0x0, symName: '__ZNSt3__116forward_as_tupleB8ue170006IJRKZN5hf3fs17monitor_collector19MLWorkloadAnalytics4initEvE3$_2EEENS_5tupleIJDpOT_EEESA_', symObjAddr: 0x16B04, symBinAddr: 0x10001ACD8, symSize: 0x2C }
  - { offsetInCU: 0x3053B, offset: 0x46F48, size: 0x8, addend: 0x0, symName: '__ZNSt3__13getB8ue170006ILm0EJRKZN5hf3fs17monitor_collector19MLWorkloadAnalytics4initEvE3$_2EEERNS_13tuple_elementIXT_ENS_5tupleIJDpT0_EEEE4typeERSB_', symObjAddr: 0x16CF4, symBinAddr: 0x10001AEC8, symSize: 0x24 }
  - { offsetInCU: 0x3057E, offset: 0x46F8B, size: 0x8, addend: 0x0, symName: '__ZNSt3__116forward_as_tupleB8ue170006IJRKNS_9allocatorIZN5hf3fs17monitor_collector19MLWorkloadAnalytics4initEvE3$_2EEEEENS_5tupleIJDpOT_EEESC_', symObjAddr: 0x17050, symBinAddr: 0x10001B224, symSize: 0x2C }
  - { offsetInCU: 0x305CD, offset: 0x46FDA, size: 0x8, addend: 0x0, symName: '__ZNSt3__13getB8ue170006ILm0EJRKNS_9allocatorIZN5hf3fs17monitor_collector19MLWorkloadAnalytics4initEvE3$_2EEEEERNS_13tuple_elementIXT_ENS_5tupleIJDpT0_EEEE4typeERSD_', symObjAddr: 0x17234, symBinAddr: 0x10001B408, symSize: 0x24 }
  - { offsetInCU: 0x30610, offset: 0x4701D, size: 0x8, addend: 0x0, symName: '__ZNSt3__18__invokeB8ue170006IRZN5hf3fs17monitor_collector19MLWorkloadAnalytics4initEvE3$_2JEEEDTclclsr3stdE7declvalIT_EEspclsr3stdE7declvalIT0_EEEEOS6_DpOS7_', symObjAddr: 0x172F0, symBinAddr: 0x10001B4C4, symSize: 0x24 }
  - { offsetInCU: 0x30648, offset: 0x47055, size: 0x8, addend: 0x0, symName: __ZNSt3__17launderB8ue170006IKNS_4pairIKyNS_6vectorIN5hf3fs17monitor_collector15OperationRecordENS_9allocatorIS6_EEEEEEEEPT_SD_, symObjAddr: 0x17BF8, symBinAddr: 0x10001BDCC, symSize: 0x24 }
  - { offsetInCU: 0x30680, offset: 0x4708D, size: 0x8, addend: 0x0, symName: __ZNSt3__19__launderB8ue170006IKNS_4pairIKyNS_6vectorIN5hf3fs17monitor_collector15OperationRecordENS_9allocatorIS6_EEEEEEEEPT_SD_, symObjAddr: 0x17C1C, symBinAddr: 0x10001BDF0, symSize: 0x14 }
  - { offsetInCU: 0x306B6, offset: 0x470C3, size: 0x8, addend: 0x0, symName: __ZNSt3__119__allocate_at_leastB8ue170006INS_9allocatorIN5hf3fs17monitor_collector15OperationRecordEEEEENS_19__allocation_resultINS_16allocator_traitsIT_E7pointerEEERS8_m, symObjAddr: 0x18678, symBinAddr: 0x10001C84C, symSize: 0x40 }
  - { offsetInCU: 0x306F9, offset: 0x47106, size: 0x8, addend: 0x0, symName: __ZNSt3__142__uninitialized_allocator_move_if_noexceptB8ue170006INS_9allocatorIN5hf3fs17monitor_collector15OperationRecordEEENS_16reverse_iteratorIPS4_EES8_S8_EET2_RT_T0_T1_S9_, symObjAddr: 0x1884C, symBinAddr: 0x10001CA20, symSize: 0x12C }
  - { offsetInCU: 0x3079A, offset: 0x471A7, size: 0x8, addend: 0x0, symName: __ZNSt3__14swapB8ue170006IPN5hf3fs17monitor_collector15OperationRecordEEENS_9enable_ifIXaasr21is_move_constructibleIT_EE5valuesr18is_move_assignableIS6_EE5valueEvE4typeERS6_S9_, symObjAddr: 0x189C4, symBinAddr: 0x10001CB98, symSize: 0x3C }
  - { offsetInCU: 0x307EA, offset: 0x471F7, size: 0x8, addend: 0x0, symName: __ZNSt3__122__make_exception_guardB8ue170006INS_29_AllocatorDestroyRangeReverseINS_9allocatorIN5hf3fs17monitor_collector15OperationRecordEEENS_16reverse_iteratorIPS5_EEEEEENS_28__exception_guard_exceptionsIT_EESC_, symObjAddr: 0x18AC8, symBinAddr: 0x10001CC9C, symSize: 0x4C }
  - { offsetInCU: 0x30820, offset: 0x4722D, size: 0x8, addend: 0x0, symName: __ZNSt3__1neB8ue170006IPN5hf3fs17monitor_collector15OperationRecordES4_EEbRKNS_16reverse_iteratorIT_EERKNS5_IT0_EE, symObjAddr: 0x18B58, symBinAddr: 0x10001CD2C, symSize: 0x48 }
  - { offsetInCU: 0x3086C, offset: 0x47279, size: 0x8, addend: 0x0, symName: __ZNSt3__112__to_addressB8ue170006INS_16reverse_iteratorIPN5hf3fs17monitor_collector15OperationRecordEEEvEEu7__decayIDTclsr19__to_address_helperIT_EE6__callclsr3stdE7declvalIRKS7_EEEEES9_, symObjAddr: 0x18BD4, symBinAddr: 0x10001CDA8, symSize: 0x24 }
  - { offsetInCU: 0x308CC, offset: 0x472D9, size: 0x8, addend: 0x0, symName: __ZNSt3__119__allocator_destroyB8ue170006INS_9allocatorIN5hf3fs17monitor_collector15OperationRecordEEENS_16reverse_iteratorINS6_IPS4_EEEES9_EEvRT_T0_T1_, symObjAddr: 0x18F64, symBinAddr: 0x10001D138, symSize: 0x70 }
  - { offsetInCU: 0x30930, offset: 0x4733D, size: 0x8, addend: 0x0, symName: __ZNSt3__1neB8ue170006INS_16reverse_iteratorIPN5hf3fs17monitor_collector15OperationRecordEEES6_EEbRKNS1_IT_EERKNS1_IT0_EE, symObjAddr: 0x19010, symBinAddr: 0x10001D1E4, symSize: 0x60 }
  - { offsetInCU: 0x3097C, offset: 0x47389, size: 0x8, addend: 0x0, symName: __ZNSt3__112__to_addressB8ue170006INS_16reverse_iteratorINS1_IPN5hf3fs17monitor_collector15OperationRecordEEEEEvEEu7__decayIDTclsr19__to_address_helperIT_EE6__callclsr3stdE7declvalIRKS8_EEEEESA_, symObjAddr: 0x19070, symBinAddr: 0x10001D244, symSize: 0x24 }
  - { offsetInCU: 0x309DB, offset: 0x473E8, size: 0x8, addend: 0x0, symName: __ZNSt3__1miB8ue170006IPKN5hf3fs17monitor_collector15OperationRecordEPS3_EEDTmicldtfp_4baseEcldtfp0_4baseEERKNS_11__wrap_iterIT_EERKNS8_IT0_EE, symObjAddr: 0x193D8, symBinAddr: 0x10001D5AC, symSize: 0x48 }
  - { offsetInCU: 0x30A27, offset: 0x47434, size: 0x8, addend: 0x0, symName: __ZNSt3__14moveB8ue170006IPN5hf3fs17monitor_collector15OperationRecordES4_EET0_T_S6_S5_, symObjAddr: 0x1946C, symBinAddr: 0x10001D640, symSize: 0x40 }
  - { offsetInCU: 0x30A81, offset: 0x4748E, size: 0x8, addend: 0x0, symName: __ZNSt3__1miB8ue170006IPKN5hf3fs17monitor_collector15OperationRecordES5_EEDTmicldtfp_4baseEcldtfp0_4baseEERKNS_11__wrap_iterIT_EERKNS7_IT0_EE, symObjAddr: 0x194AC, symBinAddr: 0x10001D680, symSize: 0x48 }
  - { offsetInCU: 0x30ACD, offset: 0x474DA, size: 0x8, addend: 0x0, symName: __ZNSt3__16__moveB8ue170006INS_17_ClassicAlgPolicyEPN5hf3fs17monitor_collector15OperationRecordES5_S5_EENS_4pairIT0_T2_EES7_T1_S8_, symObjAddr: 0x195C4, symBinAddr: 0x10001D798, symSize: 0x44 }
  - { offsetInCU: 0x30B39, offset: 0x47546, size: 0x8, addend: 0x0, symName: __ZNSt3__123__dispatch_copy_or_moveB8ue170006INS_17_ClassicAlgPolicyENS_11__move_loopIS1_EENS_14__move_trivialEPN5hf3fs17monitor_collector15OperationRecordES8_S8_EENS_4pairIT2_T4_EESA_T3_SB_, symObjAddr: 0x19608, symBinAddr: 0x10001D7DC, symSize: 0x44 }
  - { offsetInCU: 0x30BB7, offset: 0x475C4, size: 0x8, addend: 0x0, symName: __ZNSt3__121__unwrap_and_dispatchB8ue170006INS_10__overloadINS_11__move_loopINS_17_ClassicAlgPolicyEEENS_14__move_trivialEEEPN5hf3fs17monitor_collector15OperationRecordESA_SA_Li0EEENS_4pairIT0_T2_EESC_T1_SD_, symObjAddr: 0x1964C, symBinAddr: 0x10001D820, symSize: 0xB4 }
  - { offsetInCU: 0x30C45, offset: 0x47652, size: 0x8, addend: 0x0, symName: __ZNSt3__114__unwrap_rangeB8ue170006IPN5hf3fs17monitor_collector15OperationRecordES4_EENS_4pairIT0_S6_EET_S8_, symObjAddr: 0x19700, symBinAddr: 0x10001D8D4, symSize: 0x60 }
  - { offsetInCU: 0x30E7D, offset: 0x4788A, size: 0x8, addend: 0x0, symName: __ZNSt3__113__unwrap_iterB8ue170006IPN5hf3fs17monitor_collector15OperationRecordENS_18__unwrap_iter_implIS4_Lb1EEELi0EEEDTclsrT0_8__unwrapclsr3stdE7declvalIT_EEEES8_, symObjAddr: 0x197F0, symBinAddr: 0x10001D9C4, symSize: 0x24 }
  - { offsetInCU: 0x30EC1, offset: 0x478CE, size: 0x8, addend: 0x0, symName: __ZNSt3__19make_pairB8ue170006IPN5hf3fs17monitor_collector15OperationRecordES4_EENS_4pairINS_18__unwrap_ref_decayIT_E4typeENS6_IT0_E4typeEEEOS7_OSA_, symObjAddr: 0x19814, symBinAddr: 0x10001D9E8, symSize: 0x38 }
  - { offsetInCU: 0x30F10, offset: 0x4791D, size: 0x8, addend: 0x0, symName: __ZNSt3__114__rewrap_rangeB8ue170006IPN5hf3fs17monitor_collector15OperationRecordES4_EET_S5_T0_, symObjAddr: 0x1984C, symBinAddr: 0x10001DA20, symSize: 0x2C }
  - { offsetInCU: 0x30F5C, offset: 0x47969, size: 0x8, addend: 0x0, symName: __ZNSt3__113__rewrap_iterB8ue170006IPN5hf3fs17monitor_collector15OperationRecordES4_NS_18__unwrap_iter_implIS4_Lb1EEEEET_S7_T0_, symObjAddr: 0x19878, symBinAddr: 0x10001DA4C, symSize: 0x3C }
  - { offsetInCU: 0x311D6, offset: 0x47BE3, size: 0x8, addend: 0x0, symName: __ZNSt3__125__throw_bad_function_callB8ue170006Ev, symObjAddr: 0x19B14, symBinAddr: 0x10001DCE8, symSize: 0x38 }
  - { offsetInCU: 0x31226, offset: 0x47C33, size: 0x8, addend: 0x0, symName: __ZNSt3__116forward_as_tupleB8ue170006IJRKyEEENS_5tupleIJDpOT_EEES6_, symObjAddr: 0x1A118, symBinAddr: 0x10001E2EC, symSize: 0x2C }
  - { offsetInCU: 0x3127D, offset: 0x47C8A, size: 0x8, addend: 0x0, symName: __ZNSt3__13getB8ue170006ILm0EJRKyEEERNS_13tuple_elementIXT_ENS_5tupleIJDpT0_EEEE4typeERS7_, symObjAddr: 0x1A86C, symBinAddr: 0x10001EA40, symSize: 0x24 }
  - { offsetInCU: 0x31476, offset: 0x47E83, size: 0x8, addend: 0x0, symName: '__ZNSt3__116forward_as_tupleB8ue170006IJZN5hf3fs17monitor_collector19MLWorkloadAnalytics15recordOperationERKNS2_15OperationRecordEE3$_4EEENS_5tupleIJDpOT_EEESB_', symObjAddr: 0x1BC10, symBinAddr: 0x10001FDE4, symSize: 0x2C }
  - { offsetInCU: 0x314B0, offset: 0x47EBD, size: 0x8, addend: 0x0, symName: '__ZNSt3__116forward_as_tupleB8ue170006IJNS_9allocatorIZN5hf3fs17monitor_collector19MLWorkloadAnalytics15recordOperationERKNS3_15OperationRecordEE3$_4EEEEENS_5tupleIJDpOT_EEESD_', symObjAddr: 0x1BC3C, symBinAddr: 0x10001FE10, symSize: 0x2C }
  - { offsetInCU: 0x31514, offset: 0x47F21, size: 0x8, addend: 0x0, symName: '__ZNSt3__13getB8ue170006ILm0EJOZN5hf3fs17monitor_collector19MLWorkloadAnalytics15recordOperationERKNS2_15OperationRecordEE3$_4EEERNS_13tuple_elementIXT_ENS_5tupleIJDpT0_EEEE4typeERSD_', symObjAddr: 0x1BF54, symBinAddr: 0x100020128, symSize: 0x24 }
  - { offsetInCU: 0x31557, offset: 0x47F64, size: 0x8, addend: 0x0, symName: '__ZNSt3__13getB8ue170006ILm0EJONS_9allocatorIZN5hf3fs17monitor_collector19MLWorkloadAnalytics15recordOperationERKNS3_15OperationRecordEE3$_4EEEEERNS_13tuple_elementIXT_ENS_5tupleIJDpT0_EEEE4typeERSF_', symObjAddr: 0x1BF90, symBinAddr: 0x100020164, symSize: 0x24 }
  - { offsetInCU: 0x31AA3, offset: 0x484B0, size: 0x8, addend: 0x0, symName: '__ZNSt3__116forward_as_tupleB8ue170006IJRKZN5hf3fs17monitor_collector19MLWorkloadAnalytics15recordOperationERKNS2_15OperationRecordEE3$_4EEENS_5tupleIJDpOT_EEESD_', symObjAddr: 0x1C524, symBinAddr: 0x1000206F8, symSize: 0x2C }
  - { offsetInCU: 0x31AF2, offset: 0x484FF, size: 0x8, addend: 0x0, symName: '__ZNSt3__13getB8ue170006ILm0EJRKZN5hf3fs17monitor_collector19MLWorkloadAnalytics15recordOperationERKNS2_15OperationRecordEE3$_4EEERNS_13tuple_elementIXT_ENS_5tupleIJDpT0_EEEE4typeERSE_', symObjAddr: 0x1C714, symBinAddr: 0x1000208E8, symSize: 0x24 }
  - { offsetInCU: 0x31B35, offset: 0x48542, size: 0x8, addend: 0x0, symName: '__ZNSt3__116forward_as_tupleB8ue170006IJRKNS_9allocatorIZN5hf3fs17monitor_collector19MLWorkloadAnalytics15recordOperationERKNS3_15OperationRecordEE3$_4EEEEENS_5tupleIJDpOT_EEESF_', symObjAddr: 0x1CA70, symBinAddr: 0x100020C44, symSize: 0x2C }
  - { offsetInCU: 0x31B84, offset: 0x48591, size: 0x8, addend: 0x0, symName: '__ZNSt3__13getB8ue170006ILm0EJRKNS_9allocatorIZN5hf3fs17monitor_collector19MLWorkloadAnalytics15recordOperationERKNS3_15OperationRecordEE3$_4EEEEERNS_13tuple_elementIXT_ENS_5tupleIJDpT0_EEEE4typeERSG_', symObjAddr: 0x1CC54, symBinAddr: 0x100020E28, symSize: 0x24 }
  - { offsetInCU: 0x31C03, offset: 0x48610, size: 0x8, addend: 0x0, symName: '__ZNSt3__18__invokeB8ue170006IRZN5hf3fs17monitor_collector19MLWorkloadAnalytics15recordOperationERKNS2_15OperationRecordEE3$_4JEEEDTclclsr3stdE7declvalIT_EEspclsr3stdE7declvalIT0_EEEEOS9_DpOSA_', symObjAddr: 0x1CD24, symBinAddr: 0x100020EF8, symSize: 0x2C }
  - { offsetInCU: 0x31C3F, offset: 0x4864C, size: 0x8, addend: 0x0, symName: __ZNSt3__17launderB8ue170006IKNS_4pairIKyNS_10shared_ptrIN5hf3fs17monitor_collector13WorkloadStatsEEEEEEEPT_SB_, symObjAddr: 0x1DD74, symBinAddr: 0x100021E0C, symSize: 0x24 }
  - { offsetInCU: 0x31C77, offset: 0x48684, size: 0x8, addend: 0x0, symName: __ZNSt3__19__launderB8ue170006IKNS_4pairIKyNS_10shared_ptrIN5hf3fs17monitor_collector13WorkloadStatsEEEEEEEPT_SB_, symObjAddr: 0x1DD98, symBinAddr: 0x100021E30, symSize: 0x14 }
  - { offsetInCU: 0x31CAD, offset: 0x486BA, size: 0x8, addend: 0x0, symName: __ZNSt3__111make_sharedB8ue170006IN5hf3fs17monitor_collector13WorkloadStatsEJEvEENS_10shared_ptrIT_EEDpOT0_, symObjAddr: 0x1DE1C, symBinAddr: 0x100021E84, symSize: 0x38 }
  - { offsetInCU: 0x31CDB, offset: 0x486E8, size: 0x8, addend: 0x0, symName: __ZNSt3__14findB8ue170006INS_11__wrap_iterIPNS_12basic_stringIcNS_11char_traitsIcEENS_9allocatorIcEEEEEES7_EET_SA_SA_RKT0_, symObjAddr: 0x1DFBC, symBinAddr: 0x100022024, symSize: 0x78 }
  - { offsetInCU: 0x31D43, offset: 0x48750, size: 0x8, addend: 0x0, symName: __ZNSt3__115allocate_sharedB8ue170006IN5hf3fs17monitor_collector13WorkloadStatsENS_9allocatorIS3_EEJEvEENS_10shared_ptrIT_EERKT0_DpOT1_, symObjAddr: 0x1E1B8, symBinAddr: 0x100022208, symSize: 0x90 }
  - { offsetInCU: 0x320A7, offset: 0x48AB4, size: 0x8, addend: 0x0, symName: __ZNSt3__112__to_addressB8ue170006INS_12basic_stringIcNS_11char_traitsIcEENS_9allocatorIcEEEEEEPT_S8_, symObjAddr: 0x1F5A8, symBinAddr: 0x1000235F8, symSize: 0x14 }
  - { offsetInCU: 0x3210E, offset: 0x48B1B, size: 0x8, addend: 0x0, symName: __ZNSt3__17launderB8ue170006INS_4pairIKNS_12basic_stringIcNS_11char_traitsIcEENS_9allocatorIcEEEEyEEEEPT_SB_, symObjAddr: 0x1FA34, symBinAddr: 0x100023A84, symSize: 0x24 }
  - { offsetInCU: 0x32146, offset: 0x48B53, size: 0x8, addend: 0x0, symName: __ZNSt3__19__launderB8ue170006INS_4pairIKNS_12basic_stringIcNS_11char_traitsIcEENS_9allocatorIcEEEEyEEEEPT_SB_, symObjAddr: 0x1FA58, symBinAddr: 0x100023AA8, symSize: 0x14 }
  - { offsetInCU: 0x321AF, offset: 0x48BBC, size: 0x8, addend: 0x0, symName: __ZNSt3__18distanceB8ue170006IPKcEENS_15iterator_traitsIT_E15difference_typeES4_S4_, symObjAddr: 0x203D8, symBinAddr: 0x100024428, symSize: 0x2C }
  - { offsetInCU: 0x321F3, offset: 0x48C00, size: 0x8, addend: 0x0, symName: __ZNSt3__110__distanceB8ue170006IPKcEENS_15iterator_traitsIT_E15difference_typeES4_S4_NS_26random_access_iterator_tagE, symObjAddr: 0x2057C, symBinAddr: 0x1000245CC, symSize: 0x20 }
  - { offsetInCU: 0x32240, offset: 0x48C4D, size: 0x8, addend: 0x0, symName: __ZNSt3__121__is_pointer_in_rangeB8ue170006IccLi0EEEbPKT_S3_PKT0_, symObjAddr: 0x2059C, symBinAddr: 0x1000245EC, symSize: 0x68 }
  - { offsetInCU: 0x322A0, offset: 0x48CAD, size: 0x8, addend: 0x0, symName: __ZNSt3__119__allocate_at_leastB8ue170006INS_9allocatorIcEEEENS_19__allocation_resultINS_16allocator_traitsIT_E7pointerEEERS5_m, symObjAddr: 0x209D4, symBinAddr: 0x100024A24, symSize: 0x40 }
  - { offsetInCU: 0x322E3, offset: 0x48CF0, size: 0x8, addend: 0x0, symName: __ZNSt3__17launderB8ue170006IKNS_4pairIKNS_12basic_stringIcNS_11char_traitsIcEENS_9allocatorIcEEEEyEEEEPT_SC_, symObjAddr: 0x218DC, symBinAddr: 0x10002592C, symSize: 0x24 }
  - { offsetInCU: 0x3231B, offset: 0x48D28, size: 0x8, addend: 0x0, symName: __ZNSt3__19__launderB8ue170006IKNS_4pairIKNS_12basic_stringIcNS_11char_traitsIcEENS_9allocatorIcEEEEyEEEEPT_SC_, symObjAddr: 0x21900, symBinAddr: 0x100025950, symSize: 0x14 }
  - { offsetInCU: 0x323A2, offset: 0x48DAF, size: 0x8, addend: 0x0, symName: __ZNSt3__113__rewrap_iterB8ue170006INS_11__wrap_iterIPNS_12basic_stringIcNS_11char_traitsIcEENS_9allocatorIcEEEEEES8_NS_18__unwrap_iter_implIS9_Lb1EEEEET_SC_T0_, symObjAddr: 0x22538, symBinAddr: 0x100026588, symSize: 0x4C }
  - { offsetInCU: 0x323F7, offset: 0x48E04, size: 0x8, addend: 0x0, symName: __ZNSt3__111__find_implB8ue170006IPNS_12basic_stringIcNS_11char_traitsIcEENS_9allocatorIcEEEES7_S6_NS_10__identityEEET_S9_T0_RKT1_RT2_, symObjAddr: 0x22584, symBinAddr: 0x1000265D4, symSize: 0x7C }
  - { offsetInCU: 0x32471, offset: 0x48E7E, size: 0x8, addend: 0x0, symName: __ZNSt3__113__unwrap_iterB8ue170006INS_11__wrap_iterIPNS_12basic_stringIcNS_11char_traitsIcEENS_9allocatorIcEEEEEENS_18__unwrap_iter_implIS9_Lb1EEELi0EEEDTclsrT0_8__unwrapclsr3stdE7declvalIT_EEEESD_, symObjAddr: 0x22600, symBinAddr: 0x100026650, symSize: 0x2C }
  - { offsetInCU: 0x32508, offset: 0x48F15, size: 0x8, addend: 0x0, symName: __ZNSt3__112__to_addressB8ue170006INS_11__wrap_iterIPNS_12basic_stringIcNS_11char_traitsIcEENS_9allocatorIcEEEEEEvEEu7__decayIDTclsr19__to_address_helperIT_EE6__callclsr3stdE7declvalIRKSA_EEEEESC_, symObjAddr: 0x226C4, symBinAddr: 0x100026714, symSize: 0x24 }
  - { offsetInCU: 0x325E3, offset: 0x48FF0, size: 0x8, addend: 0x0, symName: __ZNSt3__18__invokeB8ue170006IRNS_10__identityEJRNS_12basic_stringIcNS_11char_traitsIcEENS_9allocatorIcEEEEEEEDTclclsr3stdE7declvalIT_EEspclsr3stdE7declvalIT0_EEEEOSA_DpOSB_, symObjAddr: 0x22774, symBinAddr: 0x1000267C4, symSize: 0x2C }
  - { offsetInCU: 0x32661, offset: 0x4906E, size: 0x8, addend: 0x0, symName: __ZNSt3__1miB8ue170006IPKNS_12basic_stringIcNS_11char_traitsIcEENS_9allocatorIcEEEES8_EEDTmicldtfp_4baseEcldtfp0_4baseEERKNS_11__wrap_iterIT_EERKNSA_IT0_EE, symObjAddr: 0x227E0, symBinAddr: 0x100026830, symSize: 0x48 }
  - { offsetInCU: 0x326AD, offset: 0x490BA, size: 0x8, addend: 0x0, symName: __ZNSt3__14moveB8ue170006IPNS_12basic_stringIcNS_11char_traitsIcEENS_9allocatorIcEEEES7_EET0_T_S9_S8_, symObjAddr: 0x228A0, symBinAddr: 0x1000268F0, symSize: 0x40 }
  - { offsetInCU: 0x32707, offset: 0x49114, size: 0x8, addend: 0x0, symName: __ZNSt3__16__moveB8ue170006INS_17_ClassicAlgPolicyEPNS_12basic_stringIcNS_11char_traitsIcEENS_9allocatorIcEEEES8_S8_EENS_4pairIT0_T2_EESA_T1_SB_, symObjAddr: 0x22A7C, symBinAddr: 0x100026ACC, symSize: 0x44 }
  - { offsetInCU: 0x32773, offset: 0x49180, size: 0x8, addend: 0x0, symName: __ZNSt3__123__dispatch_copy_or_moveB8ue170006INS_17_ClassicAlgPolicyENS_11__move_loopIS1_EENS_14__move_trivialEPNS_12basic_stringIcNS_11char_traitsIcEENS_9allocatorIcEEEESB_SB_EENS_4pairIT2_T4_EESD_T3_SE_, symObjAddr: 0x22AC0, symBinAddr: 0x100026B10, symSize: 0x44 }
  - { offsetInCU: 0x327F1, offset: 0x491FE, size: 0x8, addend: 0x0, symName: __ZNSt3__121__unwrap_and_dispatchB8ue170006INS_10__overloadINS_11__move_loopINS_17_ClassicAlgPolicyEEENS_14__move_trivialEEEPNS_12basic_stringIcNS_11char_traitsIcEENS_9allocatorIcEEEESD_SD_Li0EEENS_4pairIT0_T2_EESF_T1_SG_, symObjAddr: 0x22B04, symBinAddr: 0x100026B54, symSize: 0xB4 }
  - { offsetInCU: 0x3287F, offset: 0x4928C, size: 0x8, addend: 0x0, symName: __ZNSt3__114__unwrap_rangeB8ue170006IPNS_12basic_stringIcNS_11char_traitsIcEENS_9allocatorIcEEEES7_EENS_4pairIT0_S9_EET_SB_, symObjAddr: 0x22BB8, symBinAddr: 0x100026C08, symSize: 0x60 }
  - { offsetInCU: 0x3299F, offset: 0x493AC, size: 0x8, addend: 0x0, symName: __ZNSt3__113__unwrap_iterB8ue170006IPNS_12basic_stringIcNS_11char_traitsIcEENS_9allocatorIcEEEENS_18__unwrap_iter_implIS7_Lb1EEELi0EEEDTclsrT0_8__unwrapclsr3stdE7declvalIT_EEEESB_, symObjAddr: 0x22CA8, symBinAddr: 0x100026CF8, symSize: 0x24 }
  - { offsetInCU: 0x329E3, offset: 0x493F0, size: 0x8, addend: 0x0, symName: __ZNSt3__19make_pairB8ue170006IPNS_12basic_stringIcNS_11char_traitsIcEENS_9allocatorIcEEEES7_EENS_4pairINS_18__unwrap_ref_decayIT_E4typeENS9_IT0_E4typeEEEOSA_OSD_, symObjAddr: 0x22CCC, symBinAddr: 0x100026D1C, symSize: 0x38 }
  - { offsetInCU: 0x32A32, offset: 0x4943F, size: 0x8, addend: 0x0, symName: __ZNSt3__114__rewrap_rangeB8ue170006IPNS_12basic_stringIcNS_11char_traitsIcEENS_9allocatorIcEEEES7_EET_S8_T0_, symObjAddr: 0x22D04, symBinAddr: 0x100026D54, symSize: 0x2C }
  - { offsetInCU: 0x32A7E, offset: 0x4948B, size: 0x8, addend: 0x0, symName: __ZNSt3__113__rewrap_iterB8ue170006IPNS_12basic_stringIcNS_11char_traitsIcEENS_9allocatorIcEEEES7_NS_18__unwrap_iter_implIS7_Lb1EEEEET_SA_T0_, symObjAddr: 0x22D30, symBinAddr: 0x100026D80, symSize: 0x3C }
  - { offsetInCU: 0x32B4A, offset: 0x49557, size: 0x8, addend: 0x0, symName: __ZNSt3__119__allocate_at_leastB8ue170006INS_9allocatorINS_12basic_stringIcNS_11char_traitsIcEENS1_IcEEEEEEEENS_19__allocation_resultINS_16allocator_traitsIT_E7pointerEEERSA_m, symObjAddr: 0x2362C, symBinAddr: 0x10002767C, symSize: 0x40 }
  - { offsetInCU: 0x32B8D, offset: 0x4959A, size: 0x8, addend: 0x0, symName: __ZNSt3__142__uninitialized_allocator_move_if_noexceptB8ue170006INS_9allocatorINS_12basic_stringIcNS_11char_traitsIcEENS1_IcEEEEEENS_16reverse_iteratorIPS6_EESA_SA_EET2_RT_T0_T1_SB_, symObjAddr: 0x237E4, symBinAddr: 0x100027834, symSize: 0x12C }
  - { offsetInCU: 0x32C2E, offset: 0x4963B, size: 0x8, addend: 0x0, symName: __ZNSt3__14swapB8ue170006IPNS_12basic_stringIcNS_11char_traitsIcEENS_9allocatorIcEEEEEENS_9enable_ifIXaasr21is_move_constructibleIT_EE5valuesr18is_move_assignableIS9_EE5valueEvE4typeERS9_SC_, symObjAddr: 0x2395C, symBinAddr: 0x1000279AC, symSize: 0x3C }
  - { offsetInCU: 0x32C7E, offset: 0x4968B, size: 0x8, addend: 0x0, symName: __ZNSt3__122__make_exception_guardB8ue170006INS_29_AllocatorDestroyRangeReverseINS_9allocatorINS_12basic_stringIcNS_11char_traitsIcEENS2_IcEEEEEENS_16reverse_iteratorIPS7_EEEEEENS_28__exception_guard_exceptionsIT_EESE_, symObjAddr: 0x23A60, symBinAddr: 0x100027AB0, symSize: 0x4C }
  - { offsetInCU: 0x32CB4, offset: 0x496C1, size: 0x8, addend: 0x0, symName: __ZNSt3__1neB8ue170006IPNS_12basic_stringIcNS_11char_traitsIcEENS_9allocatorIcEEEES7_EEbRKNS_16reverse_iteratorIT_EERKNS8_IT0_EE, symObjAddr: 0x23AF0, symBinAddr: 0x100027B40, symSize: 0x48 }
  - { offsetInCU: 0x32D00, offset: 0x4970D, size: 0x8, addend: 0x0, symName: __ZNSt3__112__to_addressB8ue170006INS_16reverse_iteratorIPNS_12basic_stringIcNS_11char_traitsIcEENS_9allocatorIcEEEEEEvEEu7__decayIDTclsr19__to_address_helperIT_EE6__callclsr3stdE7declvalIRKSA_EEEEESC_, symObjAddr: 0x23B6C, symBinAddr: 0x100027BBC, symSize: 0x24 }
  - { offsetInCU: 0x32D60, offset: 0x4976D, size: 0x8, addend: 0x0, symName: __ZNSt3__119__allocator_destroyB8ue170006INS_9allocatorINS_12basic_stringIcNS_11char_traitsIcEENS1_IcEEEEEENS_16reverse_iteratorINS8_IPS6_EEEESB_EEvRT_T0_T1_, symObjAddr: 0x23E4C, symBinAddr: 0x100027E9C, symSize: 0x70 }
  - { offsetInCU: 0x32DC4, offset: 0x497D1, size: 0x8, addend: 0x0, symName: __ZNSt3__1neB8ue170006INS_16reverse_iteratorIPNS_12basic_stringIcNS_11char_traitsIcEENS_9allocatorIcEEEEEES9_EEbRKNS1_IT_EERKNS1_IT0_EE, symObjAddr: 0x23EF8, symBinAddr: 0x100027F48, symSize: 0x60 }
  - { offsetInCU: 0x32E10, offset: 0x4981D, size: 0x8, addend: 0x0, symName: __ZNSt3__112__to_addressB8ue170006INS_16reverse_iteratorINS1_IPNS_12basic_stringIcNS_11char_traitsIcEENS_9allocatorIcEEEEEEEEvEEu7__decayIDTclsr19__to_address_helperIT_EE6__callclsr3stdE7declvalIRKSB_EEEEESD_, symObjAddr: 0x23F58, symBinAddr: 0x100027FA8, symSize: 0x24 }
  - { offsetInCU: 0x32EC1, offset: 0x498CE, size: 0x8, addend: 0x0, symName: __ZNSt3__14swapB8ue170006IPN5hf3fs17monitor_collector13WorkloadStatsEEENS_9enable_ifIXaasr21is_move_constructibleIT_EE5valuesr18is_move_assignableIS6_EE5valueEvE4typeERS6_S9_, symObjAddr: 0x257B0, symBinAddr: 0x100029800, symSize: 0x3C }
  - { offsetInCU: 0x32F12, offset: 0x4991F, size: 0x8, addend: 0x0, symName: __ZNSt3__14swapB8ue170006IPNS_19__shared_weak_countEEENS_9enable_ifIXaasr21is_move_constructibleIT_EE5valuesr18is_move_assignableIS4_EE5valueEvE4typeERS4_S7_, symObjAddr: 0x257EC, symBinAddr: 0x10002983C, symSize: 0x3C }
  - { offsetInCU: 0x330D0, offset: 0x49ADD, size: 0x8, addend: 0x0, symName: '__ZNSt3__116forward_as_tupleB8ue170006IJZN5hf3fs17monitor_collector19MLWorkloadAnalytics15recordOperationERKNS2_15OperationRecordEE3$_6EEENS_5tupleIJDpOT_EEESB_', symObjAddr: 0x25F70, symBinAddr: 0x100029FC0, symSize: 0x2C }
  - { offsetInCU: 0x3310A, offset: 0x49B17, size: 0x8, addend: 0x0, symName: '__ZNSt3__116forward_as_tupleB8ue170006IJNS_9allocatorIZN5hf3fs17monitor_collector19MLWorkloadAnalytics15recordOperationERKNS3_15OperationRecordEE3$_6EEEEENS_5tupleIJDpOT_EEESD_', symObjAddr: 0x25F9C, symBinAddr: 0x100029FEC, symSize: 0x2C }
  - { offsetInCU: 0x3316E, offset: 0x49B7B, size: 0x8, addend: 0x0, symName: '__ZNSt3__13getB8ue170006ILm0EJOZN5hf3fs17monitor_collector19MLWorkloadAnalytics15recordOperationERKNS2_15OperationRecordEE3$_6EEERNS_13tuple_elementIXT_ENS_5tupleIJDpT0_EEEE4typeERSD_', symObjAddr: 0x262B4, symBinAddr: 0x10002A304, symSize: 0x24 }
  - { offsetInCU: 0x331B1, offset: 0x49BBE, size: 0x8, addend: 0x0, symName: '__ZNSt3__13getB8ue170006ILm0EJONS_9allocatorIZN5hf3fs17monitor_collector19MLWorkloadAnalytics15recordOperationERKNS3_15OperationRecordEE3$_6EEEEERNS_13tuple_elementIXT_ENS_5tupleIJDpT0_EEEE4typeERSF_', symObjAddr: 0x262F0, symBinAddr: 0x10002A340, symSize: 0x24 }
  - { offsetInCU: 0x336FD, offset: 0x4A10A, size: 0x8, addend: 0x0, symName: '__ZNSt3__116forward_as_tupleB8ue170006IJRKZN5hf3fs17monitor_collector19MLWorkloadAnalytics15recordOperationERKNS2_15OperationRecordEE3$_6EEENS_5tupleIJDpOT_EEESD_', symObjAddr: 0x2688C, symBinAddr: 0x10002A8DC, symSize: 0x2C }
  - { offsetInCU: 0x3374C, offset: 0x4A159, size: 0x8, addend: 0x0, symName: '__ZNSt3__13getB8ue170006ILm0EJRKZN5hf3fs17monitor_collector19MLWorkloadAnalytics15recordOperationERKNS2_15OperationRecordEE3$_6EEERNS_13tuple_elementIXT_ENS_5tupleIJDpT0_EEEE4typeERSE_', symObjAddr: 0x26A7C, symBinAddr: 0x10002AACC, symSize: 0x24 }
  - { offsetInCU: 0x3378F, offset: 0x4A19C, size: 0x8, addend: 0x0, symName: '__ZNSt3__116forward_as_tupleB8ue170006IJRKNS_9allocatorIZN5hf3fs17monitor_collector19MLWorkloadAnalytics15recordOperationERKNS3_15OperationRecordEE3$_6EEEEENS_5tupleIJDpOT_EEESF_', symObjAddr: 0x26DDC, symBinAddr: 0x10002AE2C, symSize: 0x2C }
  - { offsetInCU: 0x337DE, offset: 0x4A1EB, size: 0x8, addend: 0x0, symName: '__ZNSt3__13getB8ue170006ILm0EJRKNS_9allocatorIZN5hf3fs17monitor_collector19MLWorkloadAnalytics15recordOperationERKNS3_15OperationRecordEE3$_6EEEEERNS_13tuple_elementIXT_ENS_5tupleIJDpT0_EEEE4typeERSG_', symObjAddr: 0x26FC0, symBinAddr: 0x10002B010, symSize: 0x24 }
  - { offsetInCU: 0x3385D, offset: 0x4A26A, size: 0x8, addend: 0x0, symName: '__ZNSt3__18__invokeB8ue170006IRZN5hf3fs17monitor_collector19MLWorkloadAnalytics15recordOperationERKNS2_15OperationRecordEE3$_6JEEEDTclclsr3stdE7declvalIT_EEspclsr3stdE7declvalIT0_EEEEOS9_DpOSA_', symObjAddr: 0x27090, symBinAddr: 0x10002B0E0, symSize: 0x2C }
  - { offsetInCU: 0x3389A, offset: 0x4A2A7, size: 0x8, addend: 0x0, symName: __ZNSt3__1eqB8ue170006ERKNS_15__hash_iteratorIPNS_11__hash_nodeINS_17__hash_value_typeIyNS_10shared_ptrIN5hf3fs17monitor_collector13WorkloadStatsEEEEEPvEEEESE_, symObjAddr: 0x27494, symBinAddr: 0x10002B4E4, symSize: 0x30 }
  - { offsetInCU: 0x3390A, offset: 0x4A317, size: 0x8, addend: 0x0, symName: __ZNSt3__134__libcpp_atomic_refcount_incrementB8ue170006IlEET_RS1_, symObjAddr: 0x27594, symBinAddr: 0x10002B5E4, symSize: 0x30 }
  - { offsetInCU: 0x3395C, offset: 0x4A369, size: 0x8, addend: 0x0, symName: __ZNSt3__1neB8ue170006ERKNS_25__hash_map_const_iteratorINS_21__hash_const_iteratorIPNS_11__hash_nodeINS_17__hash_value_typeIyNS_10shared_ptrIN5hf3fs17monitor_collector13WorkloadStatsEEEEEPvEEEEEESG_, symObjAddr: 0x27E3C, symBinAddr: 0x10002BE8C, symSize: 0x30 }
  - { offsetInCU: 0x33999, offset: 0x4A3A6, size: 0x8, addend: 0x0, symName: __ZNSt3__1neB8ue170006ERKNS_21__hash_const_iteratorIPNS_11__hash_nodeINS_17__hash_value_typeIyNS_10shared_ptrIN5hf3fs17monitor_collector13WorkloadStatsEEEEEPvEEEESE_, symObjAddr: 0x27F10, symBinAddr: 0x10002BF60, symSize: 0x34 }
  - { offsetInCU: 0x339D7, offset: 0x4A3E4, size: 0x8, addend: 0x0, symName: __ZNSt3__1eqB8ue170006ERKNS_21__hash_const_iteratorIPNS_11__hash_nodeINS_17__hash_value_typeIyNS_10shared_ptrIN5hf3fs17monitor_collector13WorkloadStatsEEEEEPvEEEESE_, symObjAddr: 0x27F44, symBinAddr: 0x10002BF94, symSize: 0x30 }
  - { offsetInCU: 0x33A46, offset: 0x4A453, size: 0x8, addend: 0x0, symName: __ZNSt3__119__allocate_at_leastB8ue170006INS_9allocatorINS_10shared_ptrIN5hf3fs17monitor_collector13WorkloadStatsEEEEEEENS_19__allocation_resultINS_16allocator_traitsIT_E7pointerEEERSA_m, symObjAddr: 0x28FC4, symBinAddr: 0x10002D014, symSize: 0x40 }
  - { offsetInCU: 0x33A89, offset: 0x4A496, size: 0x8, addend: 0x0, symName: __ZNSt3__142__uninitialized_allocator_move_if_noexceptB8ue170006INS_9allocatorINS_10shared_ptrIN5hf3fs17monitor_collector13WorkloadStatsEEEEENS_16reverse_iteratorIPS6_EESA_SA_EET2_RT_T0_T1_SB_, symObjAddr: 0x29178, symBinAddr: 0x10002D1C8, symSize: 0x12C }
  - { offsetInCU: 0x33B2A, offset: 0x4A537, size: 0x8, addend: 0x0, symName: __ZNSt3__14swapB8ue170006IPNS_10shared_ptrIN5hf3fs17monitor_collector13WorkloadStatsEEEEENS_9enable_ifIXaasr21is_move_constructibleIT_EE5valuesr18is_move_assignableIS8_EE5valueEvE4typeERS8_SB_, symObjAddr: 0x292F0, symBinAddr: 0x10002D340, symSize: 0x3C }
  - { offsetInCU: 0x33B7A, offset: 0x4A587, size: 0x8, addend: 0x0, symName: __ZNSt3__122__make_exception_guardB8ue170006INS_29_AllocatorDestroyRangeReverseINS_9allocatorINS_10shared_ptrIN5hf3fs17monitor_collector13WorkloadStatsEEEEENS_16reverse_iteratorIPS7_EEEEEENS_28__exception_guard_exceptionsIT_EESE_, symObjAddr: 0x293D8, symBinAddr: 0x10002D428, symSize: 0x4C }
  - { offsetInCU: 0x33BB0, offset: 0x4A5BD, size: 0x8, addend: 0x0, symName: __ZNSt3__1neB8ue170006IPNS_10shared_ptrIN5hf3fs17monitor_collector13WorkloadStatsEEES6_EEbRKNS_16reverse_iteratorIT_EERKNS7_IT0_EE, symObjAddr: 0x29468, symBinAddr: 0x10002D4B8, symSize: 0x48 }
  - { offsetInCU: 0x33BFC, offset: 0x4A609, size: 0x8, addend: 0x0, symName: __ZNSt3__112__to_addressB8ue170006INS_16reverse_iteratorIPNS_10shared_ptrIN5hf3fs17monitor_collector13WorkloadStatsEEEEEvEEu7__decayIDTclsr19__to_address_helperIT_EE6__callclsr3stdE7declvalIRKS9_EEEEESB_, symObjAddr: 0x294E4, symBinAddr: 0x10002D534, symSize: 0x24 }
  - { offsetInCU: 0x33C5C, offset: 0x4A669, size: 0x8, addend: 0x0, symName: __ZNSt3__119__allocator_destroyB8ue170006INS_9allocatorINS_10shared_ptrIN5hf3fs17monitor_collector13WorkloadStatsEEEEENS_16reverse_iteratorINS8_IPS6_EEEESB_EEvRT_T0_T1_, symObjAddr: 0x297C4, symBinAddr: 0x10002D814, symSize: 0x70 }
  - { offsetInCU: 0x33CC0, offset: 0x4A6CD, size: 0x8, addend: 0x0, symName: __ZNSt3__1neB8ue170006INS_16reverse_iteratorIPNS_10shared_ptrIN5hf3fs17monitor_collector13WorkloadStatsEEEEES8_EEbRKNS1_IT_EERKNS1_IT0_EE, symObjAddr: 0x29870, symBinAddr: 0x10002D8C0, symSize: 0x60 }
  - { offsetInCU: 0x33D0C, offset: 0x4A719, size: 0x8, addend: 0x0, symName: __ZNSt3__112__to_addressB8ue170006INS_16reverse_iteratorINS1_IPNS_10shared_ptrIN5hf3fs17monitor_collector13WorkloadStatsEEEEEEEvEEu7__decayIDTclsr19__to_address_helperIT_EE6__callclsr3stdE7declvalIRKSA_EEEEESC_, symObjAddr: 0x298D0, symBinAddr: 0x10002D920, symSize: 0x24 }
  - { offsetInCU: 0x33D6B, offset: 0x4A778, size: 0x8, addend: 0x0, symName: __ZNSt3__1neB8ue170006ERKNS_15__hash_iteratorIPNS_11__hash_nodeINS_17__hash_value_typeIyNS_10shared_ptrIN5hf3fs17monitor_collector13WorkloadStatsEEEEEPvEEEESE_, symObjAddr: 0x29C70, symBinAddr: 0x10002DCC0, symSize: 0x34 }
  - { offsetInCU: 0x33DA8, offset: 0x4A7B5, size: 0x8, addend: 0x0, symName: __ZNSt3__1neB8ue170006ERKNS_15__hash_iteratorIPNS_11__hash_nodeINS_17__hash_value_typeINS_12basic_stringIcNS_11char_traitsIcEENS_9allocatorIcEEEEyEEPvEEEESF_, symObjAddr: 0x29D7C, symBinAddr: 0x10002DDCC, symSize: 0x34 }
  - { offsetInCU: 0x33DE6, offset: 0x4A7F3, size: 0x8, addend: 0x0, symName: __ZNSt3__1eqB8ue170006ERKNS_15__hash_iteratorIPNS_11__hash_nodeINS_17__hash_value_typeINS_12basic_stringIcNS_11char_traitsIcEENS_9allocatorIcEEEEyEEPvEEEESF_, symObjAddr: 0x29DB0, symBinAddr: 0x10002DE00, symSize: 0x30 }
  - { offsetInCU: 0x33E22, offset: 0x4A82F, size: 0x8, addend: 0x0, symName: __ZNSt3__1neB8ue170006ERKNS_15__hash_iteratorIPNS_11__hash_nodeINS_17__hash_value_typeIyNS_6vectorIN5hf3fs17monitor_collector15OperationRecordENS_9allocatorIS6_EEEEEEPvEEEESG_, symObjAddr: 0x29E00, symBinAddr: 0x10002DE50, symSize: 0x34 }
  - { offsetInCU: 0x33E60, offset: 0x4A86D, size: 0x8, addend: 0x0, symName: __ZNSt3__1eqB8ue170006ERKNS_15__hash_iteratorIPNS_11__hash_nodeINS_17__hash_value_typeIyNS_6vectorIN5hf3fs17monitor_collector15OperationRecordENS_9allocatorIS6_EEEEEEPvEEEESG_, symObjAddr: 0x29E34, symBinAddr: 0x10002DE84, symSize: 0x30 }
  - { offsetInCU: 0x33ED0, offset: 0x4A8DD, size: 0x8, addend: 0x0, symName: __ZNSt3__112__to_addressB8ue170006IyEEPT_S2_, symObjAddr: 0x2A324, symBinAddr: 0x10002E374, symSize: 0x14 }
  - { offsetInCU: 0x33F04, offset: 0x4A911, size: 0x8, addend: 0x0, symName: __ZNSt3__119__allocate_at_leastB8ue170006INS_9allocatorIyEEEENS_19__allocation_resultINS_16allocator_traitsIT_E7pointerEEERS5_m, symObjAddr: 0x2ABB4, symBinAddr: 0x10002EC04, symSize: 0x40 }
  - { offsetInCU: 0x33F47, offset: 0x4A954, size: 0x8, addend: 0x0, symName: __ZNSt3__142__uninitialized_allocator_move_if_noexceptB8ue170006INS_9allocatorIyEENS_16reverse_iteratorIPyEES5_yvEET1_RT_T0_S9_S6_, symObjAddr: 0x2AD68, symBinAddr: 0x10002EDB8, symSize: 0x78 }
  - { offsetInCU: 0x33FC6, offset: 0x4A9D3, size: 0x8, addend: 0x0, symName: __ZNSt3__14swapB8ue170006IPyEENS_9enable_ifIXaasr21is_move_constructibleIT_EE5valuesr18is_move_assignableIS3_EE5valueEvE4typeERS3_S6_, symObjAddr: 0x2AE2C, symBinAddr: 0x10002EE7C, symSize: 0x3C }
  - { offsetInCU: 0x34016, offset: 0x4AA23, size: 0x8, addend: 0x0, symName: __ZNSt3__14moveB8ue170006INS_16reverse_iteratorIPyEES3_EET0_T_S5_S4_, symObjAddr: 0x2AF14, symBinAddr: 0x10002EF64, symSize: 0x78 }
  - { offsetInCU: 0x34070, offset: 0x4AA7D, size: 0x8, addend: 0x0, symName: __ZNSt3__16__moveB8ue170006INS_17_ClassicAlgPolicyENS_16reverse_iteratorIPyEES4_S4_EENS_4pairIT0_T2_EES6_T1_S7_, symObjAddr: 0x2AF8C, symBinAddr: 0x10002EFDC, symSize: 0x64 }
  - { offsetInCU: 0x340DC, offset: 0x4AAE9, size: 0x8, addend: 0x0, symName: __ZNSt3__123__dispatch_copy_or_moveB8ue170006INS_17_ClassicAlgPolicyENS_11__move_loopIS1_EENS_14__move_trivialENS_16reverse_iteratorIPyEES7_S7_EENS_4pairIT2_T4_EES9_T3_SA_, symObjAddr: 0x2AFF0, symBinAddr: 0x10002F040, symSize: 0x64 }
  - { offsetInCU: 0x3415A, offset: 0x4AB67, size: 0x8, addend: 0x0, symName: __ZNSt3__121__unwrap_and_dispatchB8ue170006INS_10__overloadINS_11__move_loopINS_17_ClassicAlgPolicyEEENS_14__move_trivialEEENS_16reverse_iteratorIPyEES9_S9_Li0EEENS_4pairIT0_T2_EESB_T1_SC_, symObjAddr: 0x2B054, symBinAddr: 0x10002F0A4, symSize: 0x12C }
  - { offsetInCU: 0x341EA, offset: 0x4ABF7, size: 0x8, addend: 0x0, symName: __ZNSt3__114__unwrap_rangeB8ue170006INS_16reverse_iteratorIPyEES3_EENS_4pairIT0_S5_EET_S7_, symObjAddr: 0x2B180, symBinAddr: 0x10002F1D0, symSize: 0x84 }
  - { offsetInCU: 0x3430A, offset: 0x4AD17, size: 0x8, addend: 0x0, symName: __ZNSt3__113__unwrap_iterB8ue170006INS_16reverse_iteratorIPyEENS_18__unwrap_iter_implIS3_Lb0EEELi0EEEDTclsrT0_8__unwrapclsr3stdE7declvalIT_EEEES7_, symObjAddr: 0x2B2A4, symBinAddr: 0x10002F2F4, symSize: 0x44 }
  - { offsetInCU: 0x3434E, offset: 0x4AD5B, size: 0x8, addend: 0x0, symName: __ZNSt3__19make_pairB8ue170006INS_16reverse_iteratorIPyEES3_EENS_4pairINS_18__unwrap_ref_decayIT_E4typeENS5_IT0_E4typeEEEOS6_OS9_, symObjAddr: 0x2B2E8, symBinAddr: 0x10002F338, symSize: 0x38 }
  - { offsetInCU: 0x3439D, offset: 0x4ADAA, size: 0x8, addend: 0x0, symName: __ZNSt3__114__rewrap_rangeB8ue170006INS_16reverse_iteratorIPyEES3_EET_S4_T0_, symObjAddr: 0x2B320, symBinAddr: 0x10002F370, symSize: 0x5C }
  - { offsetInCU: 0x343E9, offset: 0x4ADF6, size: 0x8, addend: 0x0, symName: __ZNSt3__113__rewrap_iterB8ue170006INS_16reverse_iteratorIPyEES3_NS_18__unwrap_iter_implIS3_Lb0EEEEET_S6_T0_, symObjAddr: 0x2B37C, symBinAddr: 0x10002F3CC, symSize: 0x74 }
  - { offsetInCU: 0x3443E, offset: 0x4AE4B, size: 0x8, addend: 0x0, symName: __ZNSt3__1neB8ue170006IPyS1_EEbRKNS_16reverse_iteratorIT_EERKNS2_IT0_EE, symObjAddr: 0x2B3F0, symBinAddr: 0x10002F440, symSize: 0x48 }
  - { offsetInCU: 0x344F7, offset: 0x4AF04, size: 0x8, addend: 0x0, symName: __ZNSt3__112__to_addressB8ue170006INS_4pairIyyEEEEPT_S4_, symObjAddr: 0x2BE74, symBinAddr: 0x10002FEC4, symSize: 0x14 }
  - { offsetInCU: 0x3452B, offset: 0x4AF38, size: 0x8, addend: 0x0, symName: __ZNSt3__119__allocate_at_leastB8ue170006INS_9allocatorINS_4pairIyyEEEEEENS_19__allocation_resultINS_16allocator_traitsIT_E7pointerEEERS7_m, symObjAddr: 0x2C7B8, symBinAddr: 0x100030808, symSize: 0x40 }
  - { offsetInCU: 0x3456E, offset: 0x4AF7B, size: 0x8, addend: 0x0, symName: __ZNSt3__142__uninitialized_allocator_move_if_noexceptB8ue170006INS_9allocatorINS_4pairIyyEEEENS_16reverse_iteratorIPS3_EES7_S7_EET2_RT_T0_T1_S8_, symObjAddr: 0x2C96C, symBinAddr: 0x1000309BC, symSize: 0x12C }
  - { offsetInCU: 0x3460F, offset: 0x4B01C, size: 0x8, addend: 0x0, symName: __ZNSt3__14swapB8ue170006IPNS_4pairIyyEEEENS_9enable_ifIXaasr21is_move_constructibleIT_EE5valuesr18is_move_assignableIS5_EE5valueEvE4typeERS5_S8_, symObjAddr: 0x2CAE4, symBinAddr: 0x100030B34, symSize: 0x3C }
  - { offsetInCU: 0x3465F, offset: 0x4B06C, size: 0x8, addend: 0x0, symName: __ZNSt3__122__make_exception_guardB8ue170006INS_29_AllocatorDestroyRangeReverseINS_9allocatorINS_4pairIyyEEEENS_16reverse_iteratorIPS4_EEEEEENS_28__exception_guard_exceptionsIT_EESB_, symObjAddr: 0x2CBCC, symBinAddr: 0x100030C1C, symSize: 0x4C }
  - { offsetInCU: 0x34695, offset: 0x4B0A2, size: 0x8, addend: 0x0, symName: __ZNSt3__1neB8ue170006IPNS_4pairIyyEES3_EEbRKNS_16reverse_iteratorIT_EERKNS4_IT0_EE, symObjAddr: 0x2CC5C, symBinAddr: 0x100030CAC, symSize: 0x48 }
  - { offsetInCU: 0x346E1, offset: 0x4B0EE, size: 0x8, addend: 0x0, symName: __ZNSt3__112__to_addressB8ue170006INS_16reverse_iteratorIPNS_4pairIyyEEEEvEEu7__decayIDTclsr19__to_address_helperIT_EE6__callclsr3stdE7declvalIRKS6_EEEEES8_, symObjAddr: 0x2CCD8, symBinAddr: 0x100030D28, symSize: 0x24 }
  - { offsetInCU: 0x34741, offset: 0x4B14E, size: 0x8, addend: 0x0, symName: __ZNSt3__119__allocator_destroyB8ue170006INS_9allocatorINS_4pairIyyEEEENS_16reverse_iteratorINS5_IPS3_EEEES8_EEvRT_T0_T1_, symObjAddr: 0x2CFB0, symBinAddr: 0x100031000, symSize: 0x70 }
  - { offsetInCU: 0x347A5, offset: 0x4B1B2, size: 0x8, addend: 0x0, symName: __ZNSt3__1neB8ue170006INS_16reverse_iteratorIPNS_4pairIyyEEEES5_EEbRKNS1_IT_EERKNS1_IT0_EE, symObjAddr: 0x2D05C, symBinAddr: 0x1000310AC, symSize: 0x60 }
  - { offsetInCU: 0x347F1, offset: 0x4B1FE, size: 0x8, addend: 0x0, symName: __ZNSt3__112__to_addressB8ue170006INS_16reverse_iteratorINS1_IPNS_4pairIyyEEEEEEvEEu7__decayIDTclsr19__to_address_helperIT_EE6__callclsr3stdE7declvalIRKS7_EEEEES9_, symObjAddr: 0x2D0BC, symBinAddr: 0x10003110C, symSize: 0x24 }
  - { offsetInCU: 0x34850, offset: 0x4B25D, size: 0x8, addend: 0x0, symName: __ZNSt3__115allocate_sharedB8ue170006IN5hf3fs17monitor_collector13WorkloadStatsENS_9allocatorIS3_EEJRS3_EvEENS_10shared_ptrIT_EERKT0_DpOT1_, symObjAddr: 0x2D424, symBinAddr: 0x100031474, symSize: 0x98 }
  - { offsetInCU: 0x348E7, offset: 0x4B2F4, size: 0x8, addend: 0x0, symName: __ZNSt3__1neB8ue170006ERKNS_25__hash_map_const_iteratorINS_21__hash_const_iteratorIPNS_11__hash_nodeINS_17__hash_value_typeINS_12basic_stringIcNS_11char_traitsIcEENS_9allocatorIcEEEEyEEPvEEEEEESH_, symObjAddr: 0x2DF98, symBinAddr: 0x100031FE8, symSize: 0x30 }
  - { offsetInCU: 0x34924, offset: 0x4B331, size: 0x8, addend: 0x0, symName: __ZNSt3__1neB8ue170006ERKNS_21__hash_const_iteratorIPNS_11__hash_nodeINS_17__hash_value_typeINS_12basic_stringIcNS_11char_traitsIcEENS_9allocatorIcEEEEyEEPvEEEESF_, symObjAddr: 0x2E06C, symBinAddr: 0x1000320BC, symSize: 0x34 }
  - { offsetInCU: 0x34962, offset: 0x4B36F, size: 0x8, addend: 0x0, symName: __ZNSt3__1eqB8ue170006ERKNS_21__hash_const_iteratorIPNS_11__hash_nodeINS_17__hash_value_typeINS_12basic_stringIcNS_11char_traitsIcEENS_9allocatorIcEEEEyEEPvEEEESF_, symObjAddr: 0x2E0A0, symBinAddr: 0x1000320F0, symSize: 0x30 }
  - { offsetInCU: 0x349D1, offset: 0x4B3DE, size: 0x8, addend: 0x0, symName: __ZNSt3__122__make_exception_guardB8ue170006INS_6vectorINS_12basic_stringIcNS_11char_traitsIcEENS_9allocatorIcEEEENS5_IS7_EEE16__destroy_vectorEEENS_28__exception_guard_exceptionsIT_EESC_, symObjAddr: 0x2EB38, symBinAddr: 0x100032B88, symSize: 0x40 }
  - { offsetInCU: 0x34A06, offset: 0x4B413, size: 0x8, addend: 0x0, symName: __ZNSt3__130__uninitialized_allocator_copyB8ue170006INS_9allocatorINS_12basic_stringIcNS_11char_traitsIcEENS1_IcEEEEEEPS6_S8_S8_EET2_RT_T0_T1_S9_, symObjAddr: 0x2ED58, symBinAddr: 0x100032DA8, symSize: 0x80 }
  - { offsetInCU: 0x34AA3, offset: 0x4B4B0, size: 0x8, addend: 0x0, symName: __ZNSt3__135__uninitialized_allocator_copy_implB8ue170006INS_9allocatorINS_12basic_stringIcNS_11char_traitsIcEENS1_IcEEEEEEPS6_S8_S8_EET2_RT_T0_T1_S9_, symObjAddr: 0x2EDD8, symBinAddr: 0x100032E28, symSize: 0xF4 }
  - { offsetInCU: 0x34B41, offset: 0x4B54E, size: 0x8, addend: 0x0, symName: __ZNSt3__122__make_exception_guardB8ue170006INS_29_AllocatorDestroyRangeReverseINS_9allocatorINS_12basic_stringIcNS_11char_traitsIcEENS2_IcEEEEEEPS7_EEEENS_28__exception_guard_exceptionsIT_EESC_, symObjAddr: 0x2EECC, symBinAddr: 0x100032F1C, symSize: 0x4C }
  - { offsetInCU: 0x34B78, offset: 0x4B585, size: 0x8, addend: 0x0, symName: __ZNSt3__119__allocator_destroyB8ue170006INS_9allocatorINS_12basic_stringIcNS_11char_traitsIcEENS1_IcEEEEEENS_16reverse_iteratorIPS6_EESA_EEvRT_T0_T1_, symObjAddr: 0x2F15C, symBinAddr: 0x1000331AC, symSize: 0x70 }
  - { offsetInCU: 0x34BDB, offset: 0x4B5E8, size: 0x8, addend: 0x0, symName: '__ZNSt3__17find_ifB8ue170006INS_11__wrap_iterIPNS_10shared_ptrIN5hf3fs17monitor_collector13WorkloadStatsEEEEERZNS4_19MLWorkloadAnalytics14generateReportEvE3$_7EET_SC_SC_T0_', symObjAddr: 0x2F214, symBinAddr: 0x100033264, symSize: 0x80 }
  - { offsetInCU: 0x34C35, offset: 0x4B642, size: 0x8, addend: 0x0, symName: __ZNSt3__1miB8ue170006IPKNS_10shared_ptrIN5hf3fs17monitor_collector13WorkloadStatsEEEPS5_EEDTmicldtfp_4baseEcldtfp0_4baseEERKNS_11__wrap_iterIT_EERKNSA_IT0_EE, symObjAddr: 0x2F2DC, symBinAddr: 0x10003332C, symSize: 0x48 }
  - { offsetInCU: 0x34C81, offset: 0x4B68E, size: 0x8, addend: 0x0, symName: __ZNSt3__1neB8ue170006IPKNS_10shared_ptrIN5hf3fs17monitor_collector13WorkloadStatsEEEEEbRKNS_11__wrap_iterIT_EESC_, symObjAddr: 0x2F324, symBinAddr: 0x100033374, symSize: 0x34 }
  - { offsetInCU: 0x34CC4, offset: 0x4B6D1, size: 0x8, addend: 0x0, symName: __ZNSt3__14moveB8ue170006IPNS_10shared_ptrIN5hf3fs17monitor_collector13WorkloadStatsEEES6_EET0_T_S8_S7_, symObjAddr: 0x2F3A4, symBinAddr: 0x1000333F4, symSize: 0x40 }
  - { offsetInCU: 0x34D1E, offset: 0x4B72B, size: 0x8, addend: 0x0, symName: __ZNSt3__1miB8ue170006IPKNS_10shared_ptrIN5hf3fs17monitor_collector13WorkloadStatsEEES7_EEDTmicldtfp_4baseEcldtfp0_4baseEERKNS_11__wrap_iterIT_EERKNS9_IT0_EE, symObjAddr: 0x2F3E4, symBinAddr: 0x100033434, symSize: 0x48 }
  - { offsetInCU: 0x34D6A, offset: 0x4B777, size: 0x8, addend: 0x0, symName: __ZNSt3__1eqB8ue170006IPKNS_10shared_ptrIN5hf3fs17monitor_collector13WorkloadStatsEEEEEbRKNS_11__wrap_iterIT_EESC_, symObjAddr: 0x2F444, symBinAddr: 0x100033494, symSize: 0x48 }
  - { offsetInCU: 0x34DAD, offset: 0x4B7BA, size: 0x8, addend: 0x0, symName: __ZNSt3__16__moveB8ue170006INS_17_ClassicAlgPolicyEPNS_10shared_ptrIN5hf3fs17monitor_collector13WorkloadStatsEEES7_S7_EENS_4pairIT0_T2_EES9_T1_SA_, symObjAddr: 0x2F540, symBinAddr: 0x100033590, symSize: 0x44 }
  - { offsetInCU: 0x34E19, offset: 0x4B826, size: 0x8, addend: 0x0, symName: __ZNSt3__123__dispatch_copy_or_moveB8ue170006INS_17_ClassicAlgPolicyENS_11__move_loopIS1_EENS_14__move_trivialEPNS_10shared_ptrIN5hf3fs17monitor_collector13WorkloadStatsEEESA_SA_EENS_4pairIT2_T4_EESC_T3_SD_, symObjAddr: 0x2F584, symBinAddr: 0x1000335D4, symSize: 0x44 }
  - { offsetInCU: 0x34E97, offset: 0x4B8A4, size: 0x8, addend: 0x0, symName: __ZNSt3__121__unwrap_and_dispatchB8ue170006INS_10__overloadINS_11__move_loopINS_17_ClassicAlgPolicyEEENS_14__move_trivialEEEPNS_10shared_ptrIN5hf3fs17monitor_collector13WorkloadStatsEEESC_SC_Li0EEENS_4pairIT0_T2_EESE_T1_SF_, symObjAddr: 0x2F5C8, symBinAddr: 0x100033618, symSize: 0xB4 }
  - { offsetInCU: 0x34F25, offset: 0x4B932, size: 0x8, addend: 0x0, symName: __ZNSt3__114__unwrap_rangeB8ue170006IPNS_10shared_ptrIN5hf3fs17monitor_collector13WorkloadStatsEEES6_EENS_4pairIT0_S8_EET_SA_, symObjAddr: 0x2F67C, symBinAddr: 0x1000336CC, symSize: 0x60 }
  - { offsetInCU: 0x35045, offset: 0x4BA52, size: 0x8, addend: 0x0, symName: __ZNSt3__113__unwrap_iterB8ue170006IPNS_10shared_ptrIN5hf3fs17monitor_collector13WorkloadStatsEEENS_18__unwrap_iter_implIS6_Lb1EEELi0EEEDTclsrT0_8__unwrapclsr3stdE7declvalIT_EEEESA_, symObjAddr: 0x2F76C, symBinAddr: 0x1000337BC, symSize: 0x24 }
  - { offsetInCU: 0x35089, offset: 0x4BA96, size: 0x8, addend: 0x0, symName: __ZNSt3__19make_pairB8ue170006IPNS_10shared_ptrIN5hf3fs17monitor_collector13WorkloadStatsEEES6_EENS_4pairINS_18__unwrap_ref_decayIT_E4typeENS8_IT0_E4typeEEEOS9_OSC_, symObjAddr: 0x2F790, symBinAddr: 0x1000337E0, symSize: 0x38 }
  - { offsetInCU: 0x350D8, offset: 0x4BAE5, size: 0x8, addend: 0x0, symName: __ZNSt3__114__rewrap_rangeB8ue170006IPNS_10shared_ptrIN5hf3fs17monitor_collector13WorkloadStatsEEES6_EET_S7_T0_, symObjAddr: 0x2F7C8, symBinAddr: 0x100033818, symSize: 0x2C }
  - { offsetInCU: 0x35124, offset: 0x4BB31, size: 0x8, addend: 0x0, symName: __ZNSt3__113__rewrap_iterB8ue170006IPNS_10shared_ptrIN5hf3fs17monitor_collector13WorkloadStatsEEES6_NS_18__unwrap_iter_implIS6_Lb1EEEEET_S9_T0_, symObjAddr: 0x2F7F4, symBinAddr: 0x100033844, symSize: 0x3C }
  - { offsetInCU: 0x351F0, offset: 0x4BBFD, size: 0x8, addend: 0x0, symName: __ZNSt3__110__str_findB8ue170006IcmNS_11char_traitsIcEELm18446744073709551615EEET0_PKT_S3_S6_S3_S3_, symObjAddr: 0x2F9B4, symBinAddr: 0x100033A04, symSize: 0xE4 }
  - { offsetInCU: 0x35297, offset: 0x4BCA4, size: 0x8, addend: 0x0, symName: __ZNSt3__118__search_substringB8ue170006IcNS_11char_traitsIcEEEEPKT_S5_S5_S5_S5_, symObjAddr: 0x2FA98, symBinAddr: 0x100033AE8, symSize: 0x154 }
  - { offsetInCU: 0x35331, offset: 0x4BD3E, size: 0x8, addend: 0x0, symName: __ZNSt3__118__constexpr_memchrB8ue170006IKccEEPT_S3_T0_m, symObjAddr: 0x2FC5C, symBinAddr: 0x100033CAC, symSize: 0x40 }
  - { offsetInCU: 0x353A8, offset: 0x4BDB5, size: 0x8, addend: 0x0, symName: '__ZNSt3__111__sort_implB8ue170006INS_17_ClassicAlgPolicyENS_11__wrap_iterIPNS_4pairIyyEEEEZN5hf3fs17monitor_collector19MLWorkloadAnalytics20cleanupIdleWorkloadsEvE3$_8EEvT0_SB_RT1_', symObjAddr: 0x30778, symBinAddr: 0x1000347C8, symSize: 0xA8 }
  - { offsetInCU: 0x3540C, offset: 0x4BE19, size: 0x8, addend: 0x0, symName: __ZNSt3__123__debug_randomize_rangeB8ue170006INS_17_ClassicAlgPolicyENS_11__wrap_iterIPNS_4pairIyyEEEES6_EEvT0_T1_, symObjAddr: 0x30820, symBinAddr: 0x100034870, symSize: 0x14 }
  - { offsetInCU: 0x3545E, offset: 0x4BE6B, size: 0x8, addend: 0x0, symName: '__ZNSt3__115__sort_dispatchB8ue170006INS_17_ClassicAlgPolicyEPNS_4pairIyyEEZN5hf3fs17monitor_collector19MLWorkloadAnalytics20cleanupIdleWorkloadsEvE3$_8EEvT0_S9_RT1_', symObjAddr: 0x30834, symBinAddr: 0x100034884, symSize: 0x64 }
  - { offsetInCU: 0x354DC, offset: 0x4BEE9, size: 0x8, addend: 0x0, symName: __ZNSt3__113__unwrap_iterB8ue170006INS_11__wrap_iterIPNS_4pairIyyEEEENS_18__unwrap_iter_implIS5_Lb1EEELi0EEEDTclsrT0_8__unwrapclsr3stdE7declvalIT_EEEES9_, symObjAddr: 0x30898, symBinAddr: 0x1000348E8, symSize: 0x2C }
  - { offsetInCU: 0x35521, offset: 0x4BF2E, size: 0x8, addend: 0x0, symName: '__ZNSt3__135__check_strict_weak_ordering_sortedB8ue170006IPNS_4pairIyyEEZN5hf3fs17monitor_collector19MLWorkloadAnalytics20cleanupIdleWorkloadsEvE3$_8EEvT_S8_RT0_', symObjAddr: 0x308C4, symBinAddr: 0x100034914, symSize: 0x18 }
  - { offsetInCU: 0x35577, offset: 0x4BF84, size: 0x8, addend: 0x0, symName: __ZNSt3__17__log2iB8ue170006IlEET_S1_, symObjAddr: 0x308DC, symBinAddr: 0x10003492C, symSize: 0x54 }
  - { offsetInCU: 0x355AF, offset: 0x4BFBC, size: 0x8, addend: 0x0, symName: '__ZNSt3__124__sort3_maybe_branchlessB8ue170006INS_17_ClassicAlgPolicyERZN5hf3fs17monitor_collector19MLWorkloadAnalytics20cleanupIdleWorkloadsEvE3$_8PNS_4pairIyyEEEENS_9enable_ifIXntsr21__use_branchless_sortIT0_T1_EE5valueEvE4typeESC_SC_SC_SB_', symObjAddr: 0x30DE4, symBinAddr: 0x100034E34, symSize: 0x3C }
  - { offsetInCU: 0x35621, offset: 0x4C02E, size: 0x8, addend: 0x0, symName: '__ZNSt3__124__sort4_maybe_branchlessB8ue170006INS_17_ClassicAlgPolicyERZN5hf3fs17monitor_collector19MLWorkloadAnalytics20cleanupIdleWorkloadsEvE3$_8PNS_4pairIyyEEEENS_9enable_ifIXntsr21__use_branchless_sortIT0_T1_EE5valueEvE4typeESC_SC_SC_SC_SB_', symObjAddr: 0x30E20, symBinAddr: 0x100034E70, symSize: 0x44 }
  - { offsetInCU: 0x356A1, offset: 0x4C0AE, size: 0x8, addend: 0x0, symName: '__ZNSt3__124__sort5_maybe_branchlessB8ue170006INS_17_ClassicAlgPolicyERZN5hf3fs17monitor_collector19MLWorkloadAnalytics20cleanupIdleWorkloadsEvE3$_8PNS_4pairIyyEEEENS_9enable_ifIXntsr21__use_branchless_sortIT0_T1_EE5valueEvE4typeESC_SC_SC_SC_SC_SB_', symObjAddr: 0x30E64, symBinAddr: 0x100034EB4, symSize: 0x4C }
  - { offsetInCU: 0x3572F, offset: 0x4C13C, size: 0x8, addend: 0x0, symName: '__ZNSt3__116__insertion_sortB8ue170006INS_17_ClassicAlgPolicyERZN5hf3fs17monitor_collector19MLWorkloadAnalytics20cleanupIdleWorkloadsEvE3$_8PNS_4pairIyyEEEEvT1_SA_T0_', symObjAddr: 0x30EB0, symBinAddr: 0x100034F00, symSize: 0x150 }
  - { offsetInCU: 0x357F3, offset: 0x4C200, size: 0x8, addend: 0x0, symName: '__ZNSt3__114__partial_sortB8ue170006INS_17_ClassicAlgPolicyERZN5hf3fs17monitor_collector19MLWorkloadAnalytics20cleanupIdleWorkloadsEvE3$_8PNS_4pairIyyEES9_EET1_SA_SA_T2_RT0_', symObjAddr: 0x31120, symBinAddr: 0x100035170, symSize: 0x94 }
  - { offsetInCU: 0x3587C, offset: 0x4C289, size: 0x8, addend: 0x0, symName: '__ZNSt3__17__sort3B8ue170006INS_17_ClassicAlgPolicyERZN5hf3fs17monitor_collector19MLWorkloadAnalytics20cleanupIdleWorkloadsEvE3$_8PNS_4pairIyyEEEEjT1_SA_SA_T0_', symObjAddr: 0x311B4, symBinAddr: 0x100035204, symSize: 0x144 }
  - { offsetInCU: 0x358FC, offset: 0x4C309, size: 0x8, addend: 0x0, symName: __ZNSt3__19iter_swapB8ue170006IPNS_4pairIyyEES3_EEvT_T0_, symObjAddr: 0x31DA4, symBinAddr: 0x100035DF4, symSize: 0x2C }
  - { offsetInCU: 0x35943, offset: 0x4C350, size: 0x8, addend: 0x0, symName: __ZNSt3__14swapB8ue170006IyyEENS_9enable_ifIXaasr14__is_swappableIT_EE5valuesr14__is_swappableIT0_EE5valueEvE4typeERNS_4pairIS2_S3_EES8_, symObjAddr: 0x31DD0, symBinAddr: 0x100035E20, symSize: 0x2C }
  - { offsetInCU: 0x35993, offset: 0x4C3A0, size: 0x8, addend: 0x0, symName: __ZNSt3__14swapB8ue170006IyEENS_9enable_ifIXaasr21is_move_constructibleIT_EE5valuesr18is_move_assignableIS2_EE5valueEvE4typeERS2_S5_, symObjAddr: 0x31E40, symBinAddr: 0x100035E90, symSize: 0x3C }
  - { offsetInCU: 0x359E4, offset: 0x4C3F1, size: 0x8, addend: 0x0, symName: '__ZNSt3__17__sort4B8ue170006INS_17_ClassicAlgPolicyERZN5hf3fs17monitor_collector19MLWorkloadAnalytics20cleanupIdleWorkloadsEvE3$_8PNS_4pairIyyEEEEvT1_SA_SA_SA_T0_', symObjAddr: 0x31E7C, symBinAddr: 0x100035ECC, symSize: 0xB8 }
  - { offsetInCU: 0x35A60, offset: 0x4C46D, size: 0x8, addend: 0x0, symName: '__ZNSt3__17__sort5B8ue170006INS_17_ClassicAlgPolicyERZN5hf3fs17monitor_collector19MLWorkloadAnalytics20cleanupIdleWorkloadsEvE3$_8PNS_4pairIyyEEEEvT1_SA_SA_SA_SA_T0_', symObjAddr: 0x31F34, symBinAddr: 0x100035F84, symSize: 0xE8 }
  - { offsetInCU: 0x35B0E, offset: 0x4C51B, size: 0x8, addend: 0x0, symName: __ZNSt3__123__debug_randomize_rangeB8ue170006INS_17_ClassicAlgPolicyEPNS_4pairIyyEES4_EEvT0_T1_, symObjAddr: 0x32090, symBinAddr: 0x1000360E0, symSize: 0x14 }
  - { offsetInCU: 0x35B60, offset: 0x4C56D, size: 0x8, addend: 0x0, symName: '__ZNSt3__119__partial_sort_implB8ue170006INS_17_ClassicAlgPolicyERZN5hf3fs17monitor_collector19MLWorkloadAnalytics20cleanupIdleWorkloadsEvE3$_8PNS_4pairIyyEES9_EET1_SA_SA_T2_OT0_', symObjAddr: 0x320A4, symBinAddr: 0x1000360F4, symSize: 0x110 }
  - { offsetInCU: 0x35BF7, offset: 0x4C604, size: 0x8, addend: 0x0, symName: '__ZNSt3__111__make_heapB8ue170006INS_17_ClassicAlgPolicyERZN5hf3fs17monitor_collector19MLWorkloadAnalytics20cleanupIdleWorkloadsEvE3$_8PNS_4pairIyyEEEEvT1_SA_OT0_', symObjAddr: 0x321B4, symBinAddr: 0x100036204, symSize: 0xB8 }
  - { offsetInCU: 0x35C9A, offset: 0x4C6A7, size: 0x8, addend: 0x0, symName: '__ZNSt3__111__sort_heapB8ue170006INS_17_ClassicAlgPolicyERZN5hf3fs17monitor_collector19MLWorkloadAnalytics20cleanupIdleWorkloadsEvE3$_8PNS_4pairIyyEEEEvT1_SA_OT0_', symObjAddr: 0x32478, symBinAddr: 0x1000364C8, symSize: 0xA8 }
  - { offsetInCU: 0x35D3D, offset: 0x4C74A, size: 0x8, addend: 0x0, symName: '__ZNSt3__110__pop_heapB8ue170006INS_17_ClassicAlgPolicyEZN5hf3fs17monitor_collector19MLWorkloadAnalytics20cleanupIdleWorkloadsEvE3$_8PNS_4pairIyyEEEEvT1_S9_RT0_NS_15iterator_traitsIS9_E15difference_typeE', symObjAddr: 0x32520, symBinAddr: 0x100036570, symSize: 0xF4 }
  - { offsetInCU: 0x35DEE, offset: 0x4C7FB, size: 0x8, addend: 0x0, symName: '__ZNSt3__19__sift_upB8ue170006INS_17_ClassicAlgPolicyERZN5hf3fs17monitor_collector19MLWorkloadAnalytics20cleanupIdleWorkloadsEvE3$_8PNS_4pairIyyEEEEvT1_SA_OT0_NS_15iterator_traitsISA_E15difference_typeE', symObjAddr: 0x32714, symBinAddr: 0x100036764, symSize: 0x11C }
  - { offsetInCU: 0x35E9F, offset: 0x4C8AC, size: 0x8, addend: 0x0, symName: '__ZNSt3__122__populate_left_bitsetB8ue170006IRZN5hf3fs17monitor_collector19MLWorkloadAnalytics20cleanupIdleWorkloadsEvE3$_8PNS_4pairIyyEES7_EEvT0_T_RT1_Ry', symObjAddr: 0x32830, symBinAddr: 0x100036880, symSize: 0xA8 }
  - { offsetInCU: 0x35F5B, offset: 0x4C968, size: 0x8, addend: 0x0, symName: '__ZNSt3__123__populate_right_bitsetB8ue170006IRZN5hf3fs17monitor_collector19MLWorkloadAnalytics20cleanupIdleWorkloadsEvE3$_8PNS_4pairIyyEES7_EEvT0_T_RT1_Ry', symObjAddr: 0x328D8, symBinAddr: 0x100036928, symSize: 0xA0 }
  - { offsetInCU: 0x36017, offset: 0x4CA24, size: 0x8, addend: 0x0, symName: __ZNSt3__117__swap_bitmap_posB8ue170006INS_17_ClassicAlgPolicyEPNS_4pairIyyEEEEvT0_S5_RyS6_, symObjAddr: 0x32978, symBinAddr: 0x1000369C8, symSize: 0x100 }
  - { offsetInCU: 0x360B8, offset: 0x4CAC5, size: 0x8, addend: 0x0, symName: '__ZNSt3__133__bitset_partition_partial_blocksB8ue170006INS_17_ClassicAlgPolicyERZN5hf3fs17monitor_collector19MLWorkloadAnalytics20cleanupIdleWorkloadsEvE3$_8PNS_4pairIyyEES8_EEvRT1_SB_T0_RT2_RySF_', symObjAddr: 0x32A78, symBinAddr: 0x100036AC8, symSize: 0x2E8 }
  - { offsetInCU: 0x36239, offset: 0x4CC46, size: 0x8, addend: 0x0, symName: __ZNSt3__19make_pairB8ue170006IRPNS_4pairIyyEERbEENS1_INS_18__unwrap_ref_decayIT_E4typeENS6_IT0_E4typeEEEOS7_OSA_, symObjAddr: 0x32F40, symBinAddr: 0x100036F90, symSize: 0x38 }
  - { offsetInCU: 0x36289, offset: 0x4CC96, size: 0x8, addend: 0x0, symName: __ZNSt3__112__libcpp_ctzB8ue170006Ey, symObjAddr: 0x32F78, symBinAddr: 0x100036FC8, symSize: 0x20 }
  - { offsetInCU: 0x362B5, offset: 0x4CCC2, size: 0x8, addend: 0x0, symName: __ZNSt3__113__libcpp_blsrB8ue170006Ey, symObjAddr: 0x32F98, symBinAddr: 0x100036FE8, symSize: 0x2C }
  - { offsetInCU: 0x362E1, offset: 0x4CCEE, size: 0x8, addend: 0x0, symName: __ZNSt3__112__libcpp_clzB8ue170006Ey, symObjAddr: 0x32FF8, symBinAddr: 0x100037048, symSize: 0x1C }
  - { offsetInCU: 0x36433, offset: 0x4CE40, size: 0x8, addend: 0x0, symName: __ZNSt3__112__to_addressB8ue170006INS_11__wrap_iterIPNS_4pairIyyEEEEvEEu7__decayIDTclsr19__to_address_helperIT_EE6__callclsr3stdE7declvalIRKS6_EEEEES8_, symObjAddr: 0x330B0, symBinAddr: 0x100037100, symSize: 0x24 }
  - { offsetInCU: 0x370A8, offset: 0x4DAB5, size: 0x8, addend: 0x0, symName: __ZSt28__throw_bad_array_new_lengthB8ue170006v, symObjAddr: 0xA8A0, symBinAddr: 0x10000FBC0, symSize: 0x34 }
  - { offsetInCU: 0x38033, offset: 0x4EA40, size: 0x8, addend: 0x0, symName: __ZN5hf3fs17monitor_collector12_GLOBAL__N_116getCurrentTimeMsEv, symObjAddr: 0x1090, symBinAddr: 0x100006738, symSize: 0x4C }
  - { offsetInCU: 0x38051, offset: 0x4EA5E, size: 0x8, addend: 0x0, symName: __ZN5hf3fs17monitor_collector12_GLOBAL__N_120workloadTypeToStringENS0_12WorkloadTypeE, symObjAddr: 0x2740, symBinAddr: 0x100007DD0, symSize: 0xD4 }
  - { offsetInCU: 0x3807E, offset: 0x4EA8B, size: 0x8, addend: 0x0, symName: __ZN5hf3fs17monitor_collector12_GLOBAL__N_121frameworkTypeToStringENS0_13FrameworkTypeE, symObjAddr: 0x282C, symBinAddr: 0x100007EBC, symSize: 0xD4 }
  - { offsetInCU: 0x380AB, offset: 0x4EAB8, size: 0x8, addend: 0x0, symName: __ZN5hf3fs17monitor_collector12_GLOBAL__N_116getFileExtensionERKNSt3__112basic_stringIcNS2_11char_traitsIcEENS2_9allocatorIcEEEE, symObjAddr: 0x1DE98, symBinAddr: 0x100021F00, symSize: 0xA4 }
  - { offsetInCU: 0x382AC, offset: 0x4ECB9, size: 0x8, addend: 0x0, symName: __ZN5hf3fs7successEv, symObjAddr: 0xAA4, symBinAddr: 0x10000614C, symSize: 0x28 }
  - { offsetInCU: 0x38AF9, offset: 0x4F506, size: 0x8, addend: 0x0, symName: __ZNSt3__16vectorIN5folly7dynamicENS_9allocatorIS2_EEE26__swap_out_circular_bufferERNS_14__split_bufferIS2_RS4_EE, symObjAddr: 0xFA7C, symBinAddr: 0x100014614, symSize: 0x110 }
  - { offsetInCU: 0x39EC9, offset: 0x508D6, size: 0x8, addend: 0x0, symName: __ZN5hf3fs17monitor_collector19MLWorkloadAnalyticsC1ERKNS1_6ConfigE, symObjAddr: 0x4C8, symBinAddr: 0x100005CF4, symSize: 0x34 }
  - { offsetInCU: 0x3A136, offset: 0x50B43, size: 0x8, addend: 0x0, symName: __ZN5hf3fs17monitor_collector19MLWorkloadAnalytics4initEv, symObjAddr: 0x908, symBinAddr: 0x100005FB0, symSize: 0x180 }
  - { offsetInCU: 0x3A5BA, offset: 0x50FC7, size: 0x8, addend: 0x0, symName: __ZNSt3__16vectorIN5hf3fs17monitor_collector15OperationRecordENS_9allocatorIS3_EEE26__swap_out_circular_bufferERNS_14__split_bufferIS3_RS5_EE, symObjAddr: 0x18308, symBinAddr: 0x10001C4DC, symSize: 0x110 }
  - { offsetInCU: 0x3A6A6, offset: 0x510B3, size: 0x8, addend: 0x0, symName: __ZN5hf3fs17monitor_collector19MLWorkloadAnalytics15recordOperationERKNS0_15OperationRecordE, symObjAddr: 0xF18, symBinAddr: 0x1000065C0, symSize: 0x178 }
  - { offsetInCU: 0x3AA86, offset: 0x51493, size: 0x8, addend: 0x0, symName: __ZNSt3__16vectorINS_12basic_stringIcNS_11char_traitsIcEENS_9allocatorIcEEEENS4_IS6_EEE26__swap_out_circular_bufferERNS_14__split_bufferIS6_RS7_EE, symObjAddr: 0x232BC, symBinAddr: 0x10002730C, symSize: 0x110 }
  - { offsetInCU: 0x3AD49, offset: 0x51756, size: 0x8, addend: 0x0, symName: __ZNSt3__16vectorINS_10shared_ptrIN5hf3fs17monitor_collector13WorkloadStatsEEENS_9allocatorIS5_EEE26__swap_out_circular_bufferERNS_14__split_bufferIS5_RS7_EE, symObjAddr: 0x28C64, symBinAddr: 0x10002CCB4, symSize: 0x110 }
  - { offsetInCU: 0x3AF5D, offset: 0x5196A, size: 0x8, addend: 0x0, symName: __ZNSt3__16vectorIyNS_9allocatorIyEEE26__swap_out_circular_bufferERNS_14__split_bufferIyRS2_EE, symObjAddr: 0x2A854, symBinAddr: 0x10002E8A4, symSize: 0x110 }
  - { offsetInCU: 0x3B149, offset: 0x51B56, size: 0x8, addend: 0x0, symName: __ZNSt3__16vectorINS_4pairIyyEENS_9allocatorIS2_EEE26__swap_out_circular_bufferERNS_14__split_bufferIS2_RS4_EE, symObjAddr: 0x2C458, symBinAddr: 0x1000304A8, symSize: 0x110 }
  - { offsetInCU: 0x3C8F1, offset: 0x532FE, size: 0x8, addend: 0x0, symName: __Z7toloweri, symObjAddr: 0x5C5C, symBinAddr: 0x10000B268, symSize: 0x24 }
  - { offsetInCU: 0x3D0CA, offset: 0x53AD7, size: 0x8, addend: 0x0, symName: __ZN5folly7dynamicC1Ev, symObjAddr: 0x0, symBinAddr: 0x10000582C, symSize: 0x2C }
  - { offsetInCU: 0x3D0F4, offset: 0x53B01, size: 0x8, addend: 0x0, symName: __ZN5folly7dynamicD1Ev, symObjAddr: 0x2C, symBinAddr: 0x100005858, symSize: 0x2C }
  - { offsetInCU: 0x3D120, offset: 0x53B2D, size: 0x8, addend: 0x0, symName: __ZN5hf3fs17monitor_collector19MLWorkloadAnalyticsC2ERKNS1_6ConfigE, symObjAddr: 0x58, symBinAddr: 0x100005884, symSize: 0x180 }
  - { offsetInCU: 0x3D15C, offset: 0x53B69, size: 0x8, addend: 0x0, symName: __ZN5folly17ConcurrentHashMapIyNSt3__16vectorIN5hf3fs17monitor_collector15OperationRecordENS1_9allocatorIS5_EEEEEC1Ev, symObjAddr: 0x1D8, symBinAddr: 0x100005A04, symSize: 0x2C }
  - { offsetInCU: 0x3D188, offset: 0x53B95, size: 0x8, addend: 0x0, symName: __ZN5folly17ConcurrentHashMapIyNSt3__110shared_ptrIN5hf3fs17monitor_collector13WorkloadStatsEEEEC1Ev, symObjAddr: 0x204, symBinAddr: 0x100005A30, symSize: 0x2C }
  - { offsetInCU: 0x3D1B4, offset: 0x53BC1, size: 0x8, addend: 0x0, symName: __ZNSt3__16vectorINS_10shared_ptrIN5hf3fs17monitor_collector13WorkloadStatsEEENS_9allocatorIS5_EEEC1B8ue170006Ev, symObjAddr: 0x230, symBinAddr: 0x100005A5C, symSize: 0x2C }
  - { offsetInCU: 0x3D1DE, offset: 0x53BEB, size: 0x8, addend: 0x0, symName: __ZNSt3__110unique_ptrIN5hf3fs16BackgroundRunnerENS_14default_deleteIS2_EEEC1B8ue170006ILb1EvEEv, symObjAddr: 0x25C, symBinAddr: 0x100005A88, symSize: 0x2C }
  - { offsetInCU: 0x3D213, offset: 0x53C20, size: 0x8, addend: 0x0, symName: __ZN5hf3fs5utils13CallbackGuardC1Ev, symObjAddr: 0x288, symBinAddr: 0x100005AB4, symSize: 0x2C }
  - { offsetInCU: 0x3D23D, offset: 0x53C4A, size: 0x8, addend: 0x0, symName: __ZN5hf3fs17monitor_collector19MLWorkloadAnalytics6Config16addCallbackGuardENSt3__18functionIFvvEEE, symObjAddr: 0x2B4, symBinAddr: 0x100005AE0, symSize: 0xA4 }
  - { offsetInCU: 0x3D273, offset: 0x53C80, size: 0x8, addend: 0x0, symName: '__ZNSt3__18functionIFvvEEC1IZN5hf3fs17monitor_collector19MLWorkloadAnalyticsC1ERKNS6_6ConfigEE3$_0vEET_', symObjAddr: 0x358, symBinAddr: 0x100005B84, symSize: 0x34 }
  - { offsetInCU: 0x3D2C3, offset: 0x53CD0, size: 0x8, addend: 0x0, symName: __ZN5hf3fs5utils13CallbackGuardaSEOS1_, symObjAddr: 0x38C, symBinAddr: 0x100005BB8, symSize: 0x34 }
  - { offsetInCU: 0x3D2F4, offset: 0x53D01, size: 0x8, addend: 0x0, symName: __ZN5hf3fs5utils13CallbackGuardD1Ev, symObjAddr: 0x3C0, symBinAddr: 0x100005BEC, symSize: 0x2C }
  - { offsetInCU: 0x3D320, offset: 0x53D2D, size: 0x8, addend: 0x0, symName: __ZNSt3__18functionIFvvEED1Ev, symObjAddr: 0x3EC, symBinAddr: 0x100005C18, symSize: 0x2C }
  - { offsetInCU: 0x3D34C, offset: 0x53D59, size: 0x8, addend: 0x0, symName: __ZNSt3__110unique_ptrIN5hf3fs16BackgroundRunnerENS_14default_deleteIS2_EEED1B8ue170006Ev, symObjAddr: 0x418, symBinAddr: 0x100005C44, symSize: 0x2C }
  - { offsetInCU: 0x3D376, offset: 0x53D83, size: 0x8, addend: 0x0, symName: __ZNSt3__16vectorINS_10shared_ptrIN5hf3fs17monitor_collector13WorkloadStatsEEENS_9allocatorIS5_EEED1B8ue170006Ev, symObjAddr: 0x444, symBinAddr: 0x100005C70, symSize: 0x2C }
  - { offsetInCU: 0x3D3A0, offset: 0x53DAD, size: 0x8, addend: 0x0, symName: __ZN5folly17ConcurrentHashMapIyNSt3__110shared_ptrIN5hf3fs17monitor_collector13WorkloadStatsEEEED1Ev, symObjAddr: 0x470, symBinAddr: 0x100005C9C, symSize: 0x2C }
  - { offsetInCU: 0x3D3CC, offset: 0x53DD9, size: 0x8, addend: 0x0, symName: __ZN5folly17ConcurrentHashMapIyNSt3__16vectorIN5hf3fs17monitor_collector15OperationRecordENS1_9allocatorIS5_EEEEED1Ev, symObjAddr: 0x49C, symBinAddr: 0x100005CC8, symSize: 0x2C }
  - { offsetInCU: 0x3D3F8, offset: 0x53E05, size: 0x8, addend: 0x0, symName: __ZN5hf3fs17monitor_collector19MLWorkloadAnalyticsD2Ev, symObjAddr: 0x4FC, symBinAddr: 0x100005D28, symSize: 0x128 }
  - { offsetInCU: 0x3D438, offset: 0x53E45, size: 0x8, addend: 0x0, symName: __ZNKSt3__110unique_ptrIN5hf3fs16BackgroundRunnerENS_14default_deleteIS2_EEEcvbB8ue170006Ev, symObjAddr: 0x624, symBinAddr: 0x100005E50, symSize: 0x34 }
  - { offsetInCU: 0x3D45E, offset: 0x53E6B, size: 0x8, addend: 0x0, symName: __ZN5hf3fs17monitor_collector19MLWorkloadAnalytics11stopAndJoinEv, symObjAddr: 0x658, symBinAddr: 0x100005E84, symSize: 0x100 }
  - { offsetInCU: 0x3D486, offset: 0x53E93, size: 0x8, addend: 0x0, symName: __ZN5hf3fs17monitor_collector19MLWorkloadAnalyticsD1Ev, symObjAddr: 0x8DC, symBinAddr: 0x100005F84, symSize: 0x2C }
  - { offsetInCU: 0x3D4B2, offset: 0x53EBF, size: 0x8, addend: 0x0, symName: __ZNK5hf3fs17monitor_collector19MLWorkloadAnalytics6Config7enabledEv, symObjAddr: 0xA88, symBinAddr: 0x100006130, symSize: 0x1C }
  - { offsetInCU: 0x3D4D8, offset: 0x53EE5, size: 0x8, addend: 0x0, symName: __ZNK5hf3fs17monitor_collector19MLWorkloadAnalytics6Config20analysis_interval_msEv, symObjAddr: 0xC2C, symBinAddr: 0x1000062D4, symSize: 0x18 }
  - { offsetInCU: 0x3D503, offset: 0x53F10, size: 0x8, addend: 0x0, symName: __ZNSt3__16chrono8durationIxNS_5ratioILl1ELl1000EEEEC1B8ue170006IyEERKT_PNS_9enable_ifIXaasr14is_convertibleIS8_xEE5valueooL_ZNS_17integral_constantIbLb0EE5valueEEntsr23treat_as_floating_pointIS6_EE5valueEvE4typeE, symObjAddr: 0xC44, symBinAddr: 0x1000062EC, symSize: 0x3C }
  - { offsetInCU: 0x3D550, offset: 0x53F5D, size: 0x8, addend: 0x0, symName: __ZNSt3__110unique_ptrIN5hf3fs16BackgroundRunnerENS_14default_deleteIS2_EEEaSB8ue170006EOS5_, symObjAddr: 0xC80, symBinAddr: 0x100006328, symSize: 0x50 }
  - { offsetInCU: 0x3D584, offset: 0x53F91, size: 0x8, addend: 0x0, symName: __ZNKSt3__110unique_ptrIN5hf3fs16BackgroundRunnerENS_14default_deleteIS2_EEEptB8ue170006Ev, symObjAddr: 0xCD0, symBinAddr: 0x100006378, symSize: 0x28 }
  - { offsetInCU: 0x3D5AA, offset: 0x53FB7, size: 0x8, addend: 0x0, symName: __ZN5hf3fs16BackgroundRunner5startEv, symObjAddr: 0xCF8, symBinAddr: 0x1000063A0, symSize: 0x10 }
  - { offsetInCU: 0x3D5D0, offset: 0x53FDD, size: 0x8, addend: 0x0, symName: __ZNK5hf3fs17monitor_collector19MLWorkloadAnalytics6Config18report_interval_msEv, symObjAddr: 0xE68, symBinAddr: 0x100006510, symSize: 0x18 }
  - { offsetInCU: 0x3D5F6, offset: 0x54003, size: 0x8, addend: 0x0, symName: __ZN5hf3fs16BackgroundRunner4stopEv, symObjAddr: 0xE80, symBinAddr: 0x100006528, symSize: 0x10 }
  - { offsetInCU: 0x3D61C, offset: 0x54029, size: 0x8, addend: 0x0, symName: __ZN5hf3fs16BackgroundRunner4joinEv, symObjAddr: 0xE90, symBinAddr: 0x100006538, symSize: 0x10 }
  - { offsetInCU: 0x3D642, offset: 0x5404F, size: 0x8, addend: 0x0, symName: __ZNSt3__110unique_ptrIN5hf3fs16BackgroundRunnerENS_14default_deleteIS2_EEE5resetB8ue170006EPS2_, symObjAddr: 0xEA0, symBinAddr: 0x100006548, symSize: 0x78 }
  - { offsetInCU: 0x3D6CF, offset: 0x540DC, size: 0x8, addend: 0x0, symName: '__ZN5folly17ConcurrentHashMapIyNSt3__16vectorIN5hf3fs17monitor_collector15OperationRecordENS1_9allocatorIS5_EEEEE6upsertIZNS4_19MLWorkloadAnalytics15recordOperationERKS5_E3$_3EEvRKyOT_NS1_8functionIFS8_vEEE', symObjAddr: 0x10DC, symBinAddr: 0x100006784, symSize: 0xF0 }
  - { offsetInCU: 0x3D737, offset: 0x54144, size: 0x8, addend: 0x0, symName: '__ZNSt3__18functionIFNS_6vectorIN5hf3fs17monitor_collector15OperationRecordENS_9allocatorIS4_EEEEvEEC1IZNS3_19MLWorkloadAnalytics15recordOperationERKS4_E3$_4vEET_', symObjAddr: 0x11CC, symBinAddr: 0x100006874, symSize: 0x34 }
  - { offsetInCU: 0x3D77C, offset: 0x54189, size: 0x8, addend: 0x0, symName: __ZNSt3__18functionIFNS_6vectorIN5hf3fs17monitor_collector15OperationRecordENS_9allocatorIS4_EEEEvEED1Ev, symObjAddr: 0x1200, symBinAddr: 0x1000068A8, symSize: 0x2C }
  - { offsetInCU: 0x3D7F1, offset: 0x541FE, size: 0x8, addend: 0x0, symName: '__ZN5folly17ConcurrentHashMapIyNSt3__110shared_ptrIN5hf3fs17monitor_collector13WorkloadStatsEEEE6upsertIZNS4_19MLWorkloadAnalytics15recordOperationERKNS4_15OperationRecordEE3$_5EEvRKyOT_NS1_8functionIFS6_vEEE', symObjAddr: 0x122C, symBinAddr: 0x1000068D4, symSize: 0xF0 }
  - { offsetInCU: 0x3D859, offset: 0x54266, size: 0x8, addend: 0x0, symName: '__ZNSt3__18functionIFNS_10shared_ptrIN5hf3fs17monitor_collector13WorkloadStatsEEEvEEC1IZNS3_19MLWorkloadAnalytics15recordOperationERKNS3_15OperationRecordEE3$_6vEET_', symObjAddr: 0x131C, symBinAddr: 0x1000069C4, symSize: 0x3C }
  - { offsetInCU: 0x3D89E, offset: 0x542AB, size: 0x8, addend: 0x0, symName: __ZNSt3__18functionIFNS_10shared_ptrIN5hf3fs17monitor_collector13WorkloadStatsEEEvEED1Ev, symObjAddr: 0x1358, symBinAddr: 0x100006A00, symSize: 0x2C }
  - { offsetInCU: 0x3D8CA, offset: 0x542D7, size: 0x8, addend: 0x0, symName: __ZN5hf3fs17monitor_collector19MLWorkloadAnalytics16getWorkloadStatsEyRKNSt3__112basic_stringIcNS2_11char_traitsIcEENS2_9allocatorIcEEEE, symObjAddr: 0x1384, symBinAddr: 0x100006A2C, symSize: 0xEC }
  - { offsetInCU: 0x3D920, offset: 0x5432D, size: 0x8, addend: 0x0, symName: __ZN5folly17ConcurrentHashMapIyNSt3__110shared_ptrIN5hf3fs17monitor_collector13WorkloadStatsEEEE4findERKy, symObjAddr: 0x1470, symBinAddr: 0x100006B18, symSize: 0x34 }
  - { offsetInCU: 0x3D954, offset: 0x54361, size: 0x8, addend: 0x0, symName: __ZN5folly17ConcurrentHashMapIyNSt3__110shared_ptrIN5hf3fs17monitor_collector13WorkloadStatsEEEE3endEv, symObjAddr: 0x14D4, symBinAddr: 0x100006B7C, symSize: 0x2C }
  - { offsetInCU: 0x3D97A, offset: 0x54387, size: 0x8, addend: 0x0, symName: __ZNSt3__110shared_ptrIN5hf3fs17monitor_collector13WorkloadStatsEEC1B8ue170006EDn, symObjAddr: 0x1500, symBinAddr: 0x100006BA8, symSize: 0x34 }
  - { offsetInCU: 0x3D9B0, offset: 0x543BD, size: 0x8, addend: 0x0, symName: __ZNKSt3__112basic_stringIcNS_11char_traitsIcEENS_9allocatorIcEEE5emptyB8ue170006Ev, symObjAddr: 0x1534, symBinAddr: 0x100006BDC, symSize: 0x30 }
  - { offsetInCU: 0x3D9D6, offset: 0x543E3, size: 0x8, addend: 0x0, symName: __ZNKSt3__119__hash_map_iteratorINS_15__hash_iteratorIPNS_11__hash_nodeINS_17__hash_value_typeIyNS_10shared_ptrIN5hf3fs17monitor_collector13WorkloadStatsEEEEEPvEEEEEptB8ue170006Ev, symObjAddr: 0x1598, symBinAddr: 0x100006C40, symSize: 0x2C }
  - { offsetInCU: 0x3D9FC, offset: 0x54409, size: 0x8, addend: 0x0, symName: __ZNSt3__110shared_ptrIN5hf3fs17monitor_collector13WorkloadStatsEEC1B8ue170006ERKS4_, symObjAddr: 0x15DC, symBinAddr: 0x100006C6C, symSize: 0x34 }
  - { offsetInCU: 0x3DA35, offset: 0x54442, size: 0x8, addend: 0x0, symName: __ZN5hf3fs17monitor_collector19MLWorkloadAnalytics19getAllWorkloadStatsEv, symObjAddr: 0x1610, symBinAddr: 0x100006CA0, symSize: 0x30 }
  - { offsetInCU: 0x3DA5E, offset: 0x5446B, size: 0x8, addend: 0x0, symName: __ZNK5folly17ConcurrentHashMapIyNSt3__110shared_ptrIN5hf3fs17monitor_collector13WorkloadStatsEEEE16getShallowCopiesEv, symObjAddr: 0x1640, symBinAddr: 0x100006CD0, symSize: 0x38 }
  - { offsetInCU: 0x3DA84, offset: 0x54491, size: 0x8, addend: 0x0, symName: __ZN5hf3fs17monitor_collector19MLWorkloadAnalytics26getHistoricalWorkloadStatsEyy, symObjAddr: 0x1678, symBinAddr: 0x100006D08, symSize: 0x14C }
  - { offsetInCU: 0x3DB25, offset: 0x54532, size: 0x8, addend: 0x0, symName: __ZNSt3__16vectorINS_10shared_ptrIN5hf3fs17monitor_collector13WorkloadStatsEEENS_9allocatorIS5_EEE5beginB8ue170006Ev, symObjAddr: 0x17C4, symBinAddr: 0x100006E54, symSize: 0x30 }
  - { offsetInCU: 0x3DB4D, offset: 0x5455A, size: 0x8, addend: 0x0, symName: __ZNSt3__16vectorINS_10shared_ptrIN5hf3fs17monitor_collector13WorkloadStatsEEENS_9allocatorIS5_EEE3endB8ue170006Ev, symObjAddr: 0x17F4, symBinAddr: 0x100006E84, symSize: 0x30 }
  - { offsetInCU: 0x3DB75, offset: 0x54582, size: 0x8, addend: 0x0, symName: __ZNKSt3__111__wrap_iterIPNS_10shared_ptrIN5hf3fs17monitor_collector13WorkloadStatsEEEEdeB8ue170006Ev, symObjAddr: 0x1858, symBinAddr: 0x100006EE8, symSize: 0x18 }
  - { offsetInCU: 0x3DB9B, offset: 0x545A8, size: 0x8, addend: 0x0, symName: __ZNSt3__16vectorINS_10shared_ptrIN5hf3fs17monitor_collector13WorkloadStatsEEENS_9allocatorIS5_EEE9push_backB8ue170006ERKS5_, symObjAddr: 0x1870, symBinAddr: 0x100006F00, symSize: 0x6C }
  - { offsetInCU: 0x3DBD2, offset: 0x545DF, size: 0x8, addend: 0x0, symName: __ZNSt3__111__wrap_iterIPNS_10shared_ptrIN5hf3fs17monitor_collector13WorkloadStatsEEEEppB8ue170006Ev, symObjAddr: 0x18DC, symBinAddr: 0x100006F6C, symSize: 0x20 }
  - { offsetInCU: 0x3DBF8, offset: 0x54605, size: 0x8, addend: 0x0, symName: __ZN5hf3fs17monitor_collector19MLWorkloadAnalytics17getWorkloadReportEv, symObjAddr: 0x18FC, symBinAddr: 0x100006F8C, symSize: 0xB9C }
  - { offsetInCU: 0x3DDA3, offset: 0x547B0, size: 0x8, addend: 0x0, symName: __ZN5folly7dynamicC1ERKS0_, symObjAddr: 0x2498, symBinAddr: 0x100007B28, symSize: 0x34 }
  - { offsetInCU: 0x3DDD8, offset: 0x547E5, size: 0x8, addend: 0x0, symName: __ZNSt3__113unordered_mapIyNS_10shared_ptrIN5hf3fs17monitor_collector13WorkloadStatsEEENS_4hashIyEENS_8equal_toIyEENS_9allocatorINS_4pairIKyS5_EEEEE5beginB8ue170006Ev, symObjAddr: 0x24CC, symBinAddr: 0x100007B5C, symSize: 0x38 }
  - { offsetInCU: 0x3DDFE, offset: 0x5480B, size: 0x8, addend: 0x0, symName: __ZNSt3__113unordered_mapIyNS_10shared_ptrIN5hf3fs17monitor_collector13WorkloadStatsEEENS_4hashIyEENS_8equal_toIyEENS_9allocatorINS_4pairIKyS5_EEEEE3endB8ue170006Ev, symObjAddr: 0x2504, symBinAddr: 0x100007B94, symSize: 0x38 }
  - { offsetInCU: 0x3DE24, offset: 0x54831, size: 0x8, addend: 0x0, symName: __ZNKSt3__119__hash_map_iteratorINS_15__hash_iteratorIPNS_11__hash_nodeINS_17__hash_value_typeIyNS_10shared_ptrIN5hf3fs17monitor_collector13WorkloadStatsEEEEEPvEEEEEdeB8ue170006Ev, symObjAddr: 0x256C, symBinAddr: 0x100007BFC, symSize: 0x28 }
  - { offsetInCU: 0x3DE4A, offset: 0x54857, size: 0x8, addend: 0x0, symName: __ZN5folly7dynamicC1Ey, symObjAddr: 0x25DC, symBinAddr: 0x100007C6C, symSize: 0x34 }
  - { offsetInCU: 0x3DE82, offset: 0x5488F, size: 0x8, addend: 0x0, symName: __ZN5folly7dynamicixEPKc, symObjAddr: 0x2610, symBinAddr: 0x100007CA0, symSize: 0x78 }
  - { offsetInCU: 0x3DEBC, offset: 0x548C9, size: 0x8, addend: 0x0, symName: __ZN5folly7dynamicaSEOS0_, symObjAddr: 0x2688, symBinAddr: 0x100007D18, symSize: 0x84 }
  - { offsetInCU: 0x3DEED, offset: 0x548FA, size: 0x8, addend: 0x0, symName: __ZN5folly7dynamicC1ERKNSt3__112basic_stringIcNS1_11char_traitsIcEENS1_9allocatorIcEEEE, symObjAddr: 0x270C, symBinAddr: 0x100007D9C, symSize: 0x34 }
  - { offsetInCU: 0x3DF25, offset: 0x54932, size: 0x8, addend: 0x0, symName: __ZN5folly7dynamicC1Ed, symObjAddr: 0x2918, symBinAddr: 0x100007FA8, symSize: 0x34 }
  - { offsetInCU: 0x3DF5D, offset: 0x5496A, size: 0x8, addend: 0x0, symName: __ZNSt3__113unordered_mapINS_12basic_stringIcNS_11char_traitsIcEENS_9allocatorIcEEEEyNS_4hashIS6_EENS_8equal_toIS6_EENS4_INS_4pairIKS6_yEEEEE5beginB8ue170006Ev, symObjAddr: 0x294C, symBinAddr: 0x100007FDC, symSize: 0x38 }
  - { offsetInCU: 0x3DF83, offset: 0x54990, size: 0x8, addend: 0x0, symName: __ZNSt3__113unordered_mapINS_12basic_stringIcNS_11char_traitsIcEENS_9allocatorIcEEEEyNS_4hashIS6_EENS_8equal_toIS6_EENS4_INS_4pairIKS6_yEEEEE3endB8ue170006Ev, symObjAddr: 0x2984, symBinAddr: 0x100008014, symSize: 0x38 }
  - { offsetInCU: 0x3DFA9, offset: 0x549B6, size: 0x8, addend: 0x0, symName: __ZNKSt3__119__hash_map_iteratorINS_15__hash_iteratorIPNS_11__hash_nodeINS_17__hash_value_typeINS_12basic_stringIcNS_11char_traitsIcEENS_9allocatorIcEEEEyEEPvEEEEEdeB8ue170006Ev, symObjAddr: 0x29EC, symBinAddr: 0x10000807C, symSize: 0x28 }
  - { offsetInCU: 0x3DFCF, offset: 0x549DC, size: 0x8, addend: 0x0, symName: __ZN5folly7dynamicixERKNSt3__112basic_stringIcNS1_11char_traitsIcEENS1_9allocatorIcEEEE, symObjAddr: 0x2A5C, symBinAddr: 0x1000080EC, symSize: 0x34 }
  - { offsetInCU: 0x3E003, offset: 0x54A10, size: 0x8, addend: 0x0, symName: __ZNSt3__119__hash_map_iteratorINS_15__hash_iteratorIPNS_11__hash_nodeINS_17__hash_value_typeINS_12basic_stringIcNS_11char_traitsIcEENS_9allocatorIcEEEEyEEPvEEEEEppB8ue170006Ev, symObjAddr: 0x2A90, symBinAddr: 0x100008120, symSize: 0x2C }
  - { offsetInCU: 0x3E029, offset: 0x54A36, size: 0x8, addend: 0x0, symName: __ZNSt3__16vectorINS_12basic_stringIcNS_11char_traitsIcEENS_9allocatorIcEEEENS4_IS6_EEE5beginB8ue170006Ev, symObjAddr: 0x2ABC, symBinAddr: 0x10000814C, symSize: 0x30 }
  - { offsetInCU: 0x3E051, offset: 0x54A5E, size: 0x8, addend: 0x0, symName: __ZNSt3__16vectorINS_12basic_stringIcNS_11char_traitsIcEENS_9allocatorIcEEEENS4_IS6_EEE3endB8ue170006Ev, symObjAddr: 0x2AEC, symBinAddr: 0x10000817C, symSize: 0x30 }
  - { offsetInCU: 0x3E079, offset: 0x54A86, size: 0x8, addend: 0x0, symName: __ZNKSt3__111__wrap_iterIPNS_12basic_stringIcNS_11char_traitsIcEENS_9allocatorIcEEEEEdeB8ue170006Ev, symObjAddr: 0x2B50, symBinAddr: 0x1000081E0, symSize: 0x18 }
  - { offsetInCU: 0x3E09F, offset: 0x54AAC, size: 0x8, addend: 0x0, symName: __ZN5folly7dynamic9push_backES0_, symObjAddr: 0x2B68, symBinAddr: 0x1000081F8, symSize: 0x38 }
  - { offsetInCU: 0x3E0D4, offset: 0x54AE1, size: 0x8, addend: 0x0, symName: __ZNSt3__111__wrap_iterIPNS_12basic_stringIcNS_11char_traitsIcEENS_9allocatorIcEEEEEppB8ue170006Ev, symObjAddr: 0x2BA0, symBinAddr: 0x100008230, symSize: 0x20 }
  - { offsetInCU: 0x3E0FA, offset: 0x54B07, size: 0x8, addend: 0x0, symName: __ZN5folly7dynamicC1EOS0_, symObjAddr: 0x2BC0, symBinAddr: 0x100008250, symSize: 0x34 }
  - { offsetInCU: 0x3E12F, offset: 0x54B3C, size: 0x8, addend: 0x0, symName: __ZNSt3__119__hash_map_iteratorINS_15__hash_iteratorIPNS_11__hash_nodeINS_17__hash_value_typeIyNS_10shared_ptrIN5hf3fs17monitor_collector13WorkloadStatsEEEEEPvEEEEEppB8ue170006Ev, symObjAddr: 0x2BF4, symBinAddr: 0x100008284, symSize: 0x2C }
  - { offsetInCU: 0x3E155, offset: 0x54B62, size: 0x8, addend: 0x0, symName: __ZN5folly7dynamicC1Ei, symObjAddr: 0x2C20, symBinAddr: 0x1000082B0, symSize: 0x34 }
  - { offsetInCU: 0x3E18D, offset: 0x54B9A, size: 0x8, addend: 0x0, symName: __ZNSt3__113unordered_mapIyNS_10shared_ptrIN5hf3fs17monitor_collector13WorkloadStatsEEENS_4hashIyEENS_8equal_toIyEENS_9allocatorINS_4pairIKyS5_EEEEED1B8ue170006Ev, symObjAddr: 0x2C90, symBinAddr: 0x100008320, symSize: 0x2C }
  - { offsetInCU: 0x3E1B7, offset: 0x54BC4, size: 0x8, addend: 0x0, symName: __ZN5hf3fs17monitor_collector19MLWorkloadAnalytics19runWorkloadAnalysisEv, symObjAddr: 0x2CBC, symBinAddr: 0x10000834C, symSize: 0x104 }
  - { offsetInCU: 0x3E1EF, offset: 0x54BFC, size: 0x8, addend: 0x0, symName: __ZN5hf3fs17monitor_collector19MLWorkloadAnalytics20cleanupIdleWorkloadsEv, symObjAddr: 0x2DC0, symBinAddr: 0x100008450, symSize: 0x5D0 }
  - { offsetInCU: 0x3E429, offset: 0x54E36, size: 0x8, addend: 0x0, symName: __ZN5hf3fs17monitor_collector19MLWorkloadAnalytics16analyzeWorkloadsEv, symObjAddr: 0x3390, symBinAddr: 0x100008A20, symSize: 0x8A8 }
  - { offsetInCU: 0x3E6BE, offset: 0x550CB, size: 0x8, addend: 0x0, symName: __ZNK5hf3fs17monitor_collector19MLWorkloadAnalytics6Config21min_ops_for_detectionEv, symObjAddr: 0x3C80, symBinAddr: 0x100009310, symSize: 0x18 }
  - { offsetInCU: 0x3E6E4, offset: 0x550F1, size: 0x8, addend: 0x0, symName: __ZN5hf3fs17monitor_collector19MLWorkloadAnalytics18detectWorkloadTypeERKNSt3__110shared_ptrINS0_13WorkloadStatsEEE, symObjAddr: 0x3C98, symBinAddr: 0x100009328, symSize: 0x50C }
  - { offsetInCU: 0x3E824, offset: 0x55231, size: 0x8, addend: 0x0, symName: __ZN5hf3fs17monitor_collector19MLWorkloadAnalytics19detectFrameworkTypeERKNSt3__110shared_ptrINS0_13WorkloadStatsEEE, symObjAddr: 0x41A4, symBinAddr: 0x100009834, symSize: 0x530 }
  - { offsetInCU: 0x3E976, offset: 0x55383, size: 0x8, addend: 0x0, symName: __ZN5folly17ConcurrentHashMapIyNSt3__16vectorIN5hf3fs17monitor_collector15OperationRecordENS1_9allocatorIS5_EEEEE4findERKy, symObjAddr: 0x46D4, symBinAddr: 0x100009D64, symSize: 0x34 }
  - { offsetInCU: 0x3E9AA, offset: 0x553B7, size: 0x8, addend: 0x0, symName: __ZN5folly17ConcurrentHashMapIyNSt3__16vectorIN5hf3fs17monitor_collector15OperationRecordENS1_9allocatorIS5_EEEEE3endEv, symObjAddr: 0x4738, symBinAddr: 0x100009DC8, symSize: 0x2C }
  - { offsetInCU: 0x3E9D0, offset: 0x553DD, size: 0x8, addend: 0x0, symName: __ZNKSt3__119__hash_map_iteratorINS_15__hash_iteratorIPNS_11__hash_nodeINS_17__hash_value_typeIyNS_6vectorIN5hf3fs17monitor_collector15OperationRecordENS_9allocatorIS7_EEEEEEPvEEEEEptB8ue170006Ev, symObjAddr: 0x4764, symBinAddr: 0x100009DF4, symSize: 0x2C }
  - { offsetInCU: 0x3E9F6, offset: 0x55403, size: 0x8, addend: 0x0, symName: __ZNKSt3__16vectorIN5hf3fs17monitor_collector15OperationRecordENS_9allocatorIS3_EEE5emptyB8ue170006Ev, symObjAddr: 0x4790, symBinAddr: 0x100009E20, symSize: 0x28 }
  - { offsetInCU: 0x3EA1C, offset: 0x55429, size: 0x8, addend: 0x0, symName: __ZNSt3__16vectorIyNS_9allocatorIyEEEC1B8ue170006Ev, symObjAddr: 0x47B8, symBinAddr: 0x100009E48, symSize: 0x2C }
  - { offsetInCU: 0x3EA46, offset: 0x55453, size: 0x8, addend: 0x0, symName: __ZNSt3__16vectorIN5hf3fs17monitor_collector15OperationRecordENS_9allocatorIS3_EEE5beginB8ue170006Ev, symObjAddr: 0x47E4, symBinAddr: 0x100009E74, symSize: 0x30 }
  - { offsetInCU: 0x3EA6E, offset: 0x5547B, size: 0x8, addend: 0x0, symName: __ZNSt3__16vectorIN5hf3fs17monitor_collector15OperationRecordENS_9allocatorIS3_EEE3endB8ue170006Ev, symObjAddr: 0x4814, symBinAddr: 0x100009EA4, symSize: 0x30 }
  - { offsetInCU: 0x3EA96, offset: 0x554A3, size: 0x8, addend: 0x0, symName: __ZNKSt3__111__wrap_iterIPN5hf3fs17monitor_collector15OperationRecordEEdeB8ue170006Ev, symObjAddr: 0x4878, symBinAddr: 0x100009F08, symSize: 0x18 }
  - { offsetInCU: 0x3EABC, offset: 0x554C9, size: 0x8, addend: 0x0, symName: __ZNSt3__16vectorIyNS_9allocatorIyEEE9push_backB8ue170006ERKy, symObjAddr: 0x4890, symBinAddr: 0x100009F20, symSize: 0x6C }
  - { offsetInCU: 0x3EAF3, offset: 0x55500, size: 0x8, addend: 0x0, symName: __ZNSt3__111__wrap_iterIPN5hf3fs17monitor_collector15OperationRecordEEppB8ue170006Ev, symObjAddr: 0x48FC, symBinAddr: 0x100009F8C, symSize: 0x20 }
  - { offsetInCU: 0x3EB19, offset: 0x55526, size: 0x8, addend: 0x0, symName: __ZNKSt3__16vectorIyNS_9allocatorIyEEE4sizeB8ue170006Ev, symObjAddr: 0x491C, symBinAddr: 0x100009FAC, symSize: 0x28 }
  - { offsetInCU: 0x3EB3F, offset: 0x5554C, size: 0x8, addend: 0x0, symName: __ZNSt3__16vectorIyNS_9allocatorIyEEE9push_backB8ue170006EOy, symObjAddr: 0x4944, symBinAddr: 0x100009FD4, symSize: 0x6C }
  - { offsetInCU: 0x3EB76, offset: 0x55583, size: 0x8, addend: 0x0, symName: __ZNSt3__16vectorIyNS_9allocatorIyEEEixB8ue170006Em, symObjAddr: 0x49B0, symBinAddr: 0x10000A040, symSize: 0x24 }
  - { offsetInCU: 0x3EBAD, offset: 0x555BA, size: 0x8, addend: 0x0, symName: __ZNSt3__16vectorIyNS_9allocatorIyEEE5beginB8ue170006Ev, symObjAddr: 0x4A44, symBinAddr: 0x10000A0D4, symSize: 0x30 }
  - { offsetInCU: 0x3EBD5, offset: 0x555E2, size: 0x8, addend: 0x0, symName: __ZNSt3__16vectorIyNS_9allocatorIyEEE3endB8ue170006Ev, symObjAddr: 0x4A74, symBinAddr: 0x10000A104, symSize: 0x30 }
  - { offsetInCU: 0x3EBFD, offset: 0x5560A, size: 0x8, addend: 0x0, symName: __ZNKSt3__111__wrap_iterIPyEdeB8ue170006Ev, symObjAddr: 0x4AD8, symBinAddr: 0x10000A168, symSize: 0x18 }
  - { offsetInCU: 0x3EC23, offset: 0x55630, size: 0x8, addend: 0x0, symName: __Z3absB8ue170006x, symObjAddr: 0x4AF0, symBinAddr: 0x10000A180, symSize: 0x28 }
  - { offsetInCU: 0x3EC4F, offset: 0x5565C, size: 0x8, addend: 0x0, symName: __ZNSt3__111__wrap_iterIPyEppB8ue170006Ev, symObjAddr: 0x4B18, symBinAddr: 0x10000A1A8, symSize: 0x20 }
  - { offsetInCU: 0x3EC75, offset: 0x55682, size: 0x8, addend: 0x0, symName: __ZNSt3__16vectorIyNS_9allocatorIyEEED1B8ue170006Ev, symObjAddr: 0x4B38, symBinAddr: 0x10000A1C8, symSize: 0x2C }
  - { offsetInCU: 0x3EC9F, offset: 0x556AC, size: 0x8, addend: 0x0, symName: __ZNSt3__16vectorINS_4pairIyyEENS_9allocatorIS2_EEEC1B8ue170006Ev, symObjAddr: 0x4B64, symBinAddr: 0x10000A1F4, symSize: 0x2C }
  - { offsetInCU: 0x3ECC9, offset: 0x556D6, size: 0x8, addend: 0x0, symName: __ZNSt3__16vectorINS_4pairIyyEENS_9allocatorIS2_EEE12emplace_backIJRyS7_EEERS2_DpOT_, symObjAddr: 0x4B90, symBinAddr: 0x10000A220, symSize: 0x80 }
  - { offsetInCU: 0x3ED1F, offset: 0x5572C, size: 0x8, addend: 0x0, symName: __ZNKSt3__16vectorINS_4pairIyyEENS_9allocatorIS2_EEE4sizeB8ue170006Ev, symObjAddr: 0x4C10, symBinAddr: 0x10000A2A0, symSize: 0x28 }
  - { offsetInCU: 0x3ED45, offset: 0x55752, size: 0x8, addend: 0x0, symName: __ZNSt3__16vectorINS_4pairIyyEENS_9allocatorIS2_EEED1B8ue170006Ev, symObjAddr: 0x4C38, symBinAddr: 0x10000A2C8, symSize: 0x2C }
  - { offsetInCU: 0x3ED6F, offset: 0x5577C, size: 0x8, addend: 0x0, symName: __ZN5hf3fs17monitor_collector19MLWorkloadAnalytics14generateReportEv, symObjAddr: 0x4CBC, symBinAddr: 0x10000A2F4, symSize: 0x4F8 }
  - { offsetInCU: 0x3EEAE, offset: 0x558BB, size: 0x8, addend: 0x0, symName: __ZNKSt3__110shared_ptrIN5hf3fs17monitor_collector13WorkloadStatsEEdeB8ue170006Ev, symObjAddr: 0x51F4, symBinAddr: 0x10000A82C, symSize: 0x18 }
  - { offsetInCU: 0x3EED4, offset: 0x558E1, size: 0x8, addend: 0x0, symName: __ZNKSt3__16vectorINS_10shared_ptrIN5hf3fs17monitor_collector13WorkloadStatsEEENS_9allocatorIS5_EEE5emptyB8ue170006Ev, symObjAddr: 0x5238, symBinAddr: 0x10000A844, symSize: 0x28 }
  - { offsetInCU: 0x3EEFA, offset: 0x55907, size: 0x8, addend: 0x0, symName: __ZN5hf3fs17monitor_collector19MLWorkloadAnalytics18storeWorkloadStatsERKNSt3__16vectorINS2_10shared_ptrINS0_13WorkloadStatsEEENS2_9allocatorIS6_EEEE, symObjAddr: 0x5260, symBinAddr: 0x10000A86C, symSize: 0x74 }
  - { offsetInCU: 0x3EF32, offset: 0x5593F, size: 0x8, addend: 0x0, symName: __ZNK5hf3fs17monitor_collector19MLWorkloadAnalytics6Config23history_retention_hoursEv, symObjAddr: 0x52D4, symBinAddr: 0x10000A8E0, symSize: 0x18 }
  - { offsetInCU: 0x3EF58, offset: 0x55965, size: 0x8, addend: 0x0, symName: __ZNSt3__16vectorINS_10shared_ptrIN5hf3fs17monitor_collector13WorkloadStatsEEENS_9allocatorIS5_EEE5eraseENS_11__wrap_iterIPKS5_EESC_, symObjAddr: 0x52EC, symBinAddr: 0x10000A8F8, symSize: 0xD0 }
  - { offsetInCU: 0x3EFB2, offset: 0x559BF, size: 0x8, addend: 0x0, symName: __ZNSt3__111__wrap_iterIPKNS_10shared_ptrIN5hf3fs17monitor_collector13WorkloadStatsEEEEC1B8ue170006IPS5_EERKNS0_IT_EEPNS_9enable_ifIXsr14is_convertibleISB_S7_EE5valueEvE4typeE, symObjAddr: 0x54B8, symBinAddr: 0x10000AAC4, symSize: 0x3C }
  - { offsetInCU: 0x3EFFE, offset: 0x55A0B, size: 0x8, addend: 0x0, symName: __ZNK5folly17ConcurrentHashMapIyNSt3__110shared_ptrIN5hf3fs17monitor_collector13WorkloadStatsEEEE4sizeEv, symObjAddr: 0x54F4, symBinAddr: 0x10000AB00, symSize: 0x24 }
  - { offsetInCU: 0x3F024, offset: 0x55A31, size: 0x8, addend: 0x0, symName: __ZNKSt3__16vectorINS_10shared_ptrIN5hf3fs17monitor_collector13WorkloadStatsEEENS_9allocatorIS5_EEE4sizeB8ue170006Ev, symObjAddr: 0x5518, symBinAddr: 0x10000AB24, symSize: 0x28 }
  - { offsetInCU: 0x3F04A, offset: 0x55A57, size: 0x8, addend: 0x0, symName: __ZNKSt3__112basic_stringIcNS_11char_traitsIcEENS_9allocatorIcEEE4findB8ue170006EPKcm, symObjAddr: 0x55EC, symBinAddr: 0x10000ABF8, symSize: 0x74 }
  - { offsetInCU: 0x3F090, offset: 0x55A9D, size: 0x8, addend: 0x0, symName: __ZN5hf3fs17monitor_collector19MLWorkloadAnalytics20hasCheckpointPatternERKNSt3__110shared_ptrINS0_13WorkloadStatsEEE, symObjAddr: 0x5660, symBinAddr: 0x10000AC6C, symSize: 0x3C8 }
  - { offsetInCU: 0x3F210, offset: 0x55C1D, size: 0x8, addend: 0x0, symName: __ZNKSt3__16vectorIN5hf3fs17monitor_collector15OperationRecordENS_9allocatorIS3_EEE5beginB8ue170006Ev, symObjAddr: 0x5A58, symBinAddr: 0x10000B064, symSize: 0x30 }
  - { offsetInCU: 0x3F238, offset: 0x55C45, size: 0x8, addend: 0x0, symName: __ZNKSt3__16vectorIN5hf3fs17monitor_collector15OperationRecordENS_9allocatorIS3_EEE3endB8ue170006Ev, symObjAddr: 0x5A88, symBinAddr: 0x10000B094, symSize: 0x30 }
  - { offsetInCU: 0x3F260, offset: 0x55C6D, size: 0x8, addend: 0x0, symName: __ZNKSt3__111__wrap_iterIPKN5hf3fs17monitor_collector15OperationRecordEEdeB8ue170006Ev, symObjAddr: 0x5AEC, symBinAddr: 0x10000B0F8, symSize: 0x18 }
  - { offsetInCU: 0x3F286, offset: 0x55C93, size: 0x8, addend: 0x0, symName: __ZNSt3__111__wrap_iterIPKN5hf3fs17monitor_collector15OperationRecordEEppB8ue170006Ev, symObjAddr: 0x5B04, symBinAddr: 0x10000B110, symSize: 0x20 }
  - { offsetInCU: 0x3F2AC, offset: 0x55CB9, size: 0x8, addend: 0x0, symName: __ZNSt3__112basic_stringIcNS_11char_traitsIcEENS_9allocatorIcEEE5beginB8ue170006Ev, symObjAddr: 0x5BBC, symBinAddr: 0x10000B1C8, symSize: 0x4C }
  - { offsetInCU: 0x3F2D2, offset: 0x55CDF, size: 0x8, addend: 0x0, symName: __ZNSt3__112basic_stringIcNS_11char_traitsIcEENS_9allocatorIcEEE3endB8ue170006Ev, symObjAddr: 0x5C08, symBinAddr: 0x10000B214, symSize: 0x54 }
  - { offsetInCU: 0x3F2F8, offset: 0x55D05, size: 0x8, addend: 0x0, symName: __ZNK5hf3fs17monitor_collector19MLWorkloadAnalytics6Config24workload_idle_timeout_msEv, symObjAddr: 0x5CD0, symBinAddr: 0x10000B2DC, symSize: 0x18 }
  - { offsetInCU: 0x3F31E, offset: 0x55D2B, size: 0x8, addend: 0x0, symName: __ZN5folly17ConcurrentHashMapIyNSt3__110shared_ptrIN5hf3fs17monitor_collector13WorkloadStatsEEEE5eraseERKy, symObjAddr: 0x5CE8, symBinAddr: 0x10000B2F4, symSize: 0x2C }
  - { offsetInCU: 0x3F352, offset: 0x55D5F, size: 0x8, addend: 0x0, symName: __ZN5folly17ConcurrentHashMapIyNSt3__16vectorIN5hf3fs17monitor_collector15OperationRecordENS1_9allocatorIS5_EEEEE5eraseERKy, symObjAddr: 0x5D14, symBinAddr: 0x10000B320, symSize: 0x2C }
  - { offsetInCU: 0x3F386, offset: 0x55D93, size: 0x8, addend: 0x0, symName: __ZNK5hf3fs17monitor_collector19MLWorkloadAnalytics6Config22max_workloads_to_trackEv, symObjAddr: 0x5D40, symBinAddr: 0x10000B34C, symSize: 0x18 }
  - { offsetInCU: 0x3F3B2, offset: 0x55DBF, size: 0x8, addend: 0x0, symName: __ZNSt3__16vectorINS_4pairIyyEENS_9allocatorIS2_EEE12emplace_backIJRKyyEEERS2_DpOT_, symObjAddr: 0x5D58, symBinAddr: 0x10000B364, symSize: 0x80 }
  - { offsetInCU: 0x3F408, offset: 0x55E15, size: 0x8, addend: 0x0, symName: __ZNSt3__16vectorINS_4pairIyyEENS_9allocatorIS2_EEE5beginB8ue170006Ev, symObjAddr: 0x5E18, symBinAddr: 0x10000B424, symSize: 0x30 }
  - { offsetInCU: 0x3F430, offset: 0x55E3D, size: 0x8, addend: 0x0, symName: __ZNSt3__16vectorINS_4pairIyyEENS_9allocatorIS2_EEE3endB8ue170006Ev, symObjAddr: 0x5E48, symBinAddr: 0x10000B454, symSize: 0x30 }
  - { offsetInCU: 0x3F458, offset: 0x55E65, size: 0x8, addend: 0x0, symName: __ZNSt3__16vectorINS_4pairIyyEENS_9allocatorIS2_EEEixB8ue170006Em, symObjAddr: 0x5E78, symBinAddr: 0x10000B484, symSize: 0x24 }
  - { offsetInCU: 0x3F48F, offset: 0x55E9C, size: 0x8, addend: 0x0, symName: __ZN5folly7dynamicC2Ev, symObjAddr: 0x5E9C, symBinAddr: 0x10000B4A8, symSize: 0x5C }
  - { offsetInCU: 0x3F4B9, offset: 0x55EC6, size: 0x8, addend: 0x0, symName: __ZNSt3__113unordered_mapINS_12basic_stringIcNS_11char_traitsIcEENS_9allocatorIcEEEEN5folly7dynamicENS_4hashIS6_EENS_8equal_toIS6_EENS4_INS_4pairIKS6_S8_EEEEEC1B8ue170006Ev, symObjAddr: 0x5EF8, symBinAddr: 0x10000B504, symSize: 0x2C }
  - { offsetInCU: 0x3F4E3, offset: 0x55EF0, size: 0x8, addend: 0x0, symName: __ZNSt3__16vectorIN5folly7dynamicENS_9allocatorIS2_EEEC1B8ue170006Ev, symObjAddr: 0x5F24, symBinAddr: 0x10000B530, symSize: 0x2C }
  - { offsetInCU: 0x3F50D, offset: 0x55F1A, size: 0x8, addend: 0x0, symName: __ZNSt3__113unordered_mapINS_12basic_stringIcNS_11char_traitsIcEENS_9allocatorIcEEEEN5folly7dynamicENS_4hashIS6_EENS_8equal_toIS6_EENS4_INS_4pairIKS6_S8_EEEEEC2B8ue170006Ev, symObjAddr: 0x5F50, symBinAddr: 0x10000B55C, symSize: 0x2C }
  - { offsetInCU: 0x3F537, offset: 0x55F44, size: 0x8, addend: 0x0, symName: __ZNSt3__112__hash_tableINS_17__hash_value_typeINS_12basic_stringIcNS_11char_traitsIcEENS_9allocatorIcEEEEN5folly7dynamicEEENS_22__unordered_map_hasherIS7_SA_NS_4hashIS7_EENS_8equal_toIS7_EELb1EEENS_21__unordered_map_equalIS7_SA_SF_SD_Lb1EEENS5_ISA_EEEC1Ev, symObjAddr: 0x5F7C, symBinAddr: 0x10000B588, symSize: 0x2C }
  - { offsetInCU: 0x3F563, offset: 0x55F70, size: 0x8, addend: 0x0, symName: __ZNSt3__112__hash_tableINS_17__hash_value_typeINS_12basic_stringIcNS_11char_traitsIcEENS_9allocatorIcEEEEN5folly7dynamicEEENS_22__unordered_map_hasherIS7_SA_NS_4hashIS7_EENS_8equal_toIS7_EELb1EEENS_21__unordered_map_equalIS7_SA_SF_SD_Lb1EEENS5_ISA_EEEC2Ev, symObjAddr: 0x5FA8, symBinAddr: 0x10000B5B4, symSize: 0x7C }
  - { offsetInCU: 0x3F58F, offset: 0x55F9C, size: 0x8, addend: 0x0, symName: __ZNSt3__110unique_ptrIA_PNS_16__hash_node_baseIPNS_11__hash_nodeINS_17__hash_value_typeINS_12basic_stringIcNS_11char_traitsIcEENS_9allocatorIcEEEEN5folly7dynamicEEEPvEEEENS_25__bucket_list_deallocatorINS7_ISH_EEEEEC1B8ue170006ILb1EvEEv, symObjAddr: 0x6024, symBinAddr: 0x10000B630, symSize: 0x2C }
  - { offsetInCU: 0x3F5C4, offset: 0x55FD1, size: 0x8, addend: 0x0, symName: __ZNSt3__117__compressed_pairINS_16__hash_node_baseIPNS_11__hash_nodeINS_17__hash_value_typeINS_12basic_stringIcNS_11char_traitsIcEENS_9allocatorIcEEEEN5folly7dynamicEEEPvEEEENS7_ISE_EEEC1B8ue170006ILb1EvEEv, symObjAddr: 0x6050, symBinAddr: 0x10000B65C, symSize: 0x2C }
  - { offsetInCU: 0x3F605, offset: 0x56012, size: 0x8, addend: 0x0, symName: __ZNSt3__117__compressed_pairImNS_22__unordered_map_hasherINS_12basic_stringIcNS_11char_traitsIcEENS_9allocatorIcEEEENS_17__hash_value_typeIS7_N5folly7dynamicEEENS_4hashIS7_EENS_8equal_toIS7_EELb1EEEEC1B8ue170006IiNS_18__default_init_tagEEEOT_OT0_, symObjAddr: 0x607C, symBinAddr: 0x10000B688, symSize: 0x3C }
  - { offsetInCU: 0x3F663, offset: 0x56070, size: 0x8, addend: 0x0, symName: __ZNSt3__117__compressed_pairIfNS_21__unordered_map_equalINS_12basic_stringIcNS_11char_traitsIcEENS_9allocatorIcEEEENS_17__hash_value_typeIS7_N5folly7dynamicEEENS_8equal_toIS7_EENS_4hashIS7_EELb1EEEEC1B8ue170006IfNS_18__default_init_tagEEEOT_OT0_, symObjAddr: 0x60B8, symBinAddr: 0x10000B6C4, symSize: 0x3C }
  - { offsetInCU: 0x3F6BB, offset: 0x560C8, size: 0x8, addend: 0x0, symName: __ZNSt3__110unique_ptrIA_PNS_16__hash_node_baseIPNS_11__hash_nodeINS_17__hash_value_typeINS_12basic_stringIcNS_11char_traitsIcEENS_9allocatorIcEEEEN5folly7dynamicEEEPvEEEENS_25__bucket_list_deallocatorINS7_ISH_EEEEEC2B8ue170006ILb1EvEEv, symObjAddr: 0x60F4, symBinAddr: 0x10000B700, symSize: 0x3C }
  - { offsetInCU: 0x3F6F6, offset: 0x56103, size: 0x8, addend: 0x0, symName: __ZNSt3__117__compressed_pairIPPNS_16__hash_node_baseIPNS_11__hash_nodeINS_17__hash_value_typeINS_12basic_stringIcNS_11char_traitsIcEENS_9allocatorIcEEEEN5folly7dynamicEEEPvEEEENS_25__bucket_list_deallocatorINS7_ISH_EEEEEC1B8ue170006INS_16__value_init_tagESO_EEOT_OT0_, symObjAddr: 0x6130, symBinAddr: 0x10000B73C, symSize: 0x3C }
  - { offsetInCU: 0x3F74E, offset: 0x5615B, size: 0x8, addend: 0x0, symName: __ZNSt3__117__compressed_pairIPPNS_16__hash_node_baseIPNS_11__hash_nodeINS_17__hash_value_typeINS_12basic_stringIcNS_11char_traitsIcEENS_9allocatorIcEEEEN5folly7dynamicEEEPvEEEENS_25__bucket_list_deallocatorINS7_ISH_EEEEEC2B8ue170006INS_16__value_init_tagESO_EEOT_OT0_, symObjAddr: 0x616C, symBinAddr: 0x10000B778, symSize: 0x40 }
  - { offsetInCU: 0x3F7A6, offset: 0x561B3, size: 0x8, addend: 0x0, symName: __ZNSt3__122__compressed_pair_elemIPPNS_16__hash_node_baseIPNS_11__hash_nodeINS_17__hash_value_typeINS_12basic_stringIcNS_11char_traitsIcEENS_9allocatorIcEEEEN5folly7dynamicEEEPvEEEELi0ELb0EEC2B8ue170006ENS_16__value_init_tagE, symObjAddr: 0x61AC, symBinAddr: 0x10000B7B8, symSize: 0x18 }
  - { offsetInCU: 0x3F7DB, offset: 0x561E8, size: 0x8, addend: 0x0, symName: __ZNSt3__122__compressed_pair_elemINS_25__bucket_list_deallocatorINS_9allocatorIPNS_16__hash_node_baseIPNS_11__hash_nodeINS_17__hash_value_typeINS_12basic_stringIcNS_11char_traitsIcEENS2_IcEEEEN5folly7dynamicEEEPvEEEEEEEELi1ELb0EEC2B8ue170006ENS_16__value_init_tagE, symObjAddr: 0x61C4, symBinAddr: 0x10000B7D0, symSize: 0x2C }
  - { offsetInCU: 0x3F810, offset: 0x5621D, size: 0x8, addend: 0x0, symName: __ZNSt3__125__bucket_list_deallocatorINS_9allocatorIPNS_16__hash_node_baseIPNS_11__hash_nodeINS_17__hash_value_typeINS_12basic_stringIcNS_11char_traitsIcEENS1_IcEEEEN5folly7dynamicEEEPvEEEEEEEC1B8ue170006Ev, symObjAddr: 0x61F0, symBinAddr: 0x10000B7FC, symSize: 0x2C }
  - { offsetInCU: 0x3F83A, offset: 0x56247, size: 0x8, addend: 0x0, symName: __ZNSt3__125__bucket_list_deallocatorINS_9allocatorIPNS_16__hash_node_baseIPNS_11__hash_nodeINS_17__hash_value_typeINS_12basic_stringIcNS_11char_traitsIcEENS1_IcEEEEN5folly7dynamicEEEPvEEEEEEEC2B8ue170006Ev, symObjAddr: 0x621C, symBinAddr: 0x10000B828, symSize: 0x40 }
  - { offsetInCU: 0x3F864, offset: 0x56271, size: 0x8, addend: 0x0, symName: __ZNSt3__117__compressed_pairImNS_9allocatorIPNS_16__hash_node_baseIPNS_11__hash_nodeINS_17__hash_value_typeINS_12basic_stringIcNS_11char_traitsIcEENS1_IcEEEEN5folly7dynamicEEEPvEEEEEEEC1B8ue170006IiNS_18__default_init_tagEEEOT_OT0_, symObjAddr: 0x625C, symBinAddr: 0x10000B868, symSize: 0x3C }
  - { offsetInCU: 0x3F8BC, offset: 0x562C9, size: 0x8, addend: 0x0, symName: __ZNSt3__117__compressed_pairImNS_9allocatorIPNS_16__hash_node_baseIPNS_11__hash_nodeINS_17__hash_value_typeINS_12basic_stringIcNS_11char_traitsIcEENS1_IcEEEEN5folly7dynamicEEEPvEEEEEEEC2B8ue170006IiNS_18__default_init_tagEEEOT_OT0_, symObjAddr: 0x6298, symBinAddr: 0x10000B8A4, symSize: 0x40 }
  - { offsetInCU: 0x3F914, offset: 0x56321, size: 0x8, addend: 0x0, symName: __ZNSt3__122__compressed_pair_elemImLi0ELb0EEC2B8ue170006IivEEOT_, symObjAddr: 0x62D8, symBinAddr: 0x10000B8E4, symSize: 0x24 }
  - { offsetInCU: 0x3F956, offset: 0x56363, size: 0x8, addend: 0x0, symName: __ZNSt3__122__compressed_pair_elemINS_9allocatorIPNS_16__hash_node_baseIPNS_11__hash_nodeINS_17__hash_value_typeINS_12basic_stringIcNS_11char_traitsIcEENS1_IcEEEEN5folly7dynamicEEEPvEEEEEELi1ELb1EEC2B8ue170006ENS_18__default_init_tagE, symObjAddr: 0x62FC, symBinAddr: 0x10000B908, symSize: 0x2C }
  - { offsetInCU: 0x3F98B, offset: 0x56398, size: 0x8, addend: 0x0, symName: __ZNSt3__19allocatorIPNS_16__hash_node_baseIPNS_11__hash_nodeINS_17__hash_value_typeINS_12basic_stringIcNS_11char_traitsIcEENS0_IcEEEEN5folly7dynamicEEEPvEEEEEC2B8ue170006Ev, symObjAddr: 0x6328, symBinAddr: 0x10000B934, symSize: 0x2C }
  - { offsetInCU: 0x3F9B5, offset: 0x563C2, size: 0x8, addend: 0x0, symName: __ZNSt3__116__non_trivial_ifILb1ENS_9allocatorIPNS_16__hash_node_baseIPNS_11__hash_nodeINS_17__hash_value_typeINS_12basic_stringIcNS_11char_traitsIcEENS1_IcEEEEN5folly7dynamicEEEPvEEEEEEEC2B8ue170006Ev, symObjAddr: 0x6354, symBinAddr: 0x10000B960, symSize: 0x14 }
  - { offsetInCU: 0x3F9DF, offset: 0x563EC, size: 0x8, addend: 0x0, symName: __ZNSt3__117__compressed_pairINS_16__hash_node_baseIPNS_11__hash_nodeINS_17__hash_value_typeINS_12basic_stringIcNS_11char_traitsIcEENS_9allocatorIcEEEEN5folly7dynamicEEEPvEEEENS7_ISE_EEEC2B8ue170006ILb1EvEEv, symObjAddr: 0x6368, symBinAddr: 0x10000B974, symSize: 0x34 }
  - { offsetInCU: 0x3FA14, offset: 0x56421, size: 0x8, addend: 0x0, symName: __ZNSt3__122__compressed_pair_elemINS_16__hash_node_baseIPNS_11__hash_nodeINS_17__hash_value_typeINS_12basic_stringIcNS_11char_traitsIcEENS_9allocatorIcEEEEN5folly7dynamicEEEPvEEEELi0ELb0EEC2B8ue170006ENS_16__value_init_tagE, symObjAddr: 0x639C, symBinAddr: 0x10000B9A8, symSize: 0x2C }
  - { offsetInCU: 0x3FA49, offset: 0x56456, size: 0x8, addend: 0x0, symName: __ZNSt3__122__compressed_pair_elemINS_9allocatorINS_11__hash_nodeINS_17__hash_value_typeINS_12basic_stringIcNS_11char_traitsIcEENS1_IcEEEEN5folly7dynamicEEEPvEEEELi1ELb1EEC2B8ue170006ENS_16__value_init_tagE, symObjAddr: 0x63C8, symBinAddr: 0x10000B9D4, symSize: 0x2C }
  - { offsetInCU: 0x3FA7E, offset: 0x5648B, size: 0x8, addend: 0x0, symName: __ZNSt3__116__hash_node_baseIPNS_11__hash_nodeINS_17__hash_value_typeINS_12basic_stringIcNS_11char_traitsIcEENS_9allocatorIcEEEEN5folly7dynamicEEEPvEEEC1B8ue170006Ev, symObjAddr: 0x63F4, symBinAddr: 0x10000BA00, symSize: 0x2C }
  - { offsetInCU: 0x3FAA8, offset: 0x564B5, size: 0x8, addend: 0x0, symName: __ZNSt3__116__hash_node_baseIPNS_11__hash_nodeINS_17__hash_value_typeINS_12basic_stringIcNS_11char_traitsIcEENS_9allocatorIcEEEEN5folly7dynamicEEEPvEEEC2B8ue170006Ev, symObjAddr: 0x6420, symBinAddr: 0x10000BA2C, symSize: 0x18 }
  - { offsetInCU: 0x3FAD2, offset: 0x564DF, size: 0x8, addend: 0x0, symName: __ZNSt3__19allocatorINS_11__hash_nodeINS_17__hash_value_typeINS_12basic_stringIcNS_11char_traitsIcEENS0_IcEEEEN5folly7dynamicEEEPvEEEC2B8ue170006Ev, symObjAddr: 0x6438, symBinAddr: 0x10000BA44, symSize: 0x2C }
  - { offsetInCU: 0x3FAFC, offset: 0x56509, size: 0x8, addend: 0x0, symName: __ZNSt3__116__non_trivial_ifILb1ENS_9allocatorINS_11__hash_nodeINS_17__hash_value_typeINS_12basic_stringIcNS_11char_traitsIcEENS1_IcEEEEN5folly7dynamicEEEPvEEEEEC2B8ue170006Ev, symObjAddr: 0x6464, symBinAddr: 0x10000BA70, symSize: 0x14 }
  - { offsetInCU: 0x3FB26, offset: 0x56533, size: 0x8, addend: 0x0, symName: __ZNSt3__117__compressed_pairImNS_22__unordered_map_hasherINS_12basic_stringIcNS_11char_traitsIcEENS_9allocatorIcEEEENS_17__hash_value_typeIS7_N5folly7dynamicEEENS_4hashIS7_EENS_8equal_toIS7_EELb1EEEEC2B8ue170006IiNS_18__default_init_tagEEEOT_OT0_, symObjAddr: 0x6478, symBinAddr: 0x10000BA84, symSize: 0x40 }
  - { offsetInCU: 0x3FB7E, offset: 0x5658B, size: 0x8, addend: 0x0, symName: __ZNSt3__122__compressed_pair_elemINS_22__unordered_map_hasherINS_12basic_stringIcNS_11char_traitsIcEENS_9allocatorIcEEEENS_17__hash_value_typeIS7_N5folly7dynamicEEENS_4hashIS7_EENS_8equal_toIS7_EELb1EEELi1ELb1EEC2B8ue170006ENS_18__default_init_tagE, symObjAddr: 0x64B8, symBinAddr: 0x10000BAC4, symSize: 0x2C }
  - { offsetInCU: 0x3FBB3, offset: 0x565C0, size: 0x8, addend: 0x0, symName: __ZNSt3__122__unordered_map_hasherINS_12basic_stringIcNS_11char_traitsIcEENS_9allocatorIcEEEENS_17__hash_value_typeIS6_N5folly7dynamicEEENS_4hashIS6_EENS_8equal_toIS6_EELb1EEC2B8ue170006Ev, symObjAddr: 0x64E4, symBinAddr: 0x10000BAF0, symSize: 0x14 }
  - { offsetInCU: 0x3FBDD, offset: 0x565EA, size: 0x8, addend: 0x0, symName: __ZNSt3__117__compressed_pairIfNS_21__unordered_map_equalINS_12basic_stringIcNS_11char_traitsIcEENS_9allocatorIcEEEENS_17__hash_value_typeIS7_N5folly7dynamicEEENS_8equal_toIS7_EENS_4hashIS7_EELb1EEEEC2B8ue170006IfNS_18__default_init_tagEEEOT_OT0_, symObjAddr: 0x64F8, symBinAddr: 0x10000BB04, symSize: 0x40 }
  - { offsetInCU: 0x3FC35, offset: 0x56642, size: 0x8, addend: 0x0, symName: __ZNSt3__122__compressed_pair_elemIfLi0ELb0EEC2B8ue170006IfvEEOT_, symObjAddr: 0x6538, symBinAddr: 0x10000BB44, symSize: 0x24 }
  - { offsetInCU: 0x3FC77, offset: 0x56684, size: 0x8, addend: 0x0, symName: __ZNSt3__122__compressed_pair_elemINS_21__unordered_map_equalINS_12basic_stringIcNS_11char_traitsIcEENS_9allocatorIcEEEENS_17__hash_value_typeIS7_N5folly7dynamicEEENS_8equal_toIS7_EENS_4hashIS7_EELb1EEELi1ELb1EEC2B8ue170006ENS_18__default_init_tagE, symObjAddr: 0x655C, symBinAddr: 0x10000BB68, symSize: 0x2C }
  - { offsetInCU: 0x3FCAC, offset: 0x566B9, size: 0x8, addend: 0x0, symName: __ZNSt3__121__unordered_map_equalINS_12basic_stringIcNS_11char_traitsIcEENS_9allocatorIcEEEENS_17__hash_value_typeIS6_N5folly7dynamicEEENS_8equal_toIS6_EENS_4hashIS6_EELb1EEC2B8ue170006Ev, symObjAddr: 0x6588, symBinAddr: 0x10000BB94, symSize: 0x14 }
  - { offsetInCU: 0x3FCD6, offset: 0x566E3, size: 0x8, addend: 0x0, symName: __ZNSt3__16vectorIN5folly7dynamicENS_9allocatorIS2_EEEC2B8ue170006Ev, symObjAddr: 0x659C, symBinAddr: 0x10000BBA8, symSize: 0x4C }
  - { offsetInCU: 0x3FD06, offset: 0x56713, size: 0x8, addend: 0x0, symName: __ZNSt3__117__compressed_pairIPN5folly7dynamicENS_9allocatorIS2_EEEC1B8ue170006IDnNS_18__default_init_tagEEEOT_OT0_, symObjAddr: 0x65E8, symBinAddr: 0x10000BBF4, symSize: 0x3C }
  - { offsetInCU: 0x3FD5E, offset: 0x5676B, size: 0x8, addend: 0x0, symName: __ZNSt3__117__compressed_pairIPN5folly7dynamicENS_9allocatorIS2_EEEC2B8ue170006IDnNS_18__default_init_tagEEEOT_OT0_, symObjAddr: 0x6624, symBinAddr: 0x10000BC30, symSize: 0x40 }
  - { offsetInCU: 0x3FDB6, offset: 0x567C3, size: 0x8, addend: 0x0, symName: __ZNSt3__122__compressed_pair_elemIPN5folly7dynamicELi0ELb0EEC2B8ue170006IDnvEEOT_, symObjAddr: 0x6664, symBinAddr: 0x10000BC70, symSize: 0x1C }
  - { offsetInCU: 0x3FDF8, offset: 0x56805, size: 0x8, addend: 0x0, symName: __ZNSt3__122__compressed_pair_elemINS_9allocatorIN5folly7dynamicEEELi1ELb1EEC2B8ue170006ENS_18__default_init_tagE, symObjAddr: 0x6680, symBinAddr: 0x10000BC8C, symSize: 0x2C }
  - { offsetInCU: 0x3FE2D, offset: 0x5683A, size: 0x8, addend: 0x0, symName: __ZNSt3__19allocatorIN5folly7dynamicEEC2B8ue170006Ev, symObjAddr: 0x66AC, symBinAddr: 0x10000BCB8, symSize: 0x2C }
  - { offsetInCU: 0x3FE57, offset: 0x56864, size: 0x8, addend: 0x0, symName: __ZNSt3__116__non_trivial_ifILb1ENS_9allocatorIN5folly7dynamicEEEEC2B8ue170006Ev, symObjAddr: 0x66D8, symBinAddr: 0x10000BCE4, symSize: 0x14 }
  - { offsetInCU: 0x3FE81, offset: 0x5688E, size: 0x8, addend: 0x0, symName: __ZN5folly7dynamicD2Ev, symObjAddr: 0x66EC, symBinAddr: 0x10000BCF8, symSize: 0x48 }
  - { offsetInCU: 0x3FEAD, offset: 0x568BA, size: 0x8, addend: 0x0, symName: __ZNSt3__16vectorIN5folly7dynamicENS_9allocatorIS2_EEED1B8ue170006Ev, symObjAddr: 0x6734, symBinAddr: 0x10000BD40, symSize: 0x2C }
  - { offsetInCU: 0x3FED7, offset: 0x568E4, size: 0x8, addend: 0x0, symName: __ZNSt3__113unordered_mapINS_12basic_stringIcNS_11char_traitsIcEENS_9allocatorIcEEEEN5folly7dynamicENS_4hashIS6_EENS_8equal_toIS6_EENS4_INS_4pairIKS6_S8_EEEEED1B8ue170006Ev, symObjAddr: 0x6760, symBinAddr: 0x10000BD6C, symSize: 0x2C }
  - { offsetInCU: 0x3FF01, offset: 0x5690E, size: 0x8, addend: 0x0, symName: __ZNSt3__16vectorIN5folly7dynamicENS_9allocatorIS2_EEED2B8ue170006Ev, symObjAddr: 0x678C, symBinAddr: 0x10000BD98, symSize: 0x44 }
  - { offsetInCU: 0x3FF2B, offset: 0x56938, size: 0x8, addend: 0x0, symName: __ZNSt3__16vectorIN5folly7dynamicENS_9allocatorIS2_EEE16__destroy_vectorC1B8ue170006ERS5_, symObjAddr: 0x67D0, symBinAddr: 0x10000BDDC, symSize: 0x34 }
  - { offsetInCU: 0x3FF64, offset: 0x56971, size: 0x8, addend: 0x0, symName: __ZNSt3__16vectorIN5folly7dynamicENS_9allocatorIS2_EEE16__destroy_vectorclB8ue170006Ev, symObjAddr: 0x6804, symBinAddr: 0x10000BE10, symSize: 0x90 }
  - { offsetInCU: 0x3FF8A, offset: 0x56997, size: 0x8, addend: 0x0, symName: __ZNSt3__16vectorIN5folly7dynamicENS_9allocatorIS2_EEE16__destroy_vectorC2B8ue170006ERS5_, symObjAddr: 0x6894, symBinAddr: 0x10000BEA0, symSize: 0x20 }
  - { offsetInCU: 0x3FFC3, offset: 0x569D0, size: 0x8, addend: 0x0, symName: __ZNSt3__16vectorIN5folly7dynamicENS_9allocatorIS2_EEE7__clearB8ue170006Ev, symObjAddr: 0x68B4, symBinAddr: 0x10000BEC0, symSize: 0x28 }
  - { offsetInCU: 0x3FFE9, offset: 0x569F6, size: 0x8, addend: 0x0, symName: __ZNKSt3__16vectorIN5folly7dynamicENS_9allocatorIS2_EEE17__annotate_deleteB8ue170006Ev, symObjAddr: 0x68DC, symBinAddr: 0x10000BEE8, symSize: 0xD4 }
  - { offsetInCU: 0x4000F, offset: 0x56A1C, size: 0x8, addend: 0x0, symName: __ZNSt3__116allocator_traitsINS_9allocatorIN5folly7dynamicEEEE10deallocateB8ue170006ERS4_PS3_m, symObjAddr: 0x69B0, symBinAddr: 0x10000BFBC, symSize: 0x34 }
  - { offsetInCU: 0x40051, offset: 0x56A5E, size: 0x8, addend: 0x0, symName: __ZNSt3__16vectorIN5folly7dynamicENS_9allocatorIS2_EEE7__allocB8ue170006Ev, symObjAddr: 0x69E4, symBinAddr: 0x10000BFF0, symSize: 0x28 }
  - { offsetInCU: 0x40077, offset: 0x56A84, size: 0x8, addend: 0x0, symName: __ZNKSt3__16vectorIN5folly7dynamicENS_9allocatorIS2_EEE8capacityB8ue170006Ev, symObjAddr: 0x6A0C, symBinAddr: 0x10000C018, symSize: 0x40 }
  - { offsetInCU: 0x4009D, offset: 0x56AAA, size: 0x8, addend: 0x0, symName: __ZNSt3__16vectorIN5folly7dynamicENS_9allocatorIS2_EEE22__base_destruct_at_endB8ue170006EPS2_, symObjAddr: 0x6A4C, symBinAddr: 0x10000C058, symSize: 0x8C }
  - { offsetInCU: 0x400E1, offset: 0x56AEE, size: 0x8, addend: 0x0, symName: __ZNSt3__116allocator_traitsINS_9allocatorIN5folly7dynamicEEEE7destroyB8ue170006IS3_vEEvRS4_PT_, symObjAddr: 0x6AD8, symBinAddr: 0x10000C0E4, symSize: 0x2C }
  - { offsetInCU: 0x4011E, offset: 0x56B2B, size: 0x8, addend: 0x0, symName: __ZNSt3__19allocatorIN5folly7dynamicEE7destroyB8ue170006EPS2_, symObjAddr: 0x6B18, symBinAddr: 0x10000C124, symSize: 0x28 }
  - { offsetInCU: 0x40152, offset: 0x56B5F, size: 0x8, addend: 0x0, symName: __ZNKSt3__16vectorIN5folly7dynamicENS_9allocatorIS2_EEE31__annotate_contiguous_containerB8ue170006EPKvS7_S7_S7_, symObjAddr: 0x6B40, symBinAddr: 0x10000C14C, symSize: 0x20 }
  - { offsetInCU: 0x401A8, offset: 0x56BB5, size: 0x8, addend: 0x0, symName: __ZNKSt3__16vectorIN5folly7dynamicENS_9allocatorIS2_EEE4dataB8ue170006Ev, symObjAddr: 0x6B60, symBinAddr: 0x10000C16C, symSize: 0x28 }
  - { offsetInCU: 0x401CE, offset: 0x56BDB, size: 0x8, addend: 0x0, symName: __ZNKSt3__16vectorIN5folly7dynamicENS_9allocatorIS2_EEE4sizeB8ue170006Ev, symObjAddr: 0x6B88, symBinAddr: 0x10000C194, symSize: 0x28 }
  - { offsetInCU: 0x401F4, offset: 0x56C01, size: 0x8, addend: 0x0, symName: __ZNSt3__19allocatorIN5folly7dynamicEE10deallocateB8ue170006EPS2_m, symObjAddr: 0x6BB0, symBinAddr: 0x10000C1BC, symSize: 0x44 }
  - { offsetInCU: 0x40236, offset: 0x56C43, size: 0x8, addend: 0x0, symName: __ZNSt3__117__compressed_pairIPN5folly7dynamicENS_9allocatorIS2_EEE6secondB8ue170006Ev, symObjAddr: 0x6D1C, symBinAddr: 0x10000C200, symSize: 0x24 }
  - { offsetInCU: 0x4025C, offset: 0x56C69, size: 0x8, addend: 0x0, symName: __ZNSt3__122__compressed_pair_elemINS_9allocatorIN5folly7dynamicEEELi1ELb1EE5__getB8ue170006Ev, symObjAddr: 0x6D40, symBinAddr: 0x10000C224, symSize: 0x14 }
  - { offsetInCU: 0x40282, offset: 0x56C8F, size: 0x8, addend: 0x0, symName: __ZNKSt3__16vectorIN5folly7dynamicENS_9allocatorIS2_EEE9__end_capB8ue170006Ev, symObjAddr: 0x6D54, symBinAddr: 0x10000C238, symSize: 0x28 }
  - { offsetInCU: 0x402A8, offset: 0x56CB5, size: 0x8, addend: 0x0, symName: __ZNKSt3__117__compressed_pairIPN5folly7dynamicENS_9allocatorIS2_EEE5firstB8ue170006Ev, symObjAddr: 0x6D7C, symBinAddr: 0x10000C260, symSize: 0x24 }
  - { offsetInCU: 0x402CE, offset: 0x56CDB, size: 0x8, addend: 0x0, symName: __ZNKSt3__122__compressed_pair_elemIPN5folly7dynamicELi0ELb0EE5__getB8ue170006Ev, symObjAddr: 0x6DA0, symBinAddr: 0x10000C284, symSize: 0x14 }
  - { offsetInCU: 0x402F4, offset: 0x56D01, size: 0x8, addend: 0x0, symName: __ZNSt3__113unordered_mapINS_12basic_stringIcNS_11char_traitsIcEENS_9allocatorIcEEEEN5folly7dynamicENS_4hashIS6_EENS_8equal_toIS6_EENS4_INS_4pairIKS6_S8_EEEEED2B8ue170006Ev, symObjAddr: 0x6DB4, symBinAddr: 0x10000C298, symSize: 0x2C }
  - { offsetInCU: 0x4031E, offset: 0x56D2B, size: 0x8, addend: 0x0, symName: __ZNSt3__112__hash_tableINS_17__hash_value_typeINS_12basic_stringIcNS_11char_traitsIcEENS_9allocatorIcEEEEN5folly7dynamicEEENS_22__unordered_map_hasherIS7_SA_NS_4hashIS7_EENS_8equal_toIS7_EELb1EEENS_21__unordered_map_equalIS7_SA_SF_SD_Lb1EEENS5_ISA_EEED1Ev, symObjAddr: 0x6DE0, symBinAddr: 0x10000C2C4, symSize: 0x2C }
  - { offsetInCU: 0x4034A, offset: 0x56D57, size: 0x8, addend: 0x0, symName: __ZNSt3__112__hash_tableINS_17__hash_value_typeINS_12basic_stringIcNS_11char_traitsIcEENS_9allocatorIcEEEEN5folly7dynamicEEENS_22__unordered_map_hasherIS7_SA_NS_4hashIS7_EENS_8equal_toIS7_EELb1EEENS_21__unordered_map_equalIS7_SA_SF_SD_Lb1EEENS5_ISA_EEED2Ev, symObjAddr: 0x6E0C, symBinAddr: 0x10000C2F0, symSize: 0x48 }
  - { offsetInCU: 0x40376, offset: 0x56D83, size: 0x8, addend: 0x0, symName: __ZNSt3__112__hash_tableINS_17__hash_value_typeINS_12basic_stringIcNS_11char_traitsIcEENS_9allocatorIcEEEEN5folly7dynamicEEENS_22__unordered_map_hasherIS7_SA_NS_4hashIS7_EENS_8equal_toIS7_EELb1EEENS_21__unordered_map_equalIS7_SA_SF_SD_Lb1EEENS5_ISA_EEE17__deallocate_nodeEPNS_16__hash_node_baseIPNS_11__hash_nodeISA_PvEEEE, symObjAddr: 0x6E54, symBinAddr: 0x10000C338, symSize: 0xA8 }
  - { offsetInCU: 0x403E0, offset: 0x56DED, size: 0x8, addend: 0x0, symName: __ZNSt3__117__compressed_pairINS_16__hash_node_baseIPNS_11__hash_nodeINS_17__hash_value_typeINS_12basic_stringIcNS_11char_traitsIcEENS_9allocatorIcEEEEN5folly7dynamicEEEPvEEEENS7_ISE_EEE5firstB8ue170006Ev, symObjAddr: 0x6EFC, symBinAddr: 0x10000C3E0, symSize: 0x24 }
  - { offsetInCU: 0x40406, offset: 0x56E13, size: 0x8, addend: 0x0, symName: __ZNSt3__110unique_ptrIA_PNS_16__hash_node_baseIPNS_11__hash_nodeINS_17__hash_value_typeINS_12basic_stringIcNS_11char_traitsIcEENS_9allocatorIcEEEEN5folly7dynamicEEEPvEEEENS_25__bucket_list_deallocatorINS7_ISH_EEEEED1B8ue170006Ev, symObjAddr: 0x6F20, symBinAddr: 0x10000C404, symSize: 0x2C }
  - { offsetInCU: 0x40430, offset: 0x56E3D, size: 0x8, addend: 0x0, symName: __ZNSt3__112__hash_tableINS_17__hash_value_typeINS_12basic_stringIcNS_11char_traitsIcEENS_9allocatorIcEEEEN5folly7dynamicEEENS_22__unordered_map_hasherIS7_SA_NS_4hashIS7_EENS_8equal_toIS7_EELb1EEENS_21__unordered_map_equalIS7_SA_SF_SD_Lb1EEENS5_ISA_EEE12__node_allocB8ue170006Ev, symObjAddr: 0x6F4C, symBinAddr: 0x10000C430, symSize: 0x28 }
  - { offsetInCU: 0x40456, offset: 0x56E63, size: 0x8, addend: 0x0, symName: __ZNSt3__116__hash_node_baseIPNS_11__hash_nodeINS_17__hash_value_typeINS_12basic_stringIcNS_11char_traitsIcEENS_9allocatorIcEEEEN5folly7dynamicEEEPvEEE8__upcastB8ue170006Ev, symObjAddr: 0x6F74, symBinAddr: 0x10000C458, symSize: 0x24 }
  - { offsetInCU: 0x4047C, offset: 0x56E89, size: 0x8, addend: 0x0, symName: __ZNSt3__116allocator_traitsINS_9allocatorINS_11__hash_nodeINS_17__hash_value_typeINS_12basic_stringIcNS_11char_traitsIcEENS1_IcEEEEN5folly7dynamicEEEPvEEEEE7destroyB8ue170006INS_4pairIKS8_SA_EEvvEEvRSE_PT_, symObjAddr: 0x6F98, symBinAddr: 0x10000C47C, symSize: 0x28 }
  - { offsetInCU: 0x404B7, offset: 0x56EC4, size: 0x8, addend: 0x0, symName: __ZNSt3__122__hash_key_value_typesINS_17__hash_value_typeINS_12basic_stringIcNS_11char_traitsIcEENS_9allocatorIcEEEEN5folly7dynamicEEEE9__get_ptrB8ue170006ERSA_, symObjAddr: 0x6FC0, symBinAddr: 0x10000C4A4, symSize: 0x24 }
  - { offsetInCU: 0x404DA, offset: 0x56EE7, size: 0x8, addend: 0x0, symName: __ZNSt3__116allocator_traitsINS_9allocatorINS_11__hash_nodeINS_17__hash_value_typeINS_12basic_stringIcNS_11char_traitsIcEENS1_IcEEEEN5folly7dynamicEEEPvEEEEE10deallocateB8ue170006ERSE_PSD_m, symObjAddr: 0x6FE4, symBinAddr: 0x10000C4C8, symSize: 0x34 }
  - { offsetInCU: 0x4051C, offset: 0x56F29, size: 0x8, addend: 0x0, symName: __ZNSt3__117__compressed_pairINS_16__hash_node_baseIPNS_11__hash_nodeINS_17__hash_value_typeINS_12basic_stringIcNS_11char_traitsIcEENS_9allocatorIcEEEEN5folly7dynamicEEEPvEEEENS7_ISE_EEE6secondB8ue170006Ev, symObjAddr: 0x7018, symBinAddr: 0x10000C4FC, symSize: 0x24 }
  - { offsetInCU: 0x40542, offset: 0x56F4F, size: 0x8, addend: 0x0, symName: __ZNSt3__122__compressed_pair_elemINS_9allocatorINS_11__hash_nodeINS_17__hash_value_typeINS_12basic_stringIcNS_11char_traitsIcEENS1_IcEEEEN5folly7dynamicEEEPvEEEELi1ELb1EE5__getB8ue170006Ev, symObjAddr: 0x703C, symBinAddr: 0x10000C520, symSize: 0x14 }
  - { offsetInCU: 0x40568, offset: 0x56F75, size: 0x8, addend: 0x0, symName: __ZNSt3__114pointer_traitsIPNS_16__hash_node_baseIPNS_11__hash_nodeINS_17__hash_value_typeINS_12basic_stringIcNS_11char_traitsIcEENS_9allocatorIcEEEEN5folly7dynamicEEEPvEEEEE10pointer_toB8ue170006ERSG_, symObjAddr: 0x7050, symBinAddr: 0x10000C534, symSize: 0x14 }
  - { offsetInCU: 0x4058B, offset: 0x56F98, size: 0x8, addend: 0x0, symName: __ZNSt3__14pairIKNS_12basic_stringIcNS_11char_traitsIcEENS_9allocatorIcEEEEN5folly7dynamicEED1Ev, symObjAddr: 0x7064, symBinAddr: 0x10000C548, symSize: 0x2C }
  - { offsetInCU: 0x405B7, offset: 0x56FC4, size: 0x8, addend: 0x0, symName: __ZNSt3__14pairIKNS_12basic_stringIcNS_11char_traitsIcEENS_9allocatorIcEEEEN5folly7dynamicEED2Ev, symObjAddr: 0x7090, symBinAddr: 0x10000C574, symSize: 0x38 }
  - { offsetInCU: 0x405E3, offset: 0x56FF0, size: 0x8, addend: 0x0, symName: __ZNSt3__117__hash_value_typeINS_12basic_stringIcNS_11char_traitsIcEENS_9allocatorIcEEEEN5folly7dynamicEE11__get_valueB8ue170006Ev, symObjAddr: 0x70C8, symBinAddr: 0x10000C5AC, symSize: 0x24 }
  - { offsetInCU: 0x40609, offset: 0x57016, size: 0x8, addend: 0x0, symName: __ZNSt3__19allocatorINS_11__hash_nodeINS_17__hash_value_typeINS_12basic_stringIcNS_11char_traitsIcEENS0_IcEEEEN5folly7dynamicEEEPvEEE10deallocateB8ue170006EPSC_m, symObjAddr: 0x7124, symBinAddr: 0x10000C608, symSize: 0x44 }
  - { offsetInCU: 0x4064B, offset: 0x57058, size: 0x8, addend: 0x0, symName: __ZNSt3__122__compressed_pair_elemINS_16__hash_node_baseIPNS_11__hash_nodeINS_17__hash_value_typeINS_12basic_stringIcNS_11char_traitsIcEENS_9allocatorIcEEEEN5folly7dynamicEEEPvEEEELi0ELb0EE5__getB8ue170006Ev, symObjAddr: 0x7168, symBinAddr: 0x10000C64C, symSize: 0x14 }
  - { offsetInCU: 0x40671, offset: 0x5707E, size: 0x8, addend: 0x0, symName: __ZNSt3__110unique_ptrIA_PNS_16__hash_node_baseIPNS_11__hash_nodeINS_17__hash_value_typeINS_12basic_stringIcNS_11char_traitsIcEENS_9allocatorIcEEEEN5folly7dynamicEEEPvEEEENS_25__bucket_list_deallocatorINS7_ISH_EEEEED2B8ue170006Ev, symObjAddr: 0x717C, symBinAddr: 0x10000C660, symSize: 0x30 }
  - { offsetInCU: 0x4069B, offset: 0x570A8, size: 0x8, addend: 0x0, symName: __ZNSt3__110unique_ptrIA_PNS_16__hash_node_baseIPNS_11__hash_nodeINS_17__hash_value_typeINS_12basic_stringIcNS_11char_traitsIcEENS_9allocatorIcEEEEN5folly7dynamicEEEPvEEEENS_25__bucket_list_deallocatorINS7_ISH_EEEEE5resetB8ue170006EDn, symObjAddr: 0x71AC, symBinAddr: 0x10000C690, symSize: 0x6C }
  - { offsetInCU: 0x406DC, offset: 0x570E9, size: 0x8, addend: 0x0, symName: __ZNSt3__117__compressed_pairIPPNS_16__hash_node_baseIPNS_11__hash_nodeINS_17__hash_value_typeINS_12basic_stringIcNS_11char_traitsIcEENS_9allocatorIcEEEEN5folly7dynamicEEEPvEEEENS_25__bucket_list_deallocatorINS7_ISH_EEEEE5firstB8ue170006Ev, symObjAddr: 0x7218, symBinAddr: 0x10000C6FC, symSize: 0x24 }
  - { offsetInCU: 0x40702, offset: 0x5710F, size: 0x8, addend: 0x0, symName: __ZNSt3__117__compressed_pairIPPNS_16__hash_node_baseIPNS_11__hash_nodeINS_17__hash_value_typeINS_12basic_stringIcNS_11char_traitsIcEENS_9allocatorIcEEEEN5folly7dynamicEEEPvEEEENS_25__bucket_list_deallocatorINS7_ISH_EEEEE6secondB8ue170006Ev, symObjAddr: 0x723C, symBinAddr: 0x10000C720, symSize: 0x28 }
  - { offsetInCU: 0x40728, offset: 0x57135, size: 0x8, addend: 0x0, symName: __ZNSt3__125__bucket_list_deallocatorINS_9allocatorIPNS_16__hash_node_baseIPNS_11__hash_nodeINS_17__hash_value_typeINS_12basic_stringIcNS_11char_traitsIcEENS1_IcEEEEN5folly7dynamicEEEPvEEEEEEEclB8ue170006EPSH_, symObjAddr: 0x7264, symBinAddr: 0x10000C748, symSize: 0x58 }
  - { offsetInCU: 0x4075D, offset: 0x5716A, size: 0x8, addend: 0x0, symName: __ZNSt3__122__compressed_pair_elemIPPNS_16__hash_node_baseIPNS_11__hash_nodeINS_17__hash_value_typeINS_12basic_stringIcNS_11char_traitsIcEENS_9allocatorIcEEEEN5folly7dynamicEEEPvEEEELi0ELb0EE5__getB8ue170006Ev, symObjAddr: 0x72BC, symBinAddr: 0x10000C7A0, symSize: 0x14 }
  - { offsetInCU: 0x40783, offset: 0x57190, size: 0x8, addend: 0x0, symName: __ZNSt3__122__compressed_pair_elemINS_25__bucket_list_deallocatorINS_9allocatorIPNS_16__hash_node_baseIPNS_11__hash_nodeINS_17__hash_value_typeINS_12basic_stringIcNS_11char_traitsIcEENS2_IcEEEEN5folly7dynamicEEEPvEEEEEEEELi1ELb0EE5__getB8ue170006Ev, symObjAddr: 0x72D0, symBinAddr: 0x10000C7B4, symSize: 0x14 }
  - { offsetInCU: 0x407A9, offset: 0x571B6, size: 0x8, addend: 0x0, symName: __ZNSt3__116allocator_traitsINS_9allocatorIPNS_16__hash_node_baseIPNS_11__hash_nodeINS_17__hash_value_typeINS_12basic_stringIcNS_11char_traitsIcEENS1_IcEEEEN5folly7dynamicEEEPvEEEEEEE10deallocateB8ue170006ERSI_PSH_m, symObjAddr: 0x72E4, symBinAddr: 0x10000C7C8, symSize: 0x34 }
  - { offsetInCU: 0x407EB, offset: 0x571F8, size: 0x8, addend: 0x0, symName: __ZNSt3__125__bucket_list_deallocatorINS_9allocatorIPNS_16__hash_node_baseIPNS_11__hash_nodeINS_17__hash_value_typeINS_12basic_stringIcNS_11char_traitsIcEENS1_IcEEEEN5folly7dynamicEEEPvEEEEEEE7__allocB8ue170006Ev, symObjAddr: 0x7318, symBinAddr: 0x10000C7FC, symSize: 0x24 }
  - { offsetInCU: 0x40811, offset: 0x5721E, size: 0x8, addend: 0x0, symName: __ZNSt3__125__bucket_list_deallocatorINS_9allocatorIPNS_16__hash_node_baseIPNS_11__hash_nodeINS_17__hash_value_typeINS_12basic_stringIcNS_11char_traitsIcEENS1_IcEEEEN5folly7dynamicEEEPvEEEEEEE4sizeB8ue170006Ev, symObjAddr: 0x733C, symBinAddr: 0x10000C820, symSize: 0x24 }
  - { offsetInCU: 0x40837, offset: 0x57244, size: 0x8, addend: 0x0, symName: __ZNSt3__19allocatorIPNS_16__hash_node_baseIPNS_11__hash_nodeINS_17__hash_value_typeINS_12basic_stringIcNS_11char_traitsIcEENS0_IcEEEEN5folly7dynamicEEEPvEEEEE10deallocateB8ue170006EPSG_m, symObjAddr: 0x7360, symBinAddr: 0x10000C844, symSize: 0x40 }
  - { offsetInCU: 0x40879, offset: 0x57286, size: 0x8, addend: 0x0, symName: __ZNSt3__117__compressed_pairImNS_9allocatorIPNS_16__hash_node_baseIPNS_11__hash_nodeINS_17__hash_value_typeINS_12basic_stringIcNS_11char_traitsIcEENS1_IcEEEEN5folly7dynamicEEEPvEEEEEEE6secondB8ue170006Ev, symObjAddr: 0x73A0, symBinAddr: 0x10000C884, symSize: 0x24 }
  - { offsetInCU: 0x4089F, offset: 0x572AC, size: 0x8, addend: 0x0, symName: __ZNSt3__122__compressed_pair_elemINS_9allocatorIPNS_16__hash_node_baseIPNS_11__hash_nodeINS_17__hash_value_typeINS_12basic_stringIcNS_11char_traitsIcEENS1_IcEEEEN5folly7dynamicEEEPvEEEEEELi1ELb1EE5__getB8ue170006Ev, symObjAddr: 0x73C4, symBinAddr: 0x10000C8A8, symSize: 0x14 }
  - { offsetInCU: 0x408C5, offset: 0x572D2, size: 0x8, addend: 0x0, symName: __ZNSt3__117__compressed_pairImNS_9allocatorIPNS_16__hash_node_baseIPNS_11__hash_nodeINS_17__hash_value_typeINS_12basic_stringIcNS_11char_traitsIcEENS1_IcEEEEN5folly7dynamicEEEPvEEEEEEE5firstB8ue170006Ev, symObjAddr: 0x73D8, symBinAddr: 0x10000C8BC, symSize: 0x24 }
  - { offsetInCU: 0x408EB, offset: 0x572F8, size: 0x8, addend: 0x0, symName: __ZNSt3__122__compressed_pair_elemImLi0ELb0EE5__getB8ue170006Ev, symObjAddr: 0x73FC, symBinAddr: 0x10000C8E0, symSize: 0x14 }
  - { offsetInCU: 0x40911, offset: 0x5731E, size: 0x8, addend: 0x0, symName: __ZN5folly17ConcurrentHashMapIyNSt3__16vectorIN5hf3fs17monitor_collector15OperationRecordENS1_9allocatorIS5_EEEEEC2Ev, symObjAddr: 0x7410, symBinAddr: 0x10000C8F4, symSize: 0x2C }
  - { offsetInCU: 0x4093D, offset: 0x5734A, size: 0x8, addend: 0x0, symName: __ZNSt3__113unordered_mapIyNS_6vectorIN5hf3fs17monitor_collector15OperationRecordENS_9allocatorIS4_EEEENS_4hashIyEENS_8equal_toIyEENS5_INS_4pairIKyS7_EEEEEC1B8ue170006Ev, symObjAddr: 0x743C, symBinAddr: 0x10000C920, symSize: 0x2C }
  - { offsetInCU: 0x40967, offset: 0x57374, size: 0x8, addend: 0x0, symName: __ZNSt3__113unordered_mapIyNS_6vectorIN5hf3fs17monitor_collector15OperationRecordENS_9allocatorIS4_EEEENS_4hashIyEENS_8equal_toIyEENS5_INS_4pairIKyS7_EEEEEC2B8ue170006Ev, symObjAddr: 0x7468, symBinAddr: 0x10000C94C, symSize: 0x2C }
  - { offsetInCU: 0x40991, offset: 0x5739E, size: 0x8, addend: 0x0, symName: __ZNSt3__112__hash_tableINS_17__hash_value_typeIyNS_6vectorIN5hf3fs17monitor_collector15OperationRecordENS_9allocatorIS5_EEEEEENS_22__unordered_map_hasherIyS9_NS_4hashIyEENS_8equal_toIyEELb1EEENS_21__unordered_map_equalIyS9_SE_SC_Lb1EEENS6_IS9_EEEC1Ev, symObjAddr: 0x7494, symBinAddr: 0x10000C978, symSize: 0x2C }
  - { offsetInCU: 0x409BD, offset: 0x573CA, size: 0x8, addend: 0x0, symName: __ZNSt3__112__hash_tableINS_17__hash_value_typeIyNS_6vectorIN5hf3fs17monitor_collector15OperationRecordENS_9allocatorIS5_EEEEEENS_22__unordered_map_hasherIyS9_NS_4hashIyEENS_8equal_toIyEELb1EEENS_21__unordered_map_equalIyS9_SE_SC_Lb1EEENS6_IS9_EEEC2Ev, symObjAddr: 0x74C0, symBinAddr: 0x10000C9A4, symSize: 0x7C }
  - { offsetInCU: 0x409E9, offset: 0x573F6, size: 0x8, addend: 0x0, symName: __ZNSt3__110unique_ptrIA_PNS_16__hash_node_baseIPNS_11__hash_nodeINS_17__hash_value_typeIyNS_6vectorIN5hf3fs17monitor_collector15OperationRecordENS_9allocatorIS7_EEEEEEPvEEEENS_25__bucket_list_deallocatorINS8_ISG_EEEEEC1B8ue170006ILb1EvEEv, symObjAddr: 0x753C, symBinAddr: 0x10000CA20, symSize: 0x2C }
  - { offsetInCU: 0x40A1E, offset: 0x5742B, size: 0x8, addend: 0x0, symName: __ZNSt3__117__compressed_pairINS_16__hash_node_baseIPNS_11__hash_nodeINS_17__hash_value_typeIyNS_6vectorIN5hf3fs17monitor_collector15OperationRecordENS_9allocatorIS7_EEEEEEPvEEEENS8_ISD_EEEC1B8ue170006ILb1EvEEv, symObjAddr: 0x7568, symBinAddr: 0x10000CA4C, symSize: 0x2C }
  - { offsetInCU: 0x40A53, offset: 0x57460, size: 0x8, addend: 0x0, symName: __ZNSt3__117__compressed_pairImNS_22__unordered_map_hasherIyNS_17__hash_value_typeIyNS_6vectorIN5hf3fs17monitor_collector15OperationRecordENS_9allocatorIS6_EEEEEENS_4hashIyEENS_8equal_toIyEELb1EEEEC1B8ue170006IiNS_18__default_init_tagEEEOT_OT0_, symObjAddr: 0x7594, symBinAddr: 0x10000CA78, symSize: 0x3C }
  - { offsetInCU: 0x40AAB, offset: 0x574B8, size: 0x8, addend: 0x0, symName: __ZNSt3__117__compressed_pairIfNS_21__unordered_map_equalIyNS_17__hash_value_typeIyNS_6vectorIN5hf3fs17monitor_collector15OperationRecordENS_9allocatorIS6_EEEEEENS_8equal_toIyEENS_4hashIyEELb1EEEEC1B8ue170006IfNS_18__default_init_tagEEEOT_OT0_, symObjAddr: 0x75D0, symBinAddr: 0x10000CAB4, symSize: 0x3C }
  - { offsetInCU: 0x40B03, offset: 0x57510, size: 0x8, addend: 0x0, symName: __ZNSt3__110unique_ptrIA_PNS_16__hash_node_baseIPNS_11__hash_nodeINS_17__hash_value_typeIyNS_6vectorIN5hf3fs17monitor_collector15OperationRecordENS_9allocatorIS7_EEEEEEPvEEEENS_25__bucket_list_deallocatorINS8_ISG_EEEEEC2B8ue170006ILb1EvEEv, symObjAddr: 0x760C, symBinAddr: 0x10000CAF0, symSize: 0x3C }
  - { offsetInCU: 0x40B38, offset: 0x57545, size: 0x8, addend: 0x0, symName: __ZNSt3__117__compressed_pairIPPNS_16__hash_node_baseIPNS_11__hash_nodeINS_17__hash_value_typeIyNS_6vectorIN5hf3fs17monitor_collector15OperationRecordENS_9allocatorIS7_EEEEEEPvEEEENS_25__bucket_list_deallocatorINS8_ISG_EEEEEC1B8ue170006INS_16__value_init_tagESN_EEOT_OT0_, symObjAddr: 0x7648, symBinAddr: 0x10000CB2C, symSize: 0x3C }
  - { offsetInCU: 0x40B90, offset: 0x5759D, size: 0x8, addend: 0x0, symName: __ZNSt3__117__compressed_pairIPPNS_16__hash_node_baseIPNS_11__hash_nodeINS_17__hash_value_typeIyNS_6vectorIN5hf3fs17monitor_collector15OperationRecordENS_9allocatorIS7_EEEEEEPvEEEENS_25__bucket_list_deallocatorINS8_ISG_EEEEEC2B8ue170006INS_16__value_init_tagESN_EEOT_OT0_, symObjAddr: 0x7684, symBinAddr: 0x10000CB68, symSize: 0x40 }
  - { offsetInCU: 0x40BE8, offset: 0x575F5, size: 0x8, addend: 0x0, symName: __ZNSt3__122__compressed_pair_elemIPPNS_16__hash_node_baseIPNS_11__hash_nodeINS_17__hash_value_typeIyNS_6vectorIN5hf3fs17monitor_collector15OperationRecordENS_9allocatorIS7_EEEEEEPvEEEELi0ELb0EEC2B8ue170006ENS_16__value_init_tagE, symObjAddr: 0x76C4, symBinAddr: 0x10000CBA8, symSize: 0x18 }
  - { offsetInCU: 0x40C1D, offset: 0x5762A, size: 0x8, addend: 0x0, symName: __ZNSt3__122__compressed_pair_elemINS_25__bucket_list_deallocatorINS_9allocatorIPNS_16__hash_node_baseIPNS_11__hash_nodeINS_17__hash_value_typeIyNS_6vectorIN5hf3fs17monitor_collector15OperationRecordENS2_IS9_EEEEEEPvEEEEEEEELi1ELb0EEC2B8ue170006ENS_16__value_init_tagE, symObjAddr: 0x76DC, symBinAddr: 0x10000CBC0, symSize: 0x2C }
  - { offsetInCU: 0x40C52, offset: 0x5765F, size: 0x8, addend: 0x0, symName: __ZNSt3__125__bucket_list_deallocatorINS_9allocatorIPNS_16__hash_node_baseIPNS_11__hash_nodeINS_17__hash_value_typeIyNS_6vectorIN5hf3fs17monitor_collector15OperationRecordENS1_IS8_EEEEEEPvEEEEEEEC1B8ue170006Ev, symObjAddr: 0x7708, symBinAddr: 0x10000CBEC, symSize: 0x2C }
  - { offsetInCU: 0x40C7C, offset: 0x57689, size: 0x8, addend: 0x0, symName: __ZNSt3__125__bucket_list_deallocatorINS_9allocatorIPNS_16__hash_node_baseIPNS_11__hash_nodeINS_17__hash_value_typeIyNS_6vectorIN5hf3fs17monitor_collector15OperationRecordENS1_IS8_EEEEEEPvEEEEEEEC2B8ue170006Ev, symObjAddr: 0x7734, symBinAddr: 0x10000CC18, symSize: 0x40 }
  - { offsetInCU: 0x40CA6, offset: 0x576B3, size: 0x8, addend: 0x0, symName: __ZNSt3__117__compressed_pairImNS_9allocatorIPNS_16__hash_node_baseIPNS_11__hash_nodeINS_17__hash_value_typeIyNS_6vectorIN5hf3fs17monitor_collector15OperationRecordENS1_IS8_EEEEEEPvEEEEEEEC1B8ue170006IiNS_18__default_init_tagEEEOT_OT0_, symObjAddr: 0x7774, symBinAddr: 0x10000CC58, symSize: 0x3C }
  - { offsetInCU: 0x40CFE, offset: 0x5770B, size: 0x8, addend: 0x0, symName: __ZNSt3__117__compressed_pairImNS_9allocatorIPNS_16__hash_node_baseIPNS_11__hash_nodeINS_17__hash_value_typeIyNS_6vectorIN5hf3fs17monitor_collector15OperationRecordENS1_IS8_EEEEEEPvEEEEEEEC2B8ue170006IiNS_18__default_init_tagEEEOT_OT0_, symObjAddr: 0x77B0, symBinAddr: 0x10000CC94, symSize: 0x40 }
  - { offsetInCU: 0x40D56, offset: 0x57763, size: 0x8, addend: 0x0, symName: __ZNSt3__122__compressed_pair_elemINS_9allocatorIPNS_16__hash_node_baseIPNS_11__hash_nodeINS_17__hash_value_typeIyNS_6vectorIN5hf3fs17monitor_collector15OperationRecordENS1_IS8_EEEEEEPvEEEEEELi1ELb1EEC2B8ue170006ENS_18__default_init_tagE, symObjAddr: 0x77F0, symBinAddr: 0x10000CCD4, symSize: 0x2C }
  - { offsetInCU: 0x40D8B, offset: 0x57798, size: 0x8, addend: 0x0, symName: __ZNSt3__19allocatorIPNS_16__hash_node_baseIPNS_11__hash_nodeINS_17__hash_value_typeIyNS_6vectorIN5hf3fs17monitor_collector15OperationRecordENS0_IS7_EEEEEEPvEEEEEC2B8ue170006Ev, symObjAddr: 0x781C, symBinAddr: 0x10000CD00, symSize: 0x2C }
  - { offsetInCU: 0x40DB5, offset: 0x577C2, size: 0x8, addend: 0x0, symName: __ZNSt3__116__non_trivial_ifILb1ENS_9allocatorIPNS_16__hash_node_baseIPNS_11__hash_nodeINS_17__hash_value_typeIyNS_6vectorIN5hf3fs17monitor_collector15OperationRecordENS1_IS8_EEEEEEPvEEEEEEEC2B8ue170006Ev, symObjAddr: 0x7848, symBinAddr: 0x10000CD2C, symSize: 0x14 }
  - { offsetInCU: 0x40DDF, offset: 0x577EC, size: 0x8, addend: 0x0, symName: __ZNSt3__117__compressed_pairINS_16__hash_node_baseIPNS_11__hash_nodeINS_17__hash_value_typeIyNS_6vectorIN5hf3fs17monitor_collector15OperationRecordENS_9allocatorIS7_EEEEEEPvEEEENS8_ISD_EEEC2B8ue170006ILb1EvEEv, symObjAddr: 0x785C, symBinAddr: 0x10000CD40, symSize: 0x34 }
  - { offsetInCU: 0x40E14, offset: 0x57821, size: 0x8, addend: 0x0, symName: __ZNSt3__122__compressed_pair_elemINS_16__hash_node_baseIPNS_11__hash_nodeINS_17__hash_value_typeIyNS_6vectorIN5hf3fs17monitor_collector15OperationRecordENS_9allocatorIS7_EEEEEEPvEEEELi0ELb0EEC2B8ue170006ENS_16__value_init_tagE, symObjAddr: 0x7890, symBinAddr: 0x10000CD74, symSize: 0x2C }
  - { offsetInCU: 0x40E49, offset: 0x57856, size: 0x8, addend: 0x0, symName: __ZNSt3__122__compressed_pair_elemINS_9allocatorINS_11__hash_nodeINS_17__hash_value_typeIyNS_6vectorIN5hf3fs17monitor_collector15OperationRecordENS1_IS7_EEEEEEPvEEEELi1ELb1EEC2B8ue170006ENS_16__value_init_tagE, symObjAddr: 0x78BC, symBinAddr: 0x10000CDA0, symSize: 0x2C }
  - { offsetInCU: 0x40E7E, offset: 0x5788B, size: 0x8, addend: 0x0, symName: __ZNSt3__116__hash_node_baseIPNS_11__hash_nodeINS_17__hash_value_typeIyNS_6vectorIN5hf3fs17monitor_collector15OperationRecordENS_9allocatorIS6_EEEEEEPvEEEC1B8ue170006Ev, symObjAddr: 0x78E8, symBinAddr: 0x10000CDCC, symSize: 0x2C }
  - { offsetInCU: 0x40EA8, offset: 0x578B5, size: 0x8, addend: 0x0, symName: __ZNSt3__116__hash_node_baseIPNS_11__hash_nodeINS_17__hash_value_typeIyNS_6vectorIN5hf3fs17monitor_collector15OperationRecordENS_9allocatorIS6_EEEEEEPvEEEC2B8ue170006Ev, symObjAddr: 0x7914, symBinAddr: 0x10000CDF8, symSize: 0x18 }
  - { offsetInCU: 0x40ED2, offset: 0x578DF, size: 0x8, addend: 0x0, symName: __ZNSt3__19allocatorINS_11__hash_nodeINS_17__hash_value_typeIyNS_6vectorIN5hf3fs17monitor_collector15OperationRecordENS0_IS6_EEEEEEPvEEEC2B8ue170006Ev, symObjAddr: 0x792C, symBinAddr: 0x10000CE10, symSize: 0x2C }
  - { offsetInCU: 0x40EFC, offset: 0x57909, size: 0x8, addend: 0x0, symName: __ZNSt3__116__non_trivial_ifILb1ENS_9allocatorINS_11__hash_nodeINS_17__hash_value_typeIyNS_6vectorIN5hf3fs17monitor_collector15OperationRecordENS1_IS7_EEEEEEPvEEEEEC2B8ue170006Ev, symObjAddr: 0x7958, symBinAddr: 0x10000CE3C, symSize: 0x14 }
  - { offsetInCU: 0x40F26, offset: 0x57933, size: 0x8, addend: 0x0, symName: __ZNSt3__117__compressed_pairImNS_22__unordered_map_hasherIyNS_17__hash_value_typeIyNS_6vectorIN5hf3fs17monitor_collector15OperationRecordENS_9allocatorIS6_EEEEEENS_4hashIyEENS_8equal_toIyEELb1EEEEC2B8ue170006IiNS_18__default_init_tagEEEOT_OT0_, symObjAddr: 0x796C, symBinAddr: 0x10000CE50, symSize: 0x40 }
  - { offsetInCU: 0x40F7E, offset: 0x5798B, size: 0x8, addend: 0x0, symName: __ZNSt3__122__compressed_pair_elemINS_22__unordered_map_hasherIyNS_17__hash_value_typeIyNS_6vectorIN5hf3fs17monitor_collector15OperationRecordENS_9allocatorIS6_EEEEEENS_4hashIyEENS_8equal_toIyEELb1EEELi1ELb1EEC2B8ue170006ENS_18__default_init_tagE, symObjAddr: 0x79AC, symBinAddr: 0x10000CE90, symSize: 0x2C }
  - { offsetInCU: 0x40FB3, offset: 0x579C0, size: 0x8, addend: 0x0, symName: __ZNSt3__122__unordered_map_hasherIyNS_17__hash_value_typeIyNS_6vectorIN5hf3fs17monitor_collector15OperationRecordENS_9allocatorIS5_EEEEEENS_4hashIyEENS_8equal_toIyEELb1EEC2B8ue170006Ev, symObjAddr: 0x79D8, symBinAddr: 0x10000CEBC, symSize: 0x14 }
  - { offsetInCU: 0x40FDD, offset: 0x579EA, size: 0x8, addend: 0x0, symName: __ZNSt3__117__compressed_pairIfNS_21__unordered_map_equalIyNS_17__hash_value_typeIyNS_6vectorIN5hf3fs17monitor_collector15OperationRecordENS_9allocatorIS6_EEEEEENS_8equal_toIyEENS_4hashIyEELb1EEEEC2B8ue170006IfNS_18__default_init_tagEEEOT_OT0_, symObjAddr: 0x79EC, symBinAddr: 0x10000CED0, symSize: 0x40 }
  - { offsetInCU: 0x41035, offset: 0x57A42, size: 0x8, addend: 0x0, symName: __ZNSt3__122__compressed_pair_elemINS_21__unordered_map_equalIyNS_17__hash_value_typeIyNS_6vectorIN5hf3fs17monitor_collector15OperationRecordENS_9allocatorIS6_EEEEEENS_8equal_toIyEENS_4hashIyEELb1EEELi1ELb1EEC2B8ue170006ENS_18__default_init_tagE, symObjAddr: 0x7A2C, symBinAddr: 0x10000CF10, symSize: 0x2C }
  - { offsetInCU: 0x4106A, offset: 0x57A77, size: 0x8, addend: 0x0, symName: __ZNSt3__121__unordered_map_equalIyNS_17__hash_value_typeIyNS_6vectorIN5hf3fs17monitor_collector15OperationRecordENS_9allocatorIS5_EEEEEENS_8equal_toIyEENS_4hashIyEELb1EEC2B8ue170006Ev, symObjAddr: 0x7A58, symBinAddr: 0x10000CF3C, symSize: 0x14 }
  - { offsetInCU: 0x41094, offset: 0x57AA1, size: 0x8, addend: 0x0, symName: __ZN5folly17ConcurrentHashMapIyNSt3__110shared_ptrIN5hf3fs17monitor_collector13WorkloadStatsEEEEC2Ev, symObjAddr: 0x7A6C, symBinAddr: 0x10000CF50, symSize: 0x2C }
  - { offsetInCU: 0x410C0, offset: 0x57ACD, size: 0x8, addend: 0x0, symName: __ZNSt3__113unordered_mapIyNS_10shared_ptrIN5hf3fs17monitor_collector13WorkloadStatsEEENS_4hashIyEENS_8equal_toIyEENS_9allocatorINS_4pairIKyS5_EEEEEC1B8ue170006Ev, symObjAddr: 0x7A98, symBinAddr: 0x10000CF7C, symSize: 0x2C }
  - { offsetInCU: 0x410EA, offset: 0x57AF7, size: 0x8, addend: 0x0, symName: __ZNSt3__113unordered_mapIyNS_10shared_ptrIN5hf3fs17monitor_collector13WorkloadStatsEEENS_4hashIyEENS_8equal_toIyEENS_9allocatorINS_4pairIKyS5_EEEEEC2B8ue170006Ev, symObjAddr: 0x7AC4, symBinAddr: 0x10000CFA8, symSize: 0x2C }
  - { offsetInCU: 0x41114, offset: 0x57B21, size: 0x8, addend: 0x0, symName: __ZNSt3__112__hash_tableINS_17__hash_value_typeIyNS_10shared_ptrIN5hf3fs17monitor_collector13WorkloadStatsEEEEENS_22__unordered_map_hasherIyS7_NS_4hashIyEENS_8equal_toIyEELb1EEENS_21__unordered_map_equalIyS7_SC_SA_Lb1EEENS_9allocatorIS7_EEEC1Ev, symObjAddr: 0x7AF0, symBinAddr: 0x10000CFD4, symSize: 0x2C }
  - { offsetInCU: 0x41140, offset: 0x57B4D, size: 0x8, addend: 0x0, symName: __ZNSt3__112__hash_tableINS_17__hash_value_typeIyNS_10shared_ptrIN5hf3fs17monitor_collector13WorkloadStatsEEEEENS_22__unordered_map_hasherIyS7_NS_4hashIyEENS_8equal_toIyEELb1EEENS_21__unordered_map_equalIyS7_SC_SA_Lb1EEENS_9allocatorIS7_EEEC2Ev, symObjAddr: 0x7B1C, symBinAddr: 0x10000D000, symSize: 0x7C }
  - { offsetInCU: 0x4116C, offset: 0x57B79, size: 0x8, addend: 0x0, symName: __ZNSt3__110unique_ptrIA_PNS_16__hash_node_baseIPNS_11__hash_nodeINS_17__hash_value_typeIyNS_10shared_ptrIN5hf3fs17monitor_collector13WorkloadStatsEEEEEPvEEEENS_25__bucket_list_deallocatorINS_9allocatorISE_EEEEEC1B8ue170006ILb1EvEEv, symObjAddr: 0x7B98, symBinAddr: 0x10000D07C, symSize: 0x2C }
  - { offsetInCU: 0x411A1, offset: 0x57BAE, size: 0x8, addend: 0x0, symName: __ZNSt3__117__compressed_pairINS_16__hash_node_baseIPNS_11__hash_nodeINS_17__hash_value_typeIyNS_10shared_ptrIN5hf3fs17monitor_collector13WorkloadStatsEEEEEPvEEEENS_9allocatorISB_EEEC1B8ue170006ILb1EvEEv, symObjAddr: 0x7BC4, symBinAddr: 0x10000D0A8, symSize: 0x2C }
  - { offsetInCU: 0x411D6, offset: 0x57BE3, size: 0x8, addend: 0x0, symName: __ZNSt3__117__compressed_pairImNS_22__unordered_map_hasherIyNS_17__hash_value_typeIyNS_10shared_ptrIN5hf3fs17monitor_collector13WorkloadStatsEEEEENS_4hashIyEENS_8equal_toIyEELb1EEEEC1B8ue170006IiNS_18__default_init_tagEEEOT_OT0_, symObjAddr: 0x7BF0, symBinAddr: 0x10000D0D4, symSize: 0x3C }
  - { offsetInCU: 0x4122E, offset: 0x57C3B, size: 0x8, addend: 0x0, symName: __ZNSt3__117__compressed_pairIfNS_21__unordered_map_equalIyNS_17__hash_value_typeIyNS_10shared_ptrIN5hf3fs17monitor_collector13WorkloadStatsEEEEENS_8equal_toIyEENS_4hashIyEELb1EEEEC1B8ue170006IfNS_18__default_init_tagEEEOT_OT0_, symObjAddr: 0x7C2C, symBinAddr: 0x10000D110, symSize: 0x3C }
  - { offsetInCU: 0x41286, offset: 0x57C93, size: 0x8, addend: 0x0, symName: __ZNSt3__110unique_ptrIA_PNS_16__hash_node_baseIPNS_11__hash_nodeINS_17__hash_value_typeIyNS_10shared_ptrIN5hf3fs17monitor_collector13WorkloadStatsEEEEEPvEEEENS_25__bucket_list_deallocatorINS_9allocatorISE_EEEEEC2B8ue170006ILb1EvEEv, symObjAddr: 0x7C68, symBinAddr: 0x10000D14C, symSize: 0x3C }
  - { offsetInCU: 0x412BB, offset: 0x57CC8, size: 0x8, addend: 0x0, symName: __ZNSt3__117__compressed_pairIPPNS_16__hash_node_baseIPNS_11__hash_nodeINS_17__hash_value_typeIyNS_10shared_ptrIN5hf3fs17monitor_collector13WorkloadStatsEEEEEPvEEEENS_25__bucket_list_deallocatorINS_9allocatorISE_EEEEEC1B8ue170006INS_16__value_init_tagESM_EEOT_OT0_, symObjAddr: 0x7CA4, symBinAddr: 0x10000D188, symSize: 0x3C }
  - { offsetInCU: 0x41313, offset: 0x57D20, size: 0x8, addend: 0x0, symName: __ZNSt3__117__compressed_pairIPPNS_16__hash_node_baseIPNS_11__hash_nodeINS_17__hash_value_typeIyNS_10shared_ptrIN5hf3fs17monitor_collector13WorkloadStatsEEEEEPvEEEENS_25__bucket_list_deallocatorINS_9allocatorISE_EEEEEC2B8ue170006INS_16__value_init_tagESM_EEOT_OT0_, symObjAddr: 0x7CE0, symBinAddr: 0x10000D1C4, symSize: 0x40 }
  - { offsetInCU: 0x4136B, offset: 0x57D78, size: 0x8, addend: 0x0, symName: __ZNSt3__122__compressed_pair_elemIPPNS_16__hash_node_baseIPNS_11__hash_nodeINS_17__hash_value_typeIyNS_10shared_ptrIN5hf3fs17monitor_collector13WorkloadStatsEEEEEPvEEEELi0ELb0EEC2B8ue170006ENS_16__value_init_tagE, symObjAddr: 0x7D20, symBinAddr: 0x10000D204, symSize: 0x18 }
  - { offsetInCU: 0x413A0, offset: 0x57DAD, size: 0x8, addend: 0x0, symName: __ZNSt3__122__compressed_pair_elemINS_25__bucket_list_deallocatorINS_9allocatorIPNS_16__hash_node_baseIPNS_11__hash_nodeINS_17__hash_value_typeIyNS_10shared_ptrIN5hf3fs17monitor_collector13WorkloadStatsEEEEEPvEEEEEEEELi1ELb0EEC2B8ue170006ENS_16__value_init_tagE, symObjAddr: 0x7D38, symBinAddr: 0x10000D21C, symSize: 0x2C }
  - { offsetInCU: 0x413D5, offset: 0x57DE2, size: 0x8, addend: 0x0, symName: __ZNSt3__125__bucket_list_deallocatorINS_9allocatorIPNS_16__hash_node_baseIPNS_11__hash_nodeINS_17__hash_value_typeIyNS_10shared_ptrIN5hf3fs17monitor_collector13WorkloadStatsEEEEEPvEEEEEEEC1B8ue170006Ev, symObjAddr: 0x7D64, symBinAddr: 0x10000D248, symSize: 0x2C }
  - { offsetInCU: 0x413FF, offset: 0x57E0C, size: 0x8, addend: 0x0, symName: __ZNSt3__125__bucket_list_deallocatorINS_9allocatorIPNS_16__hash_node_baseIPNS_11__hash_nodeINS_17__hash_value_typeIyNS_10shared_ptrIN5hf3fs17monitor_collector13WorkloadStatsEEEEEPvEEEEEEEC2B8ue170006Ev, symObjAddr: 0x7D90, symBinAddr: 0x10000D274, symSize: 0x40 }
  - { offsetInCU: 0x41429, offset: 0x57E36, size: 0x8, addend: 0x0, symName: __ZNSt3__117__compressed_pairImNS_9allocatorIPNS_16__hash_node_baseIPNS_11__hash_nodeINS_17__hash_value_typeIyNS_10shared_ptrIN5hf3fs17monitor_collector13WorkloadStatsEEEEEPvEEEEEEEC1B8ue170006IiNS_18__default_init_tagEEEOT_OT0_, symObjAddr: 0x7DD0, symBinAddr: 0x10000D2B4, symSize: 0x3C }
  - { offsetInCU: 0x41481, offset: 0x57E8E, size: 0x8, addend: 0x0, symName: __ZNSt3__117__compressed_pairImNS_9allocatorIPNS_16__hash_node_baseIPNS_11__hash_nodeINS_17__hash_value_typeIyNS_10shared_ptrIN5hf3fs17monitor_collector13WorkloadStatsEEEEEPvEEEEEEEC2B8ue170006IiNS_18__default_init_tagEEEOT_OT0_, symObjAddr: 0x7E0C, symBinAddr: 0x10000D2F0, symSize: 0x40 }
  - { offsetInCU: 0x414D9, offset: 0x57EE6, size: 0x8, addend: 0x0, symName: __ZNSt3__122__compressed_pair_elemINS_9allocatorIPNS_16__hash_node_baseIPNS_11__hash_nodeINS_17__hash_value_typeIyNS_10shared_ptrIN5hf3fs17monitor_collector13WorkloadStatsEEEEEPvEEEEEELi1ELb1EEC2B8ue170006ENS_18__default_init_tagE, symObjAddr: 0x7E4C, symBinAddr: 0x10000D330, symSize: 0x2C }
  - { offsetInCU: 0x4150E, offset: 0x57F1B, size: 0x8, addend: 0x0, symName: __ZNSt3__19allocatorIPNS_16__hash_node_baseIPNS_11__hash_nodeINS_17__hash_value_typeIyNS_10shared_ptrIN5hf3fs17monitor_collector13WorkloadStatsEEEEEPvEEEEEC2B8ue170006Ev, symObjAddr: 0x7E78, symBinAddr: 0x10000D35C, symSize: 0x2C }
  - { offsetInCU: 0x41538, offset: 0x57F45, size: 0x8, addend: 0x0, symName: __ZNSt3__116__non_trivial_ifILb1ENS_9allocatorIPNS_16__hash_node_baseIPNS_11__hash_nodeINS_17__hash_value_typeIyNS_10shared_ptrIN5hf3fs17monitor_collector13WorkloadStatsEEEEEPvEEEEEEEC2B8ue170006Ev, symObjAddr: 0x7EA4, symBinAddr: 0x10000D388, symSize: 0x14 }
  - { offsetInCU: 0x41562, offset: 0x57F6F, size: 0x8, addend: 0x0, symName: __ZNSt3__117__compressed_pairINS_16__hash_node_baseIPNS_11__hash_nodeINS_17__hash_value_typeIyNS_10shared_ptrIN5hf3fs17monitor_collector13WorkloadStatsEEEEEPvEEEENS_9allocatorISB_EEEC2B8ue170006ILb1EvEEv, symObjAddr: 0x7EB8, symBinAddr: 0x10000D39C, symSize: 0x34 }
  - { offsetInCU: 0x41597, offset: 0x57FA4, size: 0x8, addend: 0x0, symName: __ZNSt3__122__compressed_pair_elemINS_16__hash_node_baseIPNS_11__hash_nodeINS_17__hash_value_typeIyNS_10shared_ptrIN5hf3fs17monitor_collector13WorkloadStatsEEEEEPvEEEELi0ELb0EEC2B8ue170006ENS_16__value_init_tagE, symObjAddr: 0x7EEC, symBinAddr: 0x10000D3D0, symSize: 0x2C }
  - { offsetInCU: 0x415CC, offset: 0x57FD9, size: 0x8, addend: 0x0, symName: __ZNSt3__122__compressed_pair_elemINS_9allocatorINS_11__hash_nodeINS_17__hash_value_typeIyNS_10shared_ptrIN5hf3fs17monitor_collector13WorkloadStatsEEEEEPvEEEELi1ELb1EEC2B8ue170006ENS_16__value_init_tagE, symObjAddr: 0x7F18, symBinAddr: 0x10000D3FC, symSize: 0x2C }
  - { offsetInCU: 0x41601, offset: 0x5800E, size: 0x8, addend: 0x0, symName: __ZNSt3__116__hash_node_baseIPNS_11__hash_nodeINS_17__hash_value_typeIyNS_10shared_ptrIN5hf3fs17monitor_collector13WorkloadStatsEEEEEPvEEEC1B8ue170006Ev, symObjAddr: 0x7F44, symBinAddr: 0x10000D428, symSize: 0x2C }
  - { offsetInCU: 0x4162B, offset: 0x58038, size: 0x8, addend: 0x0, symName: __ZNSt3__116__hash_node_baseIPNS_11__hash_nodeINS_17__hash_value_typeIyNS_10shared_ptrIN5hf3fs17monitor_collector13WorkloadStatsEEEEEPvEEEC2B8ue170006Ev, symObjAddr: 0x7F70, symBinAddr: 0x10000D454, symSize: 0x18 }
  - { offsetInCU: 0x41655, offset: 0x58062, size: 0x8, addend: 0x0, symName: __ZNSt3__19allocatorINS_11__hash_nodeINS_17__hash_value_typeIyNS_10shared_ptrIN5hf3fs17monitor_collector13WorkloadStatsEEEEEPvEEEC2B8ue170006Ev, symObjAddr: 0x7F88, symBinAddr: 0x10000D46C, symSize: 0x2C }
  - { offsetInCU: 0x4167F, offset: 0x5808C, size: 0x8, addend: 0x0, symName: __ZNSt3__116__non_trivial_ifILb1ENS_9allocatorINS_11__hash_nodeINS_17__hash_value_typeIyNS_10shared_ptrIN5hf3fs17monitor_collector13WorkloadStatsEEEEEPvEEEEEC2B8ue170006Ev, symObjAddr: 0x7FB4, symBinAddr: 0x10000D498, symSize: 0x14 }
  - { offsetInCU: 0x416A9, offset: 0x580B6, size: 0x8, addend: 0x0, symName: __ZNSt3__117__compressed_pairImNS_22__unordered_map_hasherIyNS_17__hash_value_typeIyNS_10shared_ptrIN5hf3fs17monitor_collector13WorkloadStatsEEEEENS_4hashIyEENS_8equal_toIyEELb1EEEEC2B8ue170006IiNS_18__default_init_tagEEEOT_OT0_, symObjAddr: 0x7FC8, symBinAddr: 0x10000D4AC, symSize: 0x40 }
  - { offsetInCU: 0x41701, offset: 0x5810E, size: 0x8, addend: 0x0, symName: __ZNSt3__122__compressed_pair_elemINS_22__unordered_map_hasherIyNS_17__hash_value_typeIyNS_10shared_ptrIN5hf3fs17monitor_collector13WorkloadStatsEEEEENS_4hashIyEENS_8equal_toIyEELb1EEELi1ELb1EEC2B8ue170006ENS_18__default_init_tagE, symObjAddr: 0x8008, symBinAddr: 0x10000D4EC, symSize: 0x2C }
  - { offsetInCU: 0x41736, offset: 0x58143, size: 0x8, addend: 0x0, symName: __ZNSt3__122__unordered_map_hasherIyNS_17__hash_value_typeIyNS_10shared_ptrIN5hf3fs17monitor_collector13WorkloadStatsEEEEENS_4hashIyEENS_8equal_toIyEELb1EEC2B8ue170006Ev, symObjAddr: 0x8034, symBinAddr: 0x10000D518, symSize: 0x14 }
  - { offsetInCU: 0x41760, offset: 0x5816D, size: 0x8, addend: 0x0, symName: __ZNSt3__117__compressed_pairIfNS_21__unordered_map_equalIyNS_17__hash_value_typeIyNS_10shared_ptrIN5hf3fs17monitor_collector13WorkloadStatsEEEEENS_8equal_toIyEENS_4hashIyEELb1EEEEC2B8ue170006IfNS_18__default_init_tagEEEOT_OT0_, symObjAddr: 0x8048, symBinAddr: 0x10000D52C, symSize: 0x40 }
  - { offsetInCU: 0x417B8, offset: 0x581C5, size: 0x8, addend: 0x0, symName: __ZNSt3__122__compressed_pair_elemINS_21__unordered_map_equalIyNS_17__hash_value_typeIyNS_10shared_ptrIN5hf3fs17monitor_collector13WorkloadStatsEEEEENS_8equal_toIyEENS_4hashIyEELb1EEELi1ELb1EEC2B8ue170006ENS_18__default_init_tagE, symObjAddr: 0x8088, symBinAddr: 0x10000D56C, symSize: 0x2C }
  - { offsetInCU: 0x417ED, offset: 0x581FA, size: 0x8, addend: 0x0, symName: __ZNSt3__121__unordered_map_equalIyNS_17__hash_value_typeIyNS_10shared_ptrIN5hf3fs17monitor_collector13WorkloadStatsEEEEENS_8equal_toIyEENS_4hashIyEELb1EEC2B8ue170006Ev, symObjAddr: 0x80B4, symBinAddr: 0x10000D598, symSize: 0x14 }
  - { offsetInCU: 0x41817, offset: 0x58224, size: 0x8, addend: 0x0, symName: __ZNSt3__110unique_ptrIN5hf3fs16BackgroundRunnerENS_14default_deleteIS2_EEEC2B8ue170006ILb1EvEEv, symObjAddr: 0x80C8, symBinAddr: 0x10000D5AC, symSize: 0x3C }
  - { offsetInCU: 0x4184C, offset: 0x58259, size: 0x8, addend: 0x0, symName: __ZNSt3__117__compressed_pairIPN5hf3fs16BackgroundRunnerENS_14default_deleteIS2_EEEC1B8ue170006INS_16__value_init_tagES8_EEOT_OT0_, symObjAddr: 0x8104, symBinAddr: 0x10000D5E8, symSize: 0x3C }
  - { offsetInCU: 0x418A4, offset: 0x582B1, size: 0x8, addend: 0x0, symName: __ZNSt3__117__compressed_pairIPN5hf3fs16BackgroundRunnerENS_14default_deleteIS2_EEEC2B8ue170006INS_16__value_init_tagES8_EEOT_OT0_, symObjAddr: 0x8140, symBinAddr: 0x10000D624, symSize: 0x3C }
  - { offsetInCU: 0x418FC, offset: 0x58309, size: 0x8, addend: 0x0, symName: __ZNSt3__122__compressed_pair_elemIPN5hf3fs16BackgroundRunnerELi0ELb0EEC2B8ue170006ENS_16__value_init_tagE, symObjAddr: 0x817C, symBinAddr: 0x10000D660, symSize: 0x18 }
  - { offsetInCU: 0x41931, offset: 0x5833E, size: 0x8, addend: 0x0, symName: __ZNSt3__122__compressed_pair_elemINS_14default_deleteIN5hf3fs16BackgroundRunnerEEELi1ELb1EEC2B8ue170006ENS_16__value_init_tagE, symObjAddr: 0x8194, symBinAddr: 0x10000D678, symSize: 0x14 }
  - { offsetInCU: 0x41966, offset: 0x58373, size: 0x8, addend: 0x0, symName: __ZN5hf3fs5utils13CallbackGuardC2Ev, symObjAddr: 0x81A8, symBinAddr: 0x10000D68C, symSize: 0x2C }
  - { offsetInCU: 0x41990, offset: 0x5839D, size: 0x8, addend: 0x0, symName: __ZNSt3__18functionIFvvEEC1B8ue170006Ev, symObjAddr: 0x81D4, symBinAddr: 0x10000D6B8, symSize: 0x2C }
  - { offsetInCU: 0x419BA, offset: 0x583C7, size: 0x8, addend: 0x0, symName: __ZNSt3__18functionIFvvEEC2B8ue170006Ev, symObjAddr: 0x8200, symBinAddr: 0x10000D6E4, symSize: 0x2C }
  - { offsetInCU: 0x419E4, offset: 0x583F1, size: 0x8, addend: 0x0, symName: __ZNSt3__110__function12__value_funcIFvvEEC1B8ue170006Ev, symObjAddr: 0x822C, symBinAddr: 0x10000D710, symSize: 0x2C }
  - { offsetInCU: 0x41A0E, offset: 0x5841B, size: 0x8, addend: 0x0, symName: __ZNSt3__110__function12__value_funcIFvvEEC2B8ue170006Ev, symObjAddr: 0x8258, symBinAddr: 0x10000D73C, symSize: 0x18 }
  - { offsetInCU: 0x41A38, offset: 0x58445, size: 0x8, addend: 0x0, symName: __ZNSt3__18functionIFvvEEC1ERKS2_, symObjAddr: 0x8270, symBinAddr: 0x10000D754, symSize: 0x34 }
  - { offsetInCU: 0x41A73, offset: 0x58480, size: 0x8, addend: 0x0, symName: __ZN5hf3fs5utils13CallbackGuardC1ENSt3__18functionIFvvEEE, symObjAddr: 0x82A4, symBinAddr: 0x10000D788, symSize: 0x34 }
  - { offsetInCU: 0x41AAC, offset: 0x584B9, size: 0x8, addend: 0x0, symName: __ZNSt3__18functionIFvvEEC2ERKS2_, symObjAddr: 0x82D8, symBinAddr: 0x10000D7BC, symSize: 0x34 }
  - { offsetInCU: 0x41AE7, offset: 0x584F4, size: 0x8, addend: 0x0, symName: __ZNSt3__110__function12__value_funcIFvvEEC1B8ue170006ERKS3_, symObjAddr: 0x830C, symBinAddr: 0x10000D7F0, symSize: 0x34 }
  - { offsetInCU: 0x41B20, offset: 0x5852D, size: 0x8, addend: 0x0, symName: __ZNSt3__110__function12__value_funcIFvvEEC2B8ue170006ERKS3_, symObjAddr: 0x8340, symBinAddr: 0x10000D824, symSize: 0xC0 }
  - { offsetInCU: 0x41B59, offset: 0x58566, size: 0x8, addend: 0x0, symName: __ZNSt3__110__function12__value_funcIFvvEE9__as_baseB8ue170006EPv, symObjAddr: 0x8400, symBinAddr: 0x10000D8E4, symSize: 0x14 }
  - { offsetInCU: 0x41B7D, offset: 0x5858A, size: 0x8, addend: 0x0, symName: __ZN5hf3fs5utils13CallbackGuardC2ENSt3__18functionIFvvEEE, symObjAddr: 0x8414, symBinAddr: 0x10000D8F8, symSize: 0x34 }
  - { offsetInCU: 0x41BB6, offset: 0x585C3, size: 0x8, addend: 0x0, symName: __ZNSt3__18functionIFvvEEC1EOS2_, symObjAddr: 0x8448, symBinAddr: 0x10000D92C, symSize: 0x34 }
  - { offsetInCU: 0x41BF1, offset: 0x585FE, size: 0x8, addend: 0x0, symName: __ZNSt3__18functionIFvvEEC2EOS2_, symObjAddr: 0x847C, symBinAddr: 0x10000D960, symSize: 0x34 }
  - { offsetInCU: 0x41C2C, offset: 0x58639, size: 0x8, addend: 0x0, symName: __ZNSt3__110__function12__value_funcIFvvEEC1B8ue170006EOS3_, symObjAddr: 0x84B0, symBinAddr: 0x10000D994, symSize: 0x34 }
  - { offsetInCU: 0x41C65, offset: 0x58672, size: 0x8, addend: 0x0, symName: __ZNSt3__110__function12__value_funcIFvvEEC2B8ue170006EOS3_, symObjAddr: 0x84E4, symBinAddr: 0x10000D9C8, symSize: 0xC4 }
  - { offsetInCU: 0x41C9E, offset: 0x586AB, size: 0x8, addend: 0x0, symName: __ZNSt3__18functionIFvvEEaSEOS2_, symObjAddr: 0x85A8, symBinAddr: 0x10000DA8C, symSize: 0x3C }
  - { offsetInCU: 0x41CD5, offset: 0x586E2, size: 0x8, addend: 0x0, symName: __ZNSt3__110__function12__value_funcIFvvEEaSB8ue170006EOS3_, symObjAddr: 0x85E4, symBinAddr: 0x10000DAC8, symSize: 0xC0 }
  - { offsetInCU: 0x41D0A, offset: 0x58717, size: 0x8, addend: 0x0, symName: __ZNSt3__110__function12__value_funcIFvvEEaSB8ue170006EDn, symObjAddr: 0x86A4, symBinAddr: 0x10000DB88, symSize: 0x8C }
  - { offsetInCU: 0x41D4B, offset: 0x58758, size: 0x8, addend: 0x0, symName: __ZN5hf3fs5utils13CallbackGuardD2Ev, symObjAddr: 0x8730, symBinAddr: 0x10000DC14, symSize: 0x2C }
  - { offsetInCU: 0x41D77, offset: 0x58784, size: 0x8, addend: 0x0, symName: __ZN5folly17ConcurrentHashMapIyNSt3__110shared_ptrIN5hf3fs17monitor_collector13WorkloadStatsEEEED2Ev, symObjAddr: 0x875C, symBinAddr: 0x10000DC40, symSize: 0x2C }
  - { offsetInCU: 0x41DA3, offset: 0x587B0, size: 0x8, addend: 0x0, symName: __ZN5folly17ConcurrentHashMapIyNSt3__16vectorIN5hf3fs17monitor_collector15OperationRecordENS1_9allocatorIS5_EEEEED2Ev, symObjAddr: 0x8788, symBinAddr: 0x10000DC6C, symSize: 0x2C }
  - { offsetInCU: 0x41DCF, offset: 0x587DC, size: 0x8, addend: 0x0, symName: __ZNSt3__113unordered_mapIyNS_6vectorIN5hf3fs17monitor_collector15OperationRecordENS_9allocatorIS4_EEEENS_4hashIyEENS_8equal_toIyEENS5_INS_4pairIKyS7_EEEEED1B8ue170006Ev, symObjAddr: 0x87B4, symBinAddr: 0x10000DC98, symSize: 0x2C }
  - { offsetInCU: 0x41DF9, offset: 0x58806, size: 0x8, addend: 0x0, symName: __ZNSt3__113unordered_mapIyNS_6vectorIN5hf3fs17monitor_collector15OperationRecordENS_9allocatorIS4_EEEENS_4hashIyEENS_8equal_toIyEENS5_INS_4pairIKyS7_EEEEED2B8ue170006Ev, symObjAddr: 0x87E0, symBinAddr: 0x10000DCC4, symSize: 0x2C }
  - { offsetInCU: 0x41E23, offset: 0x58830, size: 0x8, addend: 0x0, symName: __ZNSt3__112__hash_tableINS_17__hash_value_typeIyNS_6vectorIN5hf3fs17monitor_collector15OperationRecordENS_9allocatorIS5_EEEEEENS_22__unordered_map_hasherIyS9_NS_4hashIyEENS_8equal_toIyEELb1EEENS_21__unordered_map_equalIyS9_SE_SC_Lb1EEENS6_IS9_EEED1Ev, symObjAddr: 0x880C, symBinAddr: 0x10000DCF0, symSize: 0x2C }
  - { offsetInCU: 0x41E4F, offset: 0x5885C, size: 0x8, addend: 0x0, symName: __ZNSt3__112__hash_tableINS_17__hash_value_typeIyNS_6vectorIN5hf3fs17monitor_collector15OperationRecordENS_9allocatorIS5_EEEEEENS_22__unordered_map_hasherIyS9_NS_4hashIyEENS_8equal_toIyEELb1EEENS_21__unordered_map_equalIyS9_SE_SC_Lb1EEENS6_IS9_EEED2Ev, symObjAddr: 0x8838, symBinAddr: 0x10000DD1C, symSize: 0x48 }
  - { offsetInCU: 0x41E7B, offset: 0x58888, size: 0x8, addend: 0x0, symName: __ZNSt3__112__hash_tableINS_17__hash_value_typeIyNS_6vectorIN5hf3fs17monitor_collector15OperationRecordENS_9allocatorIS5_EEEEEENS_22__unordered_map_hasherIyS9_NS_4hashIyEENS_8equal_toIyEELb1EEENS_21__unordered_map_equalIyS9_SE_SC_Lb1EEENS6_IS9_EEE17__deallocate_nodeEPNS_16__hash_node_baseIPNS_11__hash_nodeIS9_PvEEEE, symObjAddr: 0x8880, symBinAddr: 0x10000DD64, symSize: 0xA8 }
  - { offsetInCU: 0x41EE5, offset: 0x588F2, size: 0x8, addend: 0x0, symName: __ZNSt3__117__compressed_pairINS_16__hash_node_baseIPNS_11__hash_nodeINS_17__hash_value_typeIyNS_6vectorIN5hf3fs17monitor_collector15OperationRecordENS_9allocatorIS7_EEEEEEPvEEEENS8_ISD_EEE5firstB8ue170006Ev, symObjAddr: 0x8928, symBinAddr: 0x10000DE0C, symSize: 0x24 }
  - { offsetInCU: 0x41F0B, offset: 0x58918, size: 0x8, addend: 0x0, symName: __ZNSt3__110unique_ptrIA_PNS_16__hash_node_baseIPNS_11__hash_nodeINS_17__hash_value_typeIyNS_6vectorIN5hf3fs17monitor_collector15OperationRecordENS_9allocatorIS7_EEEEEEPvEEEENS_25__bucket_list_deallocatorINS8_ISG_EEEEED1B8ue170006Ev, symObjAddr: 0x894C, symBinAddr: 0x10000DE30, symSize: 0x2C }
  - { offsetInCU: 0x41F35, offset: 0x58942, size: 0x8, addend: 0x0, symName: __ZNSt3__112__hash_tableINS_17__hash_value_typeIyNS_6vectorIN5hf3fs17monitor_collector15OperationRecordENS_9allocatorIS5_EEEEEENS_22__unordered_map_hasherIyS9_NS_4hashIyEENS_8equal_toIyEELb1EEENS_21__unordered_map_equalIyS9_SE_SC_Lb1EEENS6_IS9_EEE12__node_allocB8ue170006Ev, symObjAddr: 0x8978, symBinAddr: 0x10000DE5C, symSize: 0x28 }
  - { offsetInCU: 0x41F5B, offset: 0x58968, size: 0x8, addend: 0x0, symName: __ZNSt3__116__hash_node_baseIPNS_11__hash_nodeINS_17__hash_value_typeIyNS_6vectorIN5hf3fs17monitor_collector15OperationRecordENS_9allocatorIS6_EEEEEEPvEEE8__upcastB8ue170006Ev, symObjAddr: 0x89A0, symBinAddr: 0x10000DE84, symSize: 0x24 }
  - { offsetInCU: 0x41F81, offset: 0x5898E, size: 0x8, addend: 0x0, symName: __ZNSt3__116allocator_traitsINS_9allocatorINS_11__hash_nodeINS_17__hash_value_typeIyNS_6vectorIN5hf3fs17monitor_collector15OperationRecordENS1_IS7_EEEEEEPvEEEEE7destroyB8ue170006INS_4pairIKyS9_EEvvEEvRSD_PT_, symObjAddr: 0x89C4, symBinAddr: 0x10000DEA8, symSize: 0x28 }
  - { offsetInCU: 0x41FBC, offset: 0x589C9, size: 0x8, addend: 0x0, symName: __ZNSt3__122__hash_key_value_typesINS_17__hash_value_typeIyNS_6vectorIN5hf3fs17monitor_collector15OperationRecordENS_9allocatorIS5_EEEEEEE9__get_ptrB8ue170006ERS9_, symObjAddr: 0x89EC, symBinAddr: 0x10000DED0, symSize: 0x24 }
  - { offsetInCU: 0x41FDF, offset: 0x589EC, size: 0x8, addend: 0x0, symName: __ZNSt3__116allocator_traitsINS_9allocatorINS_11__hash_nodeINS_17__hash_value_typeIyNS_6vectorIN5hf3fs17monitor_collector15OperationRecordENS1_IS7_EEEEEEPvEEEEE10deallocateB8ue170006ERSD_PSC_m, symObjAddr: 0x8A10, symBinAddr: 0x10000DEF4, symSize: 0x34 }
  - { offsetInCU: 0x42021, offset: 0x58A2E, size: 0x8, addend: 0x0, symName: __ZNSt3__117__compressed_pairINS_16__hash_node_baseIPNS_11__hash_nodeINS_17__hash_value_typeIyNS_6vectorIN5hf3fs17monitor_collector15OperationRecordENS_9allocatorIS7_EEEEEEPvEEEENS8_ISD_EEE6secondB8ue170006Ev, symObjAddr: 0x8A44, symBinAddr: 0x10000DF28, symSize: 0x24 }
  - { offsetInCU: 0x42047, offset: 0x58A54, size: 0x8, addend: 0x0, symName: __ZNSt3__122__compressed_pair_elemINS_9allocatorINS_11__hash_nodeINS_17__hash_value_typeIyNS_6vectorIN5hf3fs17monitor_collector15OperationRecordENS1_IS7_EEEEEEPvEEEELi1ELb1EE5__getB8ue170006Ev, symObjAddr: 0x8A68, symBinAddr: 0x10000DF4C, symSize: 0x14 }
  - { offsetInCU: 0x4206D, offset: 0x58A7A, size: 0x8, addend: 0x0, symName: __ZNSt3__114pointer_traitsIPNS_16__hash_node_baseIPNS_11__hash_nodeINS_17__hash_value_typeIyNS_6vectorIN5hf3fs17monitor_collector15OperationRecordENS_9allocatorIS7_EEEEEEPvEEEEE10pointer_toB8ue170006ERSF_, symObjAddr: 0x8A7C, symBinAddr: 0x10000DF60, symSize: 0x14 }
  - { offsetInCU: 0x42090, offset: 0x58A9D, size: 0x8, addend: 0x0, symName: __ZNSt3__14pairIKyNS_6vectorIN5hf3fs17monitor_collector15OperationRecordENS_9allocatorIS5_EEEEED1Ev, symObjAddr: 0x8A90, symBinAddr: 0x10000DF74, symSize: 0x2C }
  - { offsetInCU: 0x420BC, offset: 0x58AC9, size: 0x8, addend: 0x0, symName: __ZNSt3__14pairIKyNS_6vectorIN5hf3fs17monitor_collector15OperationRecordENS_9allocatorIS5_EEEEED2Ev, symObjAddr: 0x8ABC, symBinAddr: 0x10000DFA0, symSize: 0x30 }
  - { offsetInCU: 0x420E8, offset: 0x58AF5, size: 0x8, addend: 0x0, symName: __ZNSt3__16vectorIN5hf3fs17monitor_collector15OperationRecordENS_9allocatorIS3_EEED1B8ue170006Ev, symObjAddr: 0x8AEC, symBinAddr: 0x10000DFD0, symSize: 0x2C }
  - { offsetInCU: 0x42112, offset: 0x58B1F, size: 0x8, addend: 0x0, symName: __ZNSt3__16vectorIN5hf3fs17monitor_collector15OperationRecordENS_9allocatorIS3_EEED2B8ue170006Ev, symObjAddr: 0x8B18, symBinAddr: 0x10000DFFC, symSize: 0x44 }
  - { offsetInCU: 0x4213C, offset: 0x58B49, size: 0x8, addend: 0x0, symName: __ZNSt3__16vectorIN5hf3fs17monitor_collector15OperationRecordENS_9allocatorIS3_EEE16__destroy_vectorC1B8ue170006ERS6_, symObjAddr: 0x8B5C, symBinAddr: 0x10000E040, symSize: 0x34 }
  - { offsetInCU: 0x42175, offset: 0x58B82, size: 0x8, addend: 0x0, symName: __ZNSt3__16vectorIN5hf3fs17monitor_collector15OperationRecordENS_9allocatorIS3_EEE16__destroy_vectorclB8ue170006Ev, symObjAddr: 0x8B90, symBinAddr: 0x10000E074, symSize: 0x90 }
  - { offsetInCU: 0x4219B, offset: 0x58BA8, size: 0x8, addend: 0x0, symName: __ZNSt3__16vectorIN5hf3fs17monitor_collector15OperationRecordENS_9allocatorIS3_EEE16__destroy_vectorC2B8ue170006ERS6_, symObjAddr: 0x8C20, symBinAddr: 0x10000E104, symSize: 0x20 }
  - { offsetInCU: 0x421D4, offset: 0x58BE1, size: 0x8, addend: 0x0, symName: __ZNSt3__16vectorIN5hf3fs17monitor_collector15OperationRecordENS_9allocatorIS3_EEE7__clearB8ue170006Ev, symObjAddr: 0x8C40, symBinAddr: 0x10000E124, symSize: 0x28 }
  - { offsetInCU: 0x421FA, offset: 0x58C07, size: 0x8, addend: 0x0, symName: __ZNKSt3__16vectorIN5hf3fs17monitor_collector15OperationRecordENS_9allocatorIS3_EEE17__annotate_deleteB8ue170006Ev, symObjAddr: 0x8C68, symBinAddr: 0x10000E14C, symSize: 0xD4 }
  - { offsetInCU: 0x42220, offset: 0x58C2D, size: 0x8, addend: 0x0, symName: __ZNSt3__116allocator_traitsINS_9allocatorIN5hf3fs17monitor_collector15OperationRecordEEEE10deallocateB8ue170006ERS5_PS4_m, symObjAddr: 0x8D3C, symBinAddr: 0x10000E220, symSize: 0x34 }
  - { offsetInCU: 0x42262, offset: 0x58C6F, size: 0x8, addend: 0x0, symName: __ZNSt3__16vectorIN5hf3fs17monitor_collector15OperationRecordENS_9allocatorIS3_EEE7__allocB8ue170006Ev, symObjAddr: 0x8D70, symBinAddr: 0x10000E254, symSize: 0x28 }
  - { offsetInCU: 0x42288, offset: 0x58C95, size: 0x8, addend: 0x0, symName: __ZNKSt3__16vectorIN5hf3fs17monitor_collector15OperationRecordENS_9allocatorIS3_EEE8capacityB8ue170006Ev, symObjAddr: 0x8D98, symBinAddr: 0x10000E27C, symSize: 0x40 }
  - { offsetInCU: 0x422AE, offset: 0x58CBB, size: 0x8, addend: 0x0, symName: __ZNSt3__16vectorIN5hf3fs17monitor_collector15OperationRecordENS_9allocatorIS3_EEE22__base_destruct_at_endB8ue170006EPS3_, symObjAddr: 0x8DD8, symBinAddr: 0x10000E2BC, symSize: 0x8C }
  - { offsetInCU: 0x422F2, offset: 0x58CFF, size: 0x8, addend: 0x0, symName: __ZNSt3__116allocator_traitsINS_9allocatorIN5hf3fs17monitor_collector15OperationRecordEEEE7destroyB8ue170006IS4_vEEvRS5_PT_, symObjAddr: 0x8E64, symBinAddr: 0x10000E348, symSize: 0x2C }
  - { offsetInCU: 0x4232F, offset: 0x58D3C, size: 0x8, addend: 0x0, symName: __ZNSt3__19allocatorIN5hf3fs17monitor_collector15OperationRecordEE7destroyB8ue170006EPS3_, symObjAddr: 0x8EA4, symBinAddr: 0x10000E388, symSize: 0x28 }
  - { offsetInCU: 0x42368, offset: 0x58D75, size: 0x8, addend: 0x0, symName: __ZNKSt3__16vectorIN5hf3fs17monitor_collector15OperationRecordENS_9allocatorIS3_EEE31__annotate_contiguous_containerB8ue170006EPKvS8_S8_S8_, symObjAddr: 0x8F34, symBinAddr: 0x10000E3B0, symSize: 0x20 }
  - { offsetInCU: 0x423BE, offset: 0x58DCB, size: 0x8, addend: 0x0, symName: __ZNKSt3__16vectorIN5hf3fs17monitor_collector15OperationRecordENS_9allocatorIS3_EEE4dataB8ue170006Ev, symObjAddr: 0x8F54, symBinAddr: 0x10000E3D0, symSize: 0x28 }
  - { offsetInCU: 0x423E4, offset: 0x58DF1, size: 0x8, addend: 0x0, symName: __ZNKSt3__16vectorIN5hf3fs17monitor_collector15OperationRecordENS_9allocatorIS3_EEE4sizeB8ue170006Ev, symObjAddr: 0x8F7C, symBinAddr: 0x10000E3F8, symSize: 0x28 }
  - { offsetInCU: 0x4240A, offset: 0x58E17, size: 0x8, addend: 0x0, symName: __ZNSt3__19allocatorIN5hf3fs17monitor_collector15OperationRecordEE10deallocateB8ue170006EPS3_m, symObjAddr: 0x8FA4, symBinAddr: 0x10000E420, symSize: 0x44 }
  - { offsetInCU: 0x4244C, offset: 0x58E59, size: 0x8, addend: 0x0, symName: __ZNSt3__117__compressed_pairIPN5hf3fs17monitor_collector15OperationRecordENS_9allocatorIS3_EEE6secondB8ue170006Ev, symObjAddr: 0x8FE8, symBinAddr: 0x10000E464, symSize: 0x24 }
  - { offsetInCU: 0x42472, offset: 0x58E7F, size: 0x8, addend: 0x0, symName: __ZNSt3__122__compressed_pair_elemINS_9allocatorIN5hf3fs17monitor_collector15OperationRecordEEELi1ELb1EE5__getB8ue170006Ev, symObjAddr: 0x900C, symBinAddr: 0x10000E488, symSize: 0x14 }
  - { offsetInCU: 0x42498, offset: 0x58EA5, size: 0x8, addend: 0x0, symName: __ZNKSt3__16vectorIN5hf3fs17monitor_collector15OperationRecordENS_9allocatorIS3_EEE9__end_capB8ue170006Ev, symObjAddr: 0x9020, symBinAddr: 0x10000E49C, symSize: 0x28 }
  - { offsetInCU: 0x424BE, offset: 0x58ECB, size: 0x8, addend: 0x0, symName: __ZNKSt3__117__compressed_pairIPN5hf3fs17monitor_collector15OperationRecordENS_9allocatorIS3_EEE5firstB8ue170006Ev, symObjAddr: 0x9048, symBinAddr: 0x10000E4C4, symSize: 0x24 }
  - { offsetInCU: 0x424E4, offset: 0x58EF1, size: 0x8, addend: 0x0, symName: __ZNKSt3__122__compressed_pair_elemIPN5hf3fs17monitor_collector15OperationRecordELi0ELb0EE5__getB8ue170006Ev, symObjAddr: 0x906C, symBinAddr: 0x10000E4E8, symSize: 0x14 }
  - { offsetInCU: 0x4250A, offset: 0x58F17, size: 0x8, addend: 0x0, symName: __ZNSt3__117__hash_value_typeIyNS_6vectorIN5hf3fs17monitor_collector15OperationRecordENS_9allocatorIS4_EEEEE11__get_valueB8ue170006Ev, symObjAddr: 0x9080, symBinAddr: 0x10000E4FC, symSize: 0x24 }
  - { offsetInCU: 0x42530, offset: 0x58F3D, size: 0x8, addend: 0x0, symName: __ZNSt3__19allocatorINS_11__hash_nodeINS_17__hash_value_typeIyNS_6vectorIN5hf3fs17monitor_collector15OperationRecordENS0_IS6_EEEEEEPvEEE10deallocateB8ue170006EPSB_m, symObjAddr: 0x90DC, symBinAddr: 0x10000E558, symSize: 0x44 }
  - { offsetInCU: 0x42572, offset: 0x58F7F, size: 0x8, addend: 0x0, symName: __ZNSt3__122__compressed_pair_elemINS_16__hash_node_baseIPNS_11__hash_nodeINS_17__hash_value_typeIyNS_6vectorIN5hf3fs17monitor_collector15OperationRecordENS_9allocatorIS7_EEEEEEPvEEEELi0ELb0EE5__getB8ue170006Ev, symObjAddr: 0x9120, symBinAddr: 0x10000E59C, symSize: 0x14 }
  - { offsetInCU: 0x42598, offset: 0x58FA5, size: 0x8, addend: 0x0, symName: __ZNSt3__110unique_ptrIA_PNS_16__hash_node_baseIPNS_11__hash_nodeINS_17__hash_value_typeIyNS_6vectorIN5hf3fs17monitor_collector15OperationRecordENS_9allocatorIS7_EEEEEEPvEEEENS_25__bucket_list_deallocatorINS8_ISG_EEEEED2B8ue170006Ev, symObjAddr: 0x9134, symBinAddr: 0x10000E5B0, symSize: 0x30 }
  - { offsetInCU: 0x425C2, offset: 0x58FCF, size: 0x8, addend: 0x0, symName: __ZNSt3__110unique_ptrIA_PNS_16__hash_node_baseIPNS_11__hash_nodeINS_17__hash_value_typeIyNS_6vectorIN5hf3fs17monitor_collector15OperationRecordENS_9allocatorIS7_EEEEEEPvEEEENS_25__bucket_list_deallocatorINS8_ISG_EEEEE5resetB8ue170006EDn, symObjAddr: 0x9164, symBinAddr: 0x10000E5E0, symSize: 0x6C }
  - { offsetInCU: 0x42603, offset: 0x59010, size: 0x8, addend: 0x0, symName: __ZNSt3__117__compressed_pairIPPNS_16__hash_node_baseIPNS_11__hash_nodeINS_17__hash_value_typeIyNS_6vectorIN5hf3fs17monitor_collector15OperationRecordENS_9allocatorIS7_EEEEEEPvEEEENS_25__bucket_list_deallocatorINS8_ISG_EEEEE5firstB8ue170006Ev, symObjAddr: 0x91D0, symBinAddr: 0x10000E64C, symSize: 0x24 }
  - { offsetInCU: 0x42629, offset: 0x59036, size: 0x8, addend: 0x0, symName: __ZNSt3__117__compressed_pairIPPNS_16__hash_node_baseIPNS_11__hash_nodeINS_17__hash_value_typeIyNS_6vectorIN5hf3fs17monitor_collector15OperationRecordENS_9allocatorIS7_EEEEEEPvEEEENS_25__bucket_list_deallocatorINS8_ISG_EEEEE6secondB8ue170006Ev, symObjAddr: 0x91F4, symBinAddr: 0x10000E670, symSize: 0x28 }
  - { offsetInCU: 0x4264F, offset: 0x5905C, size: 0x8, addend: 0x0, symName: __ZNSt3__125__bucket_list_deallocatorINS_9allocatorIPNS_16__hash_node_baseIPNS_11__hash_nodeINS_17__hash_value_typeIyNS_6vectorIN5hf3fs17monitor_collector15OperationRecordENS1_IS8_EEEEEEPvEEEEEEEclB8ue170006EPSG_, symObjAddr: 0x921C, symBinAddr: 0x10000E698, symSize: 0x58 }
  - { offsetInCU: 0x42684, offset: 0x59091, size: 0x8, addend: 0x0, symName: __ZNSt3__122__compressed_pair_elemIPPNS_16__hash_node_baseIPNS_11__hash_nodeINS_17__hash_value_typeIyNS_6vectorIN5hf3fs17monitor_collector15OperationRecordENS_9allocatorIS7_EEEEEEPvEEEELi0ELb0EE5__getB8ue170006Ev, symObjAddr: 0x9274, symBinAddr: 0x10000E6F0, symSize: 0x14 }
  - { offsetInCU: 0x426AA, offset: 0x590B7, size: 0x8, addend: 0x0, symName: __ZNSt3__122__compressed_pair_elemINS_25__bucket_list_deallocatorINS_9allocatorIPNS_16__hash_node_baseIPNS_11__hash_nodeINS_17__hash_value_typeIyNS_6vectorIN5hf3fs17monitor_collector15OperationRecordENS2_IS9_EEEEEEPvEEEEEEEELi1ELb0EE5__getB8ue170006Ev, symObjAddr: 0x9288, symBinAddr: 0x10000E704, symSize: 0x14 }
  - { offsetInCU: 0x426D0, offset: 0x590DD, size: 0x8, addend: 0x0, symName: __ZNSt3__116allocator_traitsINS_9allocatorIPNS_16__hash_node_baseIPNS_11__hash_nodeINS_17__hash_value_typeIyNS_6vectorIN5hf3fs17monitor_collector15OperationRecordENS1_IS8_EEEEEEPvEEEEEEE10deallocateB8ue170006ERSH_PSG_m, symObjAddr: 0x929C, symBinAddr: 0x10000E718, symSize: 0x34 }
  - { offsetInCU: 0x42712, offset: 0x5911F, size: 0x8, addend: 0x0, symName: __ZNSt3__125__bucket_list_deallocatorINS_9allocatorIPNS_16__hash_node_baseIPNS_11__hash_nodeINS_17__hash_value_typeIyNS_6vectorIN5hf3fs17monitor_collector15OperationRecordENS1_IS8_EEEEEEPvEEEEEEE7__allocB8ue170006Ev, symObjAddr: 0x92D0, symBinAddr: 0x10000E74C, symSize: 0x24 }
  - { offsetInCU: 0x42738, offset: 0x59145, size: 0x8, addend: 0x0, symName: __ZNSt3__125__bucket_list_deallocatorINS_9allocatorIPNS_16__hash_node_baseIPNS_11__hash_nodeINS_17__hash_value_typeIyNS_6vectorIN5hf3fs17monitor_collector15OperationRecordENS1_IS8_EEEEEEPvEEEEEEE4sizeB8ue170006Ev, symObjAddr: 0x92F4, symBinAddr: 0x10000E770, symSize: 0x24 }
  - { offsetInCU: 0x4275E, offset: 0x5916B, size: 0x8, addend: 0x0, symName: __ZNSt3__19allocatorIPNS_16__hash_node_baseIPNS_11__hash_nodeINS_17__hash_value_typeIyNS_6vectorIN5hf3fs17monitor_collector15OperationRecordENS0_IS7_EEEEEEPvEEEEE10deallocateB8ue170006EPSF_m, symObjAddr: 0x9318, symBinAddr: 0x10000E794, symSize: 0x40 }
  - { offsetInCU: 0x427A0, offset: 0x591AD, size: 0x8, addend: 0x0, symName: __ZNSt3__117__compressed_pairImNS_9allocatorIPNS_16__hash_node_baseIPNS_11__hash_nodeINS_17__hash_value_typeIyNS_6vectorIN5hf3fs17monitor_collector15OperationRecordENS1_IS8_EEEEEEPvEEEEEEE6secondB8ue170006Ev, symObjAddr: 0x9358, symBinAddr: 0x10000E7D4, symSize: 0x24 }
  - { offsetInCU: 0x427C6, offset: 0x591D3, size: 0x8, addend: 0x0, symName: __ZNSt3__122__compressed_pair_elemINS_9allocatorIPNS_16__hash_node_baseIPNS_11__hash_nodeINS_17__hash_value_typeIyNS_6vectorIN5hf3fs17monitor_collector15OperationRecordENS1_IS8_EEEEEEPvEEEEEELi1ELb1EE5__getB8ue170006Ev, symObjAddr: 0x937C, symBinAddr: 0x10000E7F8, symSize: 0x14 }
  - { offsetInCU: 0x427EC, offset: 0x591F9, size: 0x8, addend: 0x0, symName: __ZNSt3__117__compressed_pairImNS_9allocatorIPNS_16__hash_node_baseIPNS_11__hash_nodeINS_17__hash_value_typeIyNS_6vectorIN5hf3fs17monitor_collector15OperationRecordENS1_IS8_EEEEEEPvEEEEEEE5firstB8ue170006Ev, symObjAddr: 0x9390, symBinAddr: 0x10000E80C, symSize: 0x24 }
  - { offsetInCU: 0x42812, offset: 0x5921F, size: 0x8, addend: 0x0, symName: __ZN5hf3fs6ResultINS_4VoidENSt3__112basic_stringIcNS2_11char_traitsIcEENS2_9allocatorIcEEEEEC1ES1_, symObjAddr: 0x93E4, symBinAddr: 0x10000E830, symSize: 0x2C }
  - { offsetInCU: 0x4284A, offset: 0x59257, size: 0x8, addend: 0x0, symName: __ZN5hf3fs6ResultINS_4VoidENSt3__112basic_stringIcNS2_11char_traitsIcEENS2_9allocatorIcEEEEEC2ES1_, symObjAddr: 0x9410, symBinAddr: 0x10000E85C, symSize: 0x38 }
  - { offsetInCU: 0x42882, offset: 0x5928F, size: 0x8, addend: 0x0, symName: __ZNSt3__16chrono8durationIxNS_5ratioILl1ELl1000EEEEC2B8ue170006IyEERKT_PNS_9enable_ifIXaasr14is_convertibleIS8_xEE5valueooL_ZNS_17integral_constantIbLb0EE5valueEEntsr23treat_as_floating_pointIS6_EE5valueEvE4typeE, symObjAddr: 0x9448, symBinAddr: 0x10000E894, symSize: 0x28 }
  - { offsetInCU: 0x428D9, offset: 0x592E6, size: 0x8, addend: 0x0, symName: __ZNSt3__110shared_ptrIN5hf3fs17monitor_collector13WorkloadStatsEEC2B8ue170006EDn, symObjAddr: 0x959C, symBinAddr: 0x10000E8BC, symSize: 0x20 }
  - { offsetInCU: 0x4290F, offset: 0x5931C, size: 0x8, addend: 0x0, symName: __ZNKSt3__111__wrap_iterIPNS_10shared_ptrIN5hf3fs17monitor_collector13WorkloadStatsEEEE4baseB8ue170006Ev, symObjAddr: 0x9604, symBinAddr: 0x10000E924, symSize: 0x18 }
  - { offsetInCU: 0x42935, offset: 0x59342, size: 0x8, addend: 0x0, symName: __ZN5folly7dynamicC2ERKS0_, symObjAddr: 0x961C, symBinAddr: 0x10000E93C, symSize: 0xD4 }
  - { offsetInCU: 0x4296A, offset: 0x59377, size: 0x8, addend: 0x0, symName: __ZNSt3__113unordered_mapINS_12basic_stringIcNS_11char_traitsIcEENS_9allocatorIcEEEEN5folly7dynamicENS_4hashIS6_EENS_8equal_toIS6_EENS4_INS_4pairIKS6_S8_EEEEEC1ERKSH_, symObjAddr: 0x96F0, symBinAddr: 0x10000EA10, symSize: 0x34 }
  - { offsetInCU: 0x429A5, offset: 0x593B2, size: 0x8, addend: 0x0, symName: __ZNSt3__16vectorIN5folly7dynamicENS_9allocatorIS2_EEEC1ERKS5_, symObjAddr: 0x9724, symBinAddr: 0x10000EA44, symSize: 0x34 }
  - { offsetInCU: 0x429E0, offset: 0x593ED, size: 0x8, addend: 0x0, symName: __ZNSt3__113unordered_mapINS_12basic_stringIcNS_11char_traitsIcEENS_9allocatorIcEEEEN5folly7dynamicENS_4hashIS6_EENS_8equal_toIS6_EENS4_INS_4pairIKS6_S8_EEEEEC2ERKSH_, symObjAddr: 0x9758, symBinAddr: 0x10000EA78, symSize: 0xA0 }
  - { offsetInCU: 0x42A1B, offset: 0x59428, size: 0x8, addend: 0x0, symName: __ZNSt3__112__hash_tableINS_17__hash_value_typeINS_12basic_stringIcNS_11char_traitsIcEENS_9allocatorIcEEEEN5folly7dynamicEEENS_22__unordered_map_hasherIS7_SA_NS_4hashIS7_EENS_8equal_toIS7_EELb1EEENS_21__unordered_map_equalIS7_SA_SF_SD_Lb1EEENS5_ISA_EEEC1ERKSK_, symObjAddr: 0x97F8, symBinAddr: 0x10000EB18, symSize: 0x34 }
  - { offsetInCU: 0x42A56, offset: 0x59463, size: 0x8, addend: 0x0, symName: __ZNSt3__112__hash_tableINS_17__hash_value_typeINS_12basic_stringIcNS_11char_traitsIcEENS_9allocatorIcEEEEN5folly7dynamicEEENS_22__unordered_map_hasherIS7_SA_NS_4hashIS7_EENS_8equal_toIS7_EELb1EEENS_21__unordered_map_equalIS7_SA_SF_SD_Lb1EEENS5_ISA_EEE15__rehash_uniqueB8ue170006Em, symObjAddr: 0x982C, symBinAddr: 0x10000EB4C, symSize: 0x2C }
  - { offsetInCU: 0x42A8B, offset: 0x59498, size: 0x8, addend: 0x0, symName: __ZNKSt3__113unordered_mapINS_12basic_stringIcNS_11char_traitsIcEENS_9allocatorIcEEEEN5folly7dynamicENS_4hashIS6_EENS_8equal_toIS6_EENS4_INS_4pairIKS6_S8_EEEEE12bucket_countB8ue170006Ev, symObjAddr: 0x9858, symBinAddr: 0x10000EB78, symSize: 0x24 }
  - { offsetInCU: 0x42AB1, offset: 0x594BE, size: 0x8, addend: 0x0, symName: __ZNSt3__113unordered_mapINS_12basic_stringIcNS_11char_traitsIcEENS_9allocatorIcEEEEN5folly7dynamicENS_4hashIS6_EENS_8equal_toIS6_EENS4_INS_4pairIKS6_S8_EEEEE6insertINS_25__hash_map_const_iteratorINS_21__hash_const_iteratorIPNS_11__hash_nodeINS_17__hash_value_typeIS6_S8_EEPvEEEEEEEEvT_ST_, symObjAddr: 0x987C, symBinAddr: 0x10000EB9C, symSize: 0x70 }
  - { offsetInCU: 0x42B00, offset: 0x5950D, size: 0x8, addend: 0x0, symName: __ZNKSt3__113unordered_mapINS_12basic_stringIcNS_11char_traitsIcEENS_9allocatorIcEEEEN5folly7dynamicENS_4hashIS6_EENS_8equal_toIS6_EENS4_INS_4pairIKS6_S8_EEEEE5beginB8ue170006Ev, symObjAddr: 0x98EC, symBinAddr: 0x10000EC0C, symSize: 0x38 }
  - { offsetInCU: 0x42B26, offset: 0x59533, size: 0x8, addend: 0x0, symName: __ZNKSt3__113unordered_mapINS_12basic_stringIcNS_11char_traitsIcEENS_9allocatorIcEEEEN5folly7dynamicENS_4hashIS6_EENS_8equal_toIS6_EENS4_INS_4pairIKS6_S8_EEEEE3endB8ue170006Ev, symObjAddr: 0x9924, symBinAddr: 0x10000EC44, symSize: 0x38 }
  - { offsetInCU: 0x42B4C, offset: 0x59559, size: 0x8, addend: 0x0, symName: __ZNSt3__112__hash_tableINS_17__hash_value_typeINS_12basic_stringIcNS_11char_traitsIcEENS_9allocatorIcEEEEN5folly7dynamicEEENS_22__unordered_map_hasherIS7_SA_NS_4hashIS7_EENS_8equal_toIS7_EELb1EEENS_21__unordered_map_equalIS7_SA_SF_SD_Lb1EEENS5_ISA_EEEC2ERKSK_, symObjAddr: 0x995C, symBinAddr: 0x10000EC7C, symSize: 0xEC }
  - { offsetInCU: 0x42B91, offset: 0x5959E, size: 0x8, addend: 0x0, symName: __ZNSt3__116allocator_traitsINS_9allocatorIPNS_16__hash_node_baseIPNS_11__hash_nodeINS_17__hash_value_typeINS_12basic_stringIcNS_11char_traitsIcEENS1_IcEEEEN5folly7dynamicEEEPvEEEEEEE37select_on_container_copy_constructionB8ue170006ISI_vvEESI_RKSI_, symObjAddr: 0x9A48, symBinAddr: 0x10000ED68, symSize: 0x10 }
  - { offsetInCU: 0x42BC0, offset: 0x595CD, size: 0x8, addend: 0x0, symName: __ZNKSt3__110unique_ptrIA_PNS_16__hash_node_baseIPNS_11__hash_nodeINS_17__hash_value_typeINS_12basic_stringIcNS_11char_traitsIcEENS_9allocatorIcEEEEN5folly7dynamicEEEPvEEEENS_25__bucket_list_deallocatorINS7_ISH_EEEEE11get_deleterB8ue170006Ev, symObjAddr: 0x9A58, symBinAddr: 0x10000ED78, symSize: 0x24 }
  - { offsetInCU: 0x42BE6, offset: 0x595F3, size: 0x8, addend: 0x0, symName: __ZNKSt3__125__bucket_list_deallocatorINS_9allocatorIPNS_16__hash_node_baseIPNS_11__hash_nodeINS_17__hash_value_typeINS_12basic_stringIcNS_11char_traitsIcEENS1_IcEEEEN5folly7dynamicEEEPvEEEEEEE7__allocB8ue170006Ev, symObjAddr: 0x9A7C, symBinAddr: 0x10000ED9C, symSize: 0x24 }
  - { offsetInCU: 0x42C0C, offset: 0x59619, size: 0x8, addend: 0x0, symName: __ZNSt3__125__bucket_list_deallocatorINS_9allocatorIPNS_16__hash_node_baseIPNS_11__hash_nodeINS_17__hash_value_typeINS_12basic_stringIcNS_11char_traitsIcEENS1_IcEEEEN5folly7dynamicEEEPvEEEEEEEC1B8ue170006ERKSI_m, symObjAddr: 0x9AA0, symBinAddr: 0x10000EDC0, symSize: 0x3C }
  - { offsetInCU: 0x42C54, offset: 0x59661, size: 0x8, addend: 0x0, symName: __ZNSt3__110unique_ptrIA_PNS_16__hash_node_baseIPNS_11__hash_nodeINS_17__hash_value_typeINS_12basic_stringIcNS_11char_traitsIcEENS_9allocatorIcEEEEN5folly7dynamicEEEPvEEEENS_25__bucket_list_deallocatorINS7_ISH_EEEEEC1B8ue170006ILb1EvEEDnNS_16__dependent_typeINS_27__unique_ptr_deleter_sfinaeISL_EEXT_EE20__good_rval_ref_typeE, symObjAddr: 0x9ADC, symBinAddr: 0x10000EDFC, symSize: 0x3C }
  - { offsetInCU: 0x42CAE, offset: 0x596BB, size: 0x8, addend: 0x0, symName: __ZNSt3__116allocator_traitsINS_9allocatorINS_11__hash_nodeINS_17__hash_value_typeINS_12basic_stringIcNS_11char_traitsIcEENS1_IcEEEEN5folly7dynamicEEEPvEEEEE37select_on_container_copy_constructionB8ue170006ISE_vvEESE_RKSE_, symObjAddr: 0x9B18, symBinAddr: 0x10000EE38, symSize: 0x10 }
  - { offsetInCU: 0x42CDD, offset: 0x596EA, size: 0x8, addend: 0x0, symName: __ZNKSt3__112__hash_tableINS_17__hash_value_typeINS_12basic_stringIcNS_11char_traitsIcEENS_9allocatorIcEEEEN5folly7dynamicEEENS_22__unordered_map_hasherIS7_SA_NS_4hashIS7_EENS_8equal_toIS7_EELb1EEENS_21__unordered_map_equalIS7_SA_SF_SD_Lb1EEENS5_ISA_EEE12__node_allocB8ue170006Ev, symObjAddr: 0x9B28, symBinAddr: 0x10000EE48, symSize: 0x28 }
  - { offsetInCU: 0x42D09, offset: 0x59716, size: 0x8, addend: 0x0, symName: __ZNSt3__117__compressed_pairINS_16__hash_node_baseIPNS_11__hash_nodeINS_17__hash_value_typeINS_12basic_stringIcNS_11char_traitsIcEENS_9allocatorIcEEEEN5folly7dynamicEEEPvEEEENS7_ISE_EEEC1B8ue170006INS_18__default_init_tagESH_EEOT_OT0_, symObjAddr: 0x9B50, symBinAddr: 0x10000EE70, symSize: 0x3C }
  - { offsetInCU: 0x42D61, offset: 0x5976E, size: 0x8, addend: 0x0, symName: __ZNKSt3__112__hash_tableINS_17__hash_value_typeINS_12basic_stringIcNS_11char_traitsIcEENS_9allocatorIcEEEEN5folly7dynamicEEENS_22__unordered_map_hasherIS7_SA_NS_4hashIS7_EENS_8equal_toIS7_EELb1EEENS_21__unordered_map_equalIS7_SA_SF_SD_Lb1EEENS5_ISA_EEE13hash_functionB8ue170006Ev, symObjAddr: 0x9B8C, symBinAddr: 0x10000EEAC, symSize: 0x28 }
  - { offsetInCU: 0x42D87, offset: 0x59794, size: 0x8, addend: 0x0, symName: __ZNSt3__117__compressed_pairImNS_22__unordered_map_hasherINS_12basic_stringIcNS_11char_traitsIcEENS_9allocatorIcEEEENS_17__hash_value_typeIS7_N5folly7dynamicEEENS_4hashIS7_EENS_8equal_toIS7_EELb1EEEEC1B8ue170006IiRKSG_EEOT_OT0_, symObjAddr: 0x9BB4, symBinAddr: 0x10000EED4, symSize: 0x3C }
  - { offsetInCU: 0x42DDF, offset: 0x597EC, size: 0x8, addend: 0x0, symName: __ZNKSt3__117__compressed_pairIPPNS_16__hash_node_baseIPNS_11__hash_nodeINS_17__hash_value_typeINS_12basic_stringIcNS_11char_traitsIcEENS_9allocatorIcEEEEN5folly7dynamicEEEPvEEEENS_25__bucket_list_deallocatorINS7_ISH_EEEEE6secondB8ue170006Ev, symObjAddr: 0x9BF0, symBinAddr: 0x10000EF10, symSize: 0x28 }
  - { offsetInCU: 0x42E05, offset: 0x59812, size: 0x8, addend: 0x0, symName: __ZNKSt3__122__compressed_pair_elemINS_25__bucket_list_deallocatorINS_9allocatorIPNS_16__hash_node_baseIPNS_11__hash_nodeINS_17__hash_value_typeINS_12basic_stringIcNS_11char_traitsIcEENS2_IcEEEEN5folly7dynamicEEEPvEEEEEEEELi1ELb0EE5__getB8ue170006Ev, symObjAddr: 0x9C18, symBinAddr: 0x10000EF38, symSize: 0x14 }
  - { offsetInCU: 0x42E2B, offset: 0x59838, size: 0x8, addend: 0x0, symName: __ZNKSt3__117__compressed_pairImNS_9allocatorIPNS_16__hash_node_baseIPNS_11__hash_nodeINS_17__hash_value_typeINS_12basic_stringIcNS_11char_traitsIcEENS1_IcEEEEN5folly7dynamicEEEPvEEEEEEE6secondB8ue170006Ev, symObjAddr: 0x9C2C, symBinAddr: 0x10000EF4C, symSize: 0x24 }
  - { offsetInCU: 0x42E51, offset: 0x5985E, size: 0x8, addend: 0x0, symName: __ZNKSt3__122__compressed_pair_elemINS_9allocatorIPNS_16__hash_node_baseIPNS_11__hash_nodeINS_17__hash_value_typeINS_12basic_stringIcNS_11char_traitsIcEENS1_IcEEEEN5folly7dynamicEEEPvEEEEEELi1ELb1EE5__getB8ue170006Ev, symObjAddr: 0x9C50, symBinAddr: 0x10000EF70, symSize: 0x14 }
  - { offsetInCU: 0x42E77, offset: 0x59884, size: 0x8, addend: 0x0, symName: __ZNSt3__125__bucket_list_deallocatorINS_9allocatorIPNS_16__hash_node_baseIPNS_11__hash_nodeINS_17__hash_value_typeINS_12basic_stringIcNS_11char_traitsIcEENS1_IcEEEEN5folly7dynamicEEEPvEEEEEEEC2B8ue170006ERKSI_m, symObjAddr: 0x9C64, symBinAddr: 0x10000EF84, symSize: 0x44 }
  - { offsetInCU: 0x42EBF, offset: 0x598CC, size: 0x8, addend: 0x0, symName: __ZNSt3__117__compressed_pairImNS_9allocatorIPNS_16__hash_node_baseIPNS_11__hash_nodeINS_17__hash_value_typeINS_12basic_stringIcNS_11char_traitsIcEENS1_IcEEEEN5folly7dynamicEEEPvEEEEEEEC1B8ue170006IRmRKSI_EEOT_OT0_, symObjAddr: 0x9CA8, symBinAddr: 0x10000EFC8, symSize: 0x3C }
  - { offsetInCU: 0x42F17, offset: 0x59924, size: 0x8, addend: 0x0, symName: __ZNSt3__117__compressed_pairImNS_9allocatorIPNS_16__hash_node_baseIPNS_11__hash_nodeINS_17__hash_value_typeINS_12basic_stringIcNS_11char_traitsIcEENS1_IcEEEEN5folly7dynamicEEEPvEEEEEEEC2B8ue170006IRmRKSI_EEOT_OT0_, symObjAddr: 0x9CE4, symBinAddr: 0x10000F004, symSize: 0x44 }
  - { offsetInCU: 0x42F6F, offset: 0x5997C, size: 0x8, addend: 0x0, symName: __ZNSt3__122__compressed_pair_elemImLi0ELb0EEC2B8ue170006IRmvEEOT_, symObjAddr: 0x9D28, symBinAddr: 0x10000F048, symSize: 0x24 }
  - { offsetInCU: 0x42FB1, offset: 0x599BE, size: 0x8, addend: 0x0, symName: __ZNSt3__122__compressed_pair_elemINS_9allocatorIPNS_16__hash_node_baseIPNS_11__hash_nodeINS_17__hash_value_typeINS_12basic_stringIcNS_11char_traitsIcEENS1_IcEEEEN5folly7dynamicEEEPvEEEEEELi1ELb1EEC2B8ue170006IRKSI_vEEOT_, symObjAddr: 0x9D4C, symBinAddr: 0x10000F06C, symSize: 0x18 }
  - { offsetInCU: 0x42FF3, offset: 0x59A00, size: 0x8, addend: 0x0, symName: __ZNSt3__110unique_ptrIA_PNS_16__hash_node_baseIPNS_11__hash_nodeINS_17__hash_value_typeINS_12basic_stringIcNS_11char_traitsIcEENS_9allocatorIcEEEEN5folly7dynamicEEEPvEEEENS_25__bucket_list_deallocatorINS7_ISH_EEEEEC2B8ue170006ILb1EvEEDnNS_16__dependent_typeINS_27__unique_ptr_deleter_sfinaeISL_EEXT_EE20__good_rval_ref_typeE, symObjAddr: 0x9D64, symBinAddr: 0x10000F084, symSize: 0x48 }
  - { offsetInCU: 0x43043, offset: 0x59A50, size: 0x8, addend: 0x0, symName: __ZNSt3__117__compressed_pairIPPNS_16__hash_node_baseIPNS_11__hash_nodeINS_17__hash_value_typeINS_12basic_stringIcNS_11char_traitsIcEENS_9allocatorIcEEEEN5folly7dynamicEEEPvEEEENS_25__bucket_list_deallocatorINS7_ISH_EEEEEC1B8ue170006IDnSL_EEOT_OT0_, symObjAddr: 0x9DAC, symBinAddr: 0x10000F0CC, symSize: 0x3C }
  - { offsetInCU: 0x4309B, offset: 0x59AA8, size: 0x8, addend: 0x0, symName: __ZNSt3__117__compressed_pairIPPNS_16__hash_node_baseIPNS_11__hash_nodeINS_17__hash_value_typeINS_12basic_stringIcNS_11char_traitsIcEENS_9allocatorIcEEEEN5folly7dynamicEEEPvEEEENS_25__bucket_list_deallocatorINS7_ISH_EEEEEC2B8ue170006IDnSL_EEOT_OT0_, symObjAddr: 0x9DE8, symBinAddr: 0x10000F108, symSize: 0x48 }
  - { offsetInCU: 0x430F3, offset: 0x59B00, size: 0x8, addend: 0x0, symName: __ZNSt3__122__compressed_pair_elemIPPNS_16__hash_node_baseIPNS_11__hash_nodeINS_17__hash_value_typeINS_12basic_stringIcNS_11char_traitsIcEENS_9allocatorIcEEEEN5folly7dynamicEEEPvEEEELi0ELb0EEC2B8ue170006IDnvEEOT_, symObjAddr: 0x9E30, symBinAddr: 0x10000F150, symSize: 0x1C }
  - { offsetInCU: 0x43135, offset: 0x59B42, size: 0x8, addend: 0x0, symName: __ZNSt3__122__compressed_pair_elemINS_25__bucket_list_deallocatorINS_9allocatorIPNS_16__hash_node_baseIPNS_11__hash_nodeINS_17__hash_value_typeINS_12basic_stringIcNS_11char_traitsIcEENS2_IcEEEEN5folly7dynamicEEEPvEEEEEEEELi1ELb0EEC2B8ue170006ISK_vEEOT_, symObjAddr: 0x9E4C, symBinAddr: 0x10000F16C, symSize: 0x34 }
  - { offsetInCU: 0x43177, offset: 0x59B84, size: 0x8, addend: 0x0, symName: __ZNSt3__125__bucket_list_deallocatorINS_9allocatorIPNS_16__hash_node_baseIPNS_11__hash_nodeINS_17__hash_value_typeINS_12basic_stringIcNS_11char_traitsIcEENS1_IcEEEEN5folly7dynamicEEEPvEEEEEEEC1B8ue170006EOSJ_, symObjAddr: 0x9E80, symBinAddr: 0x10000F1A0, symSize: 0x34 }
  - { offsetInCU: 0x431B0, offset: 0x59BBD, size: 0x8, addend: 0x0, symName: __ZNSt3__125__bucket_list_deallocatorINS_9allocatorIPNS_16__hash_node_baseIPNS_11__hash_nodeINS_17__hash_value_typeINS_12basic_stringIcNS_11char_traitsIcEENS1_IcEEEEN5folly7dynamicEEEPvEEEEEEEC2B8ue170006EOSJ_, symObjAddr: 0x9EB4, symBinAddr: 0x10000F1D4, symSize: 0x48 }
  - { offsetInCU: 0x431E9, offset: 0x59BF6, size: 0x8, addend: 0x0, symName: __ZNKSt3__117__compressed_pairINS_16__hash_node_baseIPNS_11__hash_nodeINS_17__hash_value_typeINS_12basic_stringIcNS_11char_traitsIcEENS_9allocatorIcEEEEN5folly7dynamicEEEPvEEEENS7_ISE_EEE6secondB8ue170006Ev, symObjAddr: 0x9EFC, symBinAddr: 0x10000F21C, symSize: 0x24 }
  - { offsetInCU: 0x4320F, offset: 0x59C1C, size: 0x8, addend: 0x0, symName: __ZNKSt3__122__compressed_pair_elemINS_9allocatorINS_11__hash_nodeINS_17__hash_value_typeINS_12basic_stringIcNS_11char_traitsIcEENS1_IcEEEEN5folly7dynamicEEEPvEEEELi1ELb1EE5__getB8ue170006Ev, symObjAddr: 0x9F20, symBinAddr: 0x10000F240, symSize: 0x14 }
  - { offsetInCU: 0x43235, offset: 0x59C42, size: 0x8, addend: 0x0, symName: __ZNSt3__117__compressed_pairINS_16__hash_node_baseIPNS_11__hash_nodeINS_17__hash_value_typeINS_12basic_stringIcNS_11char_traitsIcEENS_9allocatorIcEEEEN5folly7dynamicEEEPvEEEENS7_ISE_EEEC2B8ue170006INS_18__default_init_tagESH_EEOT_OT0_, symObjAddr: 0x9F34, symBinAddr: 0x10000F254, symSize: 0x40 }
  - { offsetInCU: 0x4328D, offset: 0x59C9A, size: 0x8, addend: 0x0, symName: __ZNSt3__122__compressed_pair_elemINS_16__hash_node_baseIPNS_11__hash_nodeINS_17__hash_value_typeINS_12basic_stringIcNS_11char_traitsIcEENS_9allocatorIcEEEEN5folly7dynamicEEEPvEEEELi0ELb0EEC2B8ue170006ENS_18__default_init_tagE, symObjAddr: 0x9F74, symBinAddr: 0x10000F294, symSize: 0x2C }
  - { offsetInCU: 0x432C2, offset: 0x59CCF, size: 0x8, addend: 0x0, symName: __ZNSt3__122__compressed_pair_elemINS_9allocatorINS_11__hash_nodeINS_17__hash_value_typeINS_12basic_stringIcNS_11char_traitsIcEENS1_IcEEEEN5folly7dynamicEEEPvEEEELi1ELb1EEC2B8ue170006ISE_vEEOT_, symObjAddr: 0x9FA0, symBinAddr: 0x10000F2C0, symSize: 0x18 }
  - { offsetInCU: 0x43304, offset: 0x59D11, size: 0x8, addend: 0x0, symName: __ZNKSt3__117__compressed_pairImNS_22__unordered_map_hasherINS_12basic_stringIcNS_11char_traitsIcEENS_9allocatorIcEEEENS_17__hash_value_typeIS7_N5folly7dynamicEEENS_4hashIS7_EENS_8equal_toIS7_EELb1EEEE6secondB8ue170006Ev, symObjAddr: 0x9FB8, symBinAddr: 0x10000F2D8, symSize: 0x24 }
  - { offsetInCU: 0x4332A, offset: 0x59D37, size: 0x8, addend: 0x0, symName: __ZNKSt3__122__compressed_pair_elemINS_22__unordered_map_hasherINS_12basic_stringIcNS_11char_traitsIcEENS_9allocatorIcEEEENS_17__hash_value_typeIS7_N5folly7dynamicEEENS_4hashIS7_EENS_8equal_toIS7_EELb1EEELi1ELb1EE5__getB8ue170006Ev, symObjAddr: 0x9FDC, symBinAddr: 0x10000F2FC, symSize: 0x14 }
  - { offsetInCU: 0x43350, offset: 0x59D5D, size: 0x8, addend: 0x0, symName: __ZNSt3__117__compressed_pairImNS_22__unordered_map_hasherINS_12basic_stringIcNS_11char_traitsIcEENS_9allocatorIcEEEENS_17__hash_value_typeIS7_N5folly7dynamicEEENS_4hashIS7_EENS_8equal_toIS7_EELb1EEEEC2B8ue170006IiRKSG_EEOT_OT0_, symObjAddr: 0x9FF0, symBinAddr: 0x10000F310, symSize: 0x44 }
  - { offsetInCU: 0x433A8, offset: 0x59DB5, size: 0x8, addend: 0x0, symName: __ZNSt3__122__compressed_pair_elemINS_22__unordered_map_hasherINS_12basic_stringIcNS_11char_traitsIcEENS_9allocatorIcEEEENS_17__hash_value_typeIS7_N5folly7dynamicEEENS_4hashIS7_EENS_8equal_toIS7_EELb1EEELi1ELb1EEC2B8ue170006IRKSG_vEEOT_, symObjAddr: 0xA034, symBinAddr: 0x10000F354, symSize: 0x18 }
  - { offsetInCU: 0x433EA, offset: 0x59DF7, size: 0x8, addend: 0x0, symName: __ZNSt3__112__hash_tableINS_17__hash_value_typeINS_12basic_stringIcNS_11char_traitsIcEENS_9allocatorIcEEEEN5folly7dynamicEEENS_22__unordered_map_hasherIS7_SA_NS_4hashIS7_EENS_8equal_toIS7_EELb1EEENS_21__unordered_map_equalIS7_SA_SF_SD_Lb1EEENS5_ISA_EEE8__rehashILb1EEEvm, symObjAddr: 0xA04C, symBinAddr: 0x10000F36C, symSize: 0x1A8 }
  - { offsetInCU: 0x4343A, offset: 0x59E47, size: 0x8, addend: 0x0, symName: __ZNKSt3__112__hash_tableINS_17__hash_value_typeINS_12basic_stringIcNS_11char_traitsIcEENS_9allocatorIcEEEEN5folly7dynamicEEENS_22__unordered_map_hasherIS7_SA_NS_4hashIS7_EENS_8equal_toIS7_EELb1EEENS_21__unordered_map_equalIS7_SA_SF_SD_Lb1EEENS5_ISA_EEE12bucket_countB8ue170006Ev, symObjAddr: 0xA1F4, symBinAddr: 0x10000F514, symSize: 0x28 }
  - { offsetInCU: 0x43460, offset: 0x59E6D, size: 0x8, addend: 0x0, symName: __ZNSt3__112__hash_tableINS_17__hash_value_typeINS_12basic_stringIcNS_11char_traitsIcEENS_9allocatorIcEEEEN5folly7dynamicEEENS_22__unordered_map_hasherIS7_SA_NS_4hashIS7_EENS_8equal_toIS7_EELb1EEENS_21__unordered_map_equalIS7_SA_SF_SD_Lb1EEENS5_ISA_EEE11__do_rehashILb1EEEvm, symObjAddr: 0xA21C, symBinAddr: 0x10000F53C, symSize: 0x288 }
  - { offsetInCU: 0x43543, offset: 0x59F50, size: 0x8, addend: 0x0, symName: __Z4ceilB8ue170006f, symObjAddr: 0xA58C, symBinAddr: 0x10000F8AC, symSize: 0x18 }
  - { offsetInCU: 0x43571, offset: 0x59F7E, size: 0x8, addend: 0x0, symName: __ZNSt3__112__hash_tableINS_17__hash_value_typeINS_12basic_stringIcNS_11char_traitsIcEENS_9allocatorIcEEEEN5folly7dynamicEEENS_22__unordered_map_hasherIS7_SA_NS_4hashIS7_EENS_8equal_toIS7_EELb1EEENS_21__unordered_map_equalIS7_SA_SF_SD_Lb1EEENS5_ISA_EEE4sizeB8ue170006Ev, symObjAddr: 0xA5A4, symBinAddr: 0x10000F8C4, symSize: 0x28 }
  - { offsetInCU: 0x43597, offset: 0x59FA4, size: 0x8, addend: 0x0, symName: __ZNSt3__112__hash_tableINS_17__hash_value_typeINS_12basic_stringIcNS_11char_traitsIcEENS_9allocatorIcEEEEN5folly7dynamicEEENS_22__unordered_map_hasherIS7_SA_NS_4hashIS7_EENS_8equal_toIS7_EELb1EEENS_21__unordered_map_equalIS7_SA_SF_SD_Lb1EEENS5_ISA_EEE15max_load_factorB8ue170006Ev, symObjAddr: 0xA5CC, symBinAddr: 0x10000F8EC, symSize: 0x28 }
  - { offsetInCU: 0x435BD, offset: 0x59FCA, size: 0x8, addend: 0x0, symName: __ZNKSt3__125__bucket_list_deallocatorINS_9allocatorIPNS_16__hash_node_baseIPNS_11__hash_nodeINS_17__hash_value_typeINS_12basic_stringIcNS_11char_traitsIcEENS1_IcEEEEN5folly7dynamicEEEPvEEEEEEE4sizeB8ue170006Ev, symObjAddr: 0xA5F4, symBinAddr: 0x10000F914, symSize: 0x28 }
  - { offsetInCU: 0x435E3, offset: 0x59FF0, size: 0x8, addend: 0x0, symName: __ZNKSt3__117__compressed_pairImNS_9allocatorIPNS_16__hash_node_baseIPNS_11__hash_nodeINS_17__hash_value_typeINS_12basic_stringIcNS_11char_traitsIcEENS1_IcEEEEN5folly7dynamicEEEPvEEEEEEE5firstB8ue170006Ev, symObjAddr: 0xA61C, symBinAddr: 0x10000F93C, symSize: 0x24 }
  - { offsetInCU: 0x43609, offset: 0x5A016, size: 0x8, addend: 0x0, symName: __ZNKSt3__122__compressed_pair_elemImLi0ELb0EE5__getB8ue170006Ev, symObjAddr: 0xA640, symBinAddr: 0x10000F960, symSize: 0x14 }
  - { offsetInCU: 0x4362F, offset: 0x5A03C, size: 0x8, addend: 0x0, symName: __ZNSt3__110unique_ptrIA_PNS_16__hash_node_baseIPNS_11__hash_nodeINS_17__hash_value_typeINS_12basic_stringIcNS_11char_traitsIcEENS_9allocatorIcEEEEN5folly7dynamicEEEPvEEEENS_25__bucket_list_deallocatorINS7_ISH_EEEEE11get_deleterB8ue170006Ev, symObjAddr: 0xA654, symBinAddr: 0x10000F974, symSize: 0x24 }
  - { offsetInCU: 0x43655, offset: 0x5A062, size: 0x8, addend: 0x0, symName: __ZNSt3__110unique_ptrIA_PNS_16__hash_node_baseIPNS_11__hash_nodeINS_17__hash_value_typeINS_12basic_stringIcNS_11char_traitsIcEENS_9allocatorIcEEEEN5folly7dynamicEEEPvEEEENS_25__bucket_list_deallocatorINS7_ISH_EEEEE5resetB8ue170006IPSH_EENS_9enable_ifIXsr28_CheckArrayPointerConversionIT_EE5valueEvE4typeESQ_, symObjAddr: 0xA678, symBinAddr: 0x10000F998, symSize: 0x78 }
  - { offsetInCU: 0x436A2, offset: 0x5A0AF, size: 0x8, addend: 0x0, symName: __ZNSt3__116allocator_traitsINS_9allocatorIPNS_16__hash_node_baseIPNS_11__hash_nodeINS_17__hash_value_typeINS_12basic_stringIcNS_11char_traitsIcEENS1_IcEEEEN5folly7dynamicEEEPvEEEEEEE8allocateB8ue170006ERSI_m, symObjAddr: 0xA6F0, symBinAddr: 0x10000FA10, symSize: 0x2C }
  - { offsetInCU: 0x436D5, offset: 0x5A0E2, size: 0x8, addend: 0x0, symName: __ZNKSt3__110unique_ptrIA_PNS_16__hash_node_baseIPNS_11__hash_nodeINS_17__hash_value_typeINS_12basic_stringIcNS_11char_traitsIcEENS_9allocatorIcEEEEN5folly7dynamicEEEPvEEEENS_25__bucket_list_deallocatorINS7_ISH_EEEEEixB8ue170006Em, symObjAddr: 0xA71C, symBinAddr: 0x10000FA3C, symSize: 0x34 }
  - { offsetInCU: 0x4370A, offset: 0x5A117, size: 0x8, addend: 0x0, symName: __ZNSt3__116__hash_node_baseIPNS_11__hash_nodeINS_17__hash_value_typeINS_12basic_stringIcNS_11char_traitsIcEENS_9allocatorIcEEEEN5folly7dynamicEEEPvEEE5__ptrB8ue170006Ev, symObjAddr: 0xA750, symBinAddr: 0x10000FA70, symSize: 0x24 }
  - { offsetInCU: 0x43730, offset: 0x5A13D, size: 0x8, addend: 0x0, symName: __ZNKSt3__116__hash_node_baseIPNS_11__hash_nodeINS_17__hash_value_typeINS_12basic_stringIcNS_11char_traitsIcEENS_9allocatorIcEEEEN5folly7dynamicEEEPvEEE6__hashB8ue170006Ev, symObjAddr: 0xA80C, symBinAddr: 0x10000FB2C, symSize: 0x18 }
  - { offsetInCU: 0x43756, offset: 0x5A163, size: 0x8, addend: 0x0, symName: __ZNSt3__19allocatorIPNS_16__hash_node_baseIPNS_11__hash_nodeINS_17__hash_value_typeINS_12basic_stringIcNS_11char_traitsIcEENS0_IcEEEEN5folly7dynamicEEEPvEEEEE8allocateB8ue170006Em, symObjAddr: 0xA824, symBinAddr: 0x10000FB44, symSize: 0x58 }
  - { offsetInCU: 0x4378A, offset: 0x5A197, size: 0x8, addend: 0x0, symName: __ZNSt3__116allocator_traitsINS_9allocatorIPNS_16__hash_node_baseIPNS_11__hash_nodeINS_17__hash_value_typeINS_12basic_stringIcNS_11char_traitsIcEENS1_IcEEEEN5folly7dynamicEEEPvEEEEEEE8max_sizeB8ue170006ISI_vEEmRKSI_, symObjAddr: 0xA87C, symBinAddr: 0x10000FB9C, symSize: 0x24 }
  - { offsetInCU: 0x437B8, offset: 0x5A1C5, size: 0x8, addend: 0x0, symName: __ZNKSt3__19allocatorIPNS_16__hash_node_baseIPNS_11__hash_nodeINS_17__hash_value_typeINS_12basic_stringIcNS_11char_traitsIcEENS0_IcEEEEN5folly7dynamicEEEPvEEEEE8max_sizeB8ue170006Ev, symObjAddr: 0xA934, symBinAddr: 0x10000FC54, symSize: 0x14 }
  - { offsetInCU: 0x437DE, offset: 0x5A1EB, size: 0x8, addend: 0x0, symName: __ZNKSt3__117__compressed_pairIPPNS_16__hash_node_baseIPNS_11__hash_nodeINS_17__hash_value_typeINS_12basic_stringIcNS_11char_traitsIcEENS_9allocatorIcEEEEN5folly7dynamicEEEPvEEEENS_25__bucket_list_deallocatorINS7_ISH_EEEEE5firstB8ue170006Ev, symObjAddr: 0xA998, symBinAddr: 0x10000FCB8, symSize: 0x24 }
  - { offsetInCU: 0x43804, offset: 0x5A211, size: 0x8, addend: 0x0, symName: __ZNKSt3__122__compressed_pair_elemIPPNS_16__hash_node_baseIPNS_11__hash_nodeINS_17__hash_value_typeINS_12basic_stringIcNS_11char_traitsIcEENS_9allocatorIcEEEEN5folly7dynamicEEEPvEEEELi0ELb0EE5__getB8ue170006Ev, symObjAddr: 0xA9BC, symBinAddr: 0x10000FCDC, symSize: 0x14 }
  - { offsetInCU: 0x43834, offset: 0x5A241, size: 0x8, addend: 0x0, symName: __ZNKSt3__16__lessIvvEclB8ue170006ImmEEbRKT_RKT0_, symObjAddr: 0xAA24, symBinAddr: 0x10000FD44, symSize: 0x34 }
  - { offsetInCU: 0x43888, offset: 0x5A295, size: 0x8, addend: 0x0, symName: __ZNSt3__117__compressed_pairImNS_22__unordered_map_hasherINS_12basic_stringIcNS_11char_traitsIcEENS_9allocatorIcEEEENS_17__hash_value_typeIS7_N5folly7dynamicEEENS_4hashIS7_EENS_8equal_toIS7_EELb1EEEE5firstB8ue170006Ev, symObjAddr: 0xAA74, symBinAddr: 0x10000FD94, symSize: 0x24 }
  - { offsetInCU: 0x438AE, offset: 0x5A2BB, size: 0x8, addend: 0x0, symName: __ZNSt3__117__compressed_pairIfNS_21__unordered_map_equalINS_12basic_stringIcNS_11char_traitsIcEENS_9allocatorIcEEEENS_17__hash_value_typeIS7_N5folly7dynamicEEENS_8equal_toIS7_EENS_4hashIS7_EELb1EEEE5firstB8ue170006Ev, symObjAddr: 0xAA98, symBinAddr: 0x10000FDB8, symSize: 0x24 }
  - { offsetInCU: 0x438D4, offset: 0x5A2E1, size: 0x8, addend: 0x0, symName: __ZNSt3__122__compressed_pair_elemIfLi0ELb0EE5__getB8ue170006Ev, symObjAddr: 0xAABC, symBinAddr: 0x10000FDDC, symSize: 0x14 }
  - { offsetInCU: 0x438FA, offset: 0x5A307, size: 0x8, addend: 0x0, symName: __ZNSt3__112__hash_tableINS_17__hash_value_typeINS_12basic_stringIcNS_11char_traitsIcEENS_9allocatorIcEEEEN5folly7dynamicEEENS_22__unordered_map_hasherIS7_SA_NS_4hashIS7_EENS_8equal_toIS7_EELb1EEENS_21__unordered_map_equalIS7_SA_SF_SD_Lb1EEENS5_ISA_EEE15__insert_uniqueB8ue170006ERKNS_4pairIKS7_S9_EE, symObjAddr: 0xAB00, symBinAddr: 0x10000FE20, symSize: 0x50 }
  - { offsetInCU: 0x4392F, offset: 0x5A33C, size: 0x8, addend: 0x0, symName: __ZNKSt3__125__hash_map_const_iteratorINS_21__hash_const_iteratorIPNS_11__hash_nodeINS_17__hash_value_typeINS_12basic_stringIcNS_11char_traitsIcEENS_9allocatorIcEEEEN5folly7dynamicEEEPvEEEEEdeB8ue170006Ev, symObjAddr: 0xAB50, symBinAddr: 0x10000FE70, symSize: 0x28 }
  - { offsetInCU: 0x43955, offset: 0x5A362, size: 0x8, addend: 0x0, symName: __ZNSt3__125__hash_map_const_iteratorINS_21__hash_const_iteratorIPNS_11__hash_nodeINS_17__hash_value_typeINS_12basic_stringIcNS_11char_traitsIcEENS_9allocatorIcEEEEN5folly7dynamicEEEPvEEEEEppB8ue170006Ev, symObjAddr: 0xAB78, symBinAddr: 0x10000FE98, symSize: 0x2C }
  - { offsetInCU: 0x4397B, offset: 0x5A388, size: 0x8, addend: 0x0, symName: __ZNSt3__112__hash_tableINS_17__hash_value_typeINS_12basic_stringIcNS_11char_traitsIcEENS_9allocatorIcEEEEN5folly7dynamicEEENS_22__unordered_map_hasherIS7_SA_NS_4hashIS7_EENS_8equal_toIS7_EELb1EEENS_21__unordered_map_equalIS7_SA_SF_SD_Lb1EEENS5_ISA_EEE25__emplace_unique_key_argsIS7_JRKNS_4pairIKS7_S9_EEEEENSM_INS_15__hash_iteratorIPNS_11__hash_nodeISA_PvEEEEbEERKT_DpOT0_, symObjAddr: 0xAC08, symBinAddr: 0x10000FF28, symSize: 0x4A0 }
  - { offsetInCU: 0x43A5B, offset: 0x5A468, size: 0x8, addend: 0x0, symName: __ZNSt3__122__hash_key_value_typesINS_17__hash_value_typeINS_12basic_stringIcNS_11char_traitsIcEENS_9allocatorIcEEEEN5folly7dynamicEEEE9__get_keyB8ue170006ERKNS_4pairIKS7_S9_EE, symObjAddr: 0xB0A8, symBinAddr: 0x1000103C8, symSize: 0x14 }
  - { offsetInCU: 0x43A7E, offset: 0x5A48B, size: 0x8, addend: 0x0, symName: __ZNSt3__112__hash_tableINS_17__hash_value_typeINS_12basic_stringIcNS_11char_traitsIcEENS_9allocatorIcEEEEN5folly7dynamicEEENS_22__unordered_map_hasherIS7_SA_NS_4hashIS7_EENS_8equal_toIS7_EELb1EEENS_21__unordered_map_equalIS7_SA_SF_SD_Lb1EEENS5_ISA_EEE13hash_functionB8ue170006Ev, symObjAddr: 0xB0BC, symBinAddr: 0x1000103DC, symSize: 0x28 }
  - { offsetInCU: 0x43AA4, offset: 0x5A4B1, size: 0x8, addend: 0x0, symName: __ZNKSt3__122__unordered_map_hasherINS_12basic_stringIcNS_11char_traitsIcEENS_9allocatorIcEEEENS_17__hash_value_typeIS6_N5folly7dynamicEEENS_4hashIS6_EENS_8equal_toIS6_EELb1EEclB8ue170006ERKS6_, symObjAddr: 0xB0E4, symBinAddr: 0x100010404, symSize: 0x2C }
  - { offsetInCU: 0x43AD9, offset: 0x5A4E6, size: 0x8, addend: 0x0, symName: __ZNSt3__112__hash_tableINS_17__hash_value_typeINS_12basic_stringIcNS_11char_traitsIcEENS_9allocatorIcEEEEN5folly7dynamicEEENS_22__unordered_map_hasherIS7_SA_NS_4hashIS7_EENS_8equal_toIS7_EELb1EEENS_21__unordered_map_equalIS7_SA_SF_SD_Lb1EEENS5_ISA_EEE6key_eqB8ue170006Ev, symObjAddr: 0xB110, symBinAddr: 0x100010430, symSize: 0x28 }
  - { offsetInCU: 0x43AFF, offset: 0x5A50C, size: 0x8, addend: 0x0, symName: __ZNKSt3__121__unordered_map_equalINS_12basic_stringIcNS_11char_traitsIcEENS_9allocatorIcEEEENS_17__hash_value_typeIS6_N5folly7dynamicEEENS_8equal_toIS6_EENS_4hashIS6_EELb1EEclB8ue170006ERKSA_RKS6_, symObjAddr: 0xB138, symBinAddr: 0x100010458, symSize: 0x48 }
  - { offsetInCU: 0x43B43, offset: 0x5A550, size: 0x8, addend: 0x0, symName: __ZNSt3__112__hash_tableINS_17__hash_value_typeINS_12basic_stringIcNS_11char_traitsIcEENS_9allocatorIcEEEEN5folly7dynamicEEENS_22__unordered_map_hasherIS7_SA_NS_4hashIS7_EENS_8equal_toIS7_EELb1EEENS_21__unordered_map_equalIS7_SA_SF_SD_Lb1EEENS5_ISA_EEE21__construct_node_hashIRKNS_4pairIKS7_S9_EEJEEENS_10unique_ptrINS_11__hash_nodeISA_PvEENS_22__hash_node_destructorINS5_ISU_EEEEEEmOT_DpOT0_, symObjAddr: 0xB180, symBinAddr: 0x1000104A0, symSize: 0x140 }
  - { offsetInCU: 0x43BB6, offset: 0x5A5C3, size: 0x8, addend: 0x0, symName: __ZNKSt3__110unique_ptrINS_11__hash_nodeINS_17__hash_value_typeINS_12basic_stringIcNS_11char_traitsIcEENS_9allocatorIcEEEEN5folly7dynamicEEEPvEENS_22__hash_node_destructorINS6_ISD_EEEEEptB8ue170006Ev, symObjAddr: 0xB2C0, symBinAddr: 0x1000105E0, symSize: 0x28 }
  - { offsetInCU: 0x43BDC, offset: 0x5A5E9, size: 0x8, addend: 0x0, symName: __ZNKSt3__110unique_ptrINS_11__hash_nodeINS_17__hash_value_typeINS_12basic_stringIcNS_11char_traitsIcEENS_9allocatorIcEEEEN5folly7dynamicEEEPvEENS_22__hash_node_destructorINS6_ISD_EEEEE3getB8ue170006Ev, symObjAddr: 0xB2E8, symBinAddr: 0x100010608, symSize: 0x28 }
  - { offsetInCU: 0x43C02, offset: 0x5A60F, size: 0x8, addend: 0x0, symName: __ZNSt3__110unique_ptrINS_11__hash_nodeINS_17__hash_value_typeINS_12basic_stringIcNS_11char_traitsIcEENS_9allocatorIcEEEEN5folly7dynamicEEEPvEENS_22__hash_node_destructorINS6_ISD_EEEEE7releaseB8ue170006Ev, symObjAddr: 0xB310, symBinAddr: 0x100010630, symSize: 0x44 }
  - { offsetInCU: 0x43C37, offset: 0x5A644, size: 0x8, addend: 0x0, symName: __ZNSt3__110unique_ptrINS_11__hash_nodeINS_17__hash_value_typeINS_12basic_stringIcNS_11char_traitsIcEENS_9allocatorIcEEEEN5folly7dynamicEEEPvEENS_22__hash_node_destructorINS6_ISD_EEEEED1B8ue170006Ev, symObjAddr: 0xB354, symBinAddr: 0x100010674, symSize: 0x2C }
  - { offsetInCU: 0x43C61, offset: 0x5A66E, size: 0x8, addend: 0x0, symName: __ZNSt3__115__hash_iteratorIPNS_11__hash_nodeINS_17__hash_value_typeINS_12basic_stringIcNS_11char_traitsIcEENS_9allocatorIcEEEEN5folly7dynamicEEEPvEEEC1B8ue170006EPNS_16__hash_node_baseISE_EE, symObjAddr: 0xB380, symBinAddr: 0x1000106A0, symSize: 0x34 }
  - { offsetInCU: 0x43CA5, offset: 0x5A6B2, size: 0x8, addend: 0x0, symName: __ZNSt3__14pairINS_15__hash_iteratorIPNS_11__hash_nodeINS_17__hash_value_typeINS_12basic_stringIcNS_11char_traitsIcEENS_9allocatorIcEEEEN5folly7dynamicEEEPvEEEEbEC1B8ue170006ISG_RbLSD_0EEEOT_OT0_, symObjAddr: 0xB3B4, symBinAddr: 0x1000106D4, symSize: 0x3C }
  - { offsetInCU: 0x43D03, offset: 0x5A710, size: 0x8, addend: 0x0, symName: __ZNSt3__117__compressed_pairImNS_22__unordered_map_hasherINS_12basic_stringIcNS_11char_traitsIcEENS_9allocatorIcEEEENS_17__hash_value_typeIS7_N5folly7dynamicEEENS_4hashIS7_EENS_8equal_toIS7_EELb1EEEE6secondB8ue170006Ev, symObjAddr: 0xB3F0, symBinAddr: 0x100010710, symSize: 0x24 }
  - { offsetInCU: 0x43D29, offset: 0x5A736, size: 0x8, addend: 0x0, symName: __ZNSt3__122__compressed_pair_elemINS_22__unordered_map_hasherINS_12basic_stringIcNS_11char_traitsIcEENS_9allocatorIcEEEENS_17__hash_value_typeIS7_N5folly7dynamicEEENS_4hashIS7_EENS_8equal_toIS7_EELb1EEELi1ELb1EE5__getB8ue170006Ev, symObjAddr: 0xB414, symBinAddr: 0x100010734, symSize: 0x14 }
  - { offsetInCU: 0x43D4F, offset: 0x5A75C, size: 0x8, addend: 0x0, symName: __ZNKSt3__113__string_hashIcNS_9allocatorIcEEEclB8ue170006ERKNS_12basic_stringIcNS_11char_traitsIcEES2_EE, symObjAddr: 0xB428, symBinAddr: 0x100010748, symSize: 0x64 }
  - { offsetInCU: 0x43D84, offset: 0x5A791, size: 0x8, addend: 0x0, symName: __ZNKSt3__121__murmur2_or_cityhashImLm64EEclB8ue170006EPKvm, symObjAddr: 0xB544, symBinAddr: 0x1000107E8, symSize: 0x410 }
  - { offsetInCU: 0x43E1E, offset: 0x5A82B, size: 0x8, addend: 0x0, symName: __ZNSt3__121__murmur2_or_cityhashImLm64EE18__hash_len_0_to_16B8ue170006EPKcm, symObjAddr: 0xB954, symBinAddr: 0x100010BF8, symSize: 0x1C0 }
  - { offsetInCU: 0x43EF7, offset: 0x5A904, size: 0x8, addend: 0x0, symName: __ZNSt3__121__murmur2_or_cityhashImLm64EE19__hash_len_17_to_32B8ue170006EPKcm, symObjAddr: 0xBB14, symBinAddr: 0x100010DB8, symSize: 0x130 }
  - { offsetInCU: 0x43F60, offset: 0x5A96D, size: 0x8, addend: 0x0, symName: __ZNSt3__121__murmur2_or_cityhashImLm64EE19__hash_len_33_to_64B8ue170006EPKcm, symObjAddr: 0xBC44, symBinAddr: 0x100010EE8, symSize: 0x2B8 }
  - { offsetInCU: 0x44015, offset: 0x5AA22, size: 0x8, addend: 0x0, symName: __ZNSt3__121__murmur2_or_cityhashImLm64EE13__hash_len_16B8ue170006Emm, symObjAddr: 0xBF1C, symBinAddr: 0x1000111C0, symSize: 0x80 }
  - { offsetInCU: 0x44070, offset: 0x5AA7D, size: 0x8, addend: 0x0, symName: __ZNSt3__121__murmur2_or_cityhashImLm64EE29__weak_hash_len_32_with_seedsB8ue170006EPKcmm, symObjAddr: 0xBF9C, symBinAddr: 0x100011240, symSize: 0x88 }
  - { offsetInCU: 0x440AF, offset: 0x5AABC, size: 0x8, addend: 0x0, symName: __ZNSt3__121__murmur2_or_cityhashImLm64EE8__rotateB8ue170006Emi, symObjAddr: 0xC024, symBinAddr: 0x1000112C8, symSize: 0x64 }
  - { offsetInCU: 0x440E0, offset: 0x5AAED, size: 0x8, addend: 0x0, symName: __ZNSt3__14pairImmEaSB8ue170006EOS1_, symObjAddr: 0xC088, symBinAddr: 0x10001132C, symSize: 0x30 }
  - { offsetInCU: 0x44115, offset: 0x5AB22, size: 0x8, addend: 0x0, symName: __ZNSt3__121__murmur2_or_cityhashImLm64EE11__shift_mixB8ue170006Em, symObjAddr: 0xC0F4, symBinAddr: 0x100011398, symSize: 0x1C }
  - { offsetInCU: 0x44138, offset: 0x5AB45, size: 0x8, addend: 0x0, symName: __ZNSt3__121__murmur2_or_cityhashImLm64EE22__rotate_by_at_least_1B8ue170006Emi, symObjAddr: 0xC110, symBinAddr: 0x1000113B4, symSize: 0x38 }
  - { offsetInCU: 0x44169, offset: 0x5AB76, size: 0x8, addend: 0x0, symName: __ZNSt3__121__murmur2_or_cityhashImLm64EE29__weak_hash_len_32_with_seedsB8ue170006Emmmmmm, symObjAddr: 0xC168, symBinAddr: 0x10001140C, symSize: 0xD8 }
  - { offsetInCU: 0x441E6, offset: 0x5ABF3, size: 0x8, addend: 0x0, symName: __ZNSt3__14pairImmEC1B8ue170006ImmLPv0EEEOT_OT0_, symObjAddr: 0xC240, symBinAddr: 0x1000114E4, symSize: 0x3C }
  - { offsetInCU: 0x44244, offset: 0x5AC51, size: 0x8, addend: 0x0, symName: __ZNSt3__14pairImmEC2B8ue170006ImmLPv0EEEOT_OT0_, symObjAddr: 0xC27C, symBinAddr: 0x100011520, symSize: 0x34 }
  - { offsetInCU: 0x442A2, offset: 0x5ACAF, size: 0x8, addend: 0x0, symName: __ZNSt3__117__compressed_pairIfNS_21__unordered_map_equalINS_12basic_stringIcNS_11char_traitsIcEENS_9allocatorIcEEEENS_17__hash_value_typeIS7_N5folly7dynamicEEENS_8equal_toIS7_EENS_4hashIS7_EELb1EEEE6secondB8ue170006Ev, symObjAddr: 0xC448, symBinAddr: 0x100011554, symSize: 0x24 }
  - { offsetInCU: 0x442C8, offset: 0x5ACD5, size: 0x8, addend: 0x0, symName: __ZNSt3__122__compressed_pair_elemINS_21__unordered_map_equalINS_12basic_stringIcNS_11char_traitsIcEENS_9allocatorIcEEEENS_17__hash_value_typeIS7_N5folly7dynamicEEENS_8equal_toIS7_EENS_4hashIS7_EELb1EEELi1ELb1EE5__getB8ue170006Ev, symObjAddr: 0xC46C, symBinAddr: 0x100011578, symSize: 0x14 }
  - { offsetInCU: 0x442EE, offset: 0x5ACFB, size: 0x8, addend: 0x0, symName: __ZNKSt3__18equal_toINS_12basic_stringIcNS_11char_traitsIcEENS_9allocatorIcEEEEEclB8ue170006ERKS6_S9_, symObjAddr: 0xC480, symBinAddr: 0x10001158C, symSize: 0x34 }
  - { offsetInCU: 0x44332, offset: 0x5AD3F, size: 0x8, addend: 0x0, symName: __ZNKSt3__117__hash_value_typeINS_12basic_stringIcNS_11char_traitsIcEENS_9allocatorIcEEEEN5folly7dynamicEE11__get_valueB8ue170006Ev, symObjAddr: 0xC4B4, symBinAddr: 0x1000115C0, symSize: 0x24 }
  - { offsetInCU: 0x44358, offset: 0x5AD65, size: 0x8, addend: 0x0, symName: __ZNSt3__111char_traitsIcE7compareB8ue170006EPKcS3_m, symObjAddr: 0xC620, symBinAddr: 0x10001172C, symSize: 0x34 }
  - { offsetInCU: 0x44397, offset: 0x5ADA4, size: 0x8, addend: 0x0, symName: __ZNSt3__116allocator_traitsINS_9allocatorINS_11__hash_nodeINS_17__hash_value_typeINS_12basic_stringIcNS_11char_traitsIcEENS1_IcEEEEN5folly7dynamicEEEPvEEEEE8allocateB8ue170006ERSE_m, symObjAddr: 0xC68C, symBinAddr: 0x100011798, symSize: 0x2C }
  - { offsetInCU: 0x443CA, offset: 0x5ADD7, size: 0x8, addend: 0x0, symName: __ZNSt3__122__hash_node_destructorINS_9allocatorINS_11__hash_nodeINS_17__hash_value_typeINS_12basic_stringIcNS_11char_traitsIcEENS1_IcEEEEN5folly7dynamicEEEPvEEEEEC1B8ue170006ERSE_b, symObjAddr: 0xC6B8, symBinAddr: 0x1000117C4, symSize: 0x48 }
  - { offsetInCU: 0x44418, offset: 0x5AE25, size: 0x8, addend: 0x0, symName: __ZNSt3__110unique_ptrINS_11__hash_nodeINS_17__hash_value_typeINS_12basic_stringIcNS_11char_traitsIcEENS_9allocatorIcEEEEN5folly7dynamicEEEPvEENS_22__hash_node_destructorINS6_ISD_EEEEEC1B8ue170006ILb1EvEEPSD_NS_16__dependent_typeINS_27__unique_ptr_deleter_sfinaeISG_EEXT_EE20__good_rval_ref_typeE, symObjAddr: 0xC700, symBinAddr: 0x10001180C, symSize: 0x3C }
  - { offsetInCU: 0x44469, offset: 0x5AE76, size: 0x8, addend: 0x0, symName: __ZNSt3__116allocator_traitsINS_9allocatorINS_11__hash_nodeINS_17__hash_value_typeINS_12basic_stringIcNS_11char_traitsIcEENS1_IcEEEEN5folly7dynamicEEEPvEEEEE9constructB8ue170006INS_4pairIKS8_SA_EEJRKSJ_EvEEvRSE_PT_DpOT0_, symObjAddr: 0xC73C, symBinAddr: 0x100011848, symSize: 0x34 }
  - { offsetInCU: 0x444C0, offset: 0x5AECD, size: 0x8, addend: 0x0, symName: __ZNSt3__110unique_ptrINS_11__hash_nodeINS_17__hash_value_typeINS_12basic_stringIcNS_11char_traitsIcEENS_9allocatorIcEEEEN5folly7dynamicEEEPvEENS_22__hash_node_destructorINS6_ISD_EEEEE11get_deleterB8ue170006Ev, symObjAddr: 0xC770, symBinAddr: 0x10001187C, symSize: 0x24 }
  - { offsetInCU: 0x444E6, offset: 0x5AEF3, size: 0x8, addend: 0x0, symName: __ZNSt3__19allocatorINS_11__hash_nodeINS_17__hash_value_typeINS_12basic_stringIcNS_11char_traitsIcEENS0_IcEEEEN5folly7dynamicEEEPvEEE8allocateB8ue170006Em, symObjAddr: 0xC794, symBinAddr: 0x1000118A0, symSize: 0x5C }
  - { offsetInCU: 0x4451A, offset: 0x5AF27, size: 0x8, addend: 0x0, symName: __ZNSt3__116allocator_traitsINS_9allocatorINS_11__hash_nodeINS_17__hash_value_typeINS_12basic_stringIcNS_11char_traitsIcEENS1_IcEEEEN5folly7dynamicEEEPvEEEEE8max_sizeB8ue170006ISE_vEEmRKSE_, symObjAddr: 0xC7F0, symBinAddr: 0x1000118FC, symSize: 0x24 }
  - { offsetInCU: 0x44548, offset: 0x5AF55, size: 0x8, addend: 0x0, symName: __ZNKSt3__19allocatorINS_11__hash_nodeINS_17__hash_value_typeINS_12basic_stringIcNS_11char_traitsIcEENS0_IcEEEEN5folly7dynamicEEEPvEEE8max_sizeB8ue170006Ev, symObjAddr: 0xC814, symBinAddr: 0x100011920, symSize: 0x18 }
  - { offsetInCU: 0x4456E, offset: 0x5AF7B, size: 0x8, addend: 0x0, symName: __ZNSt3__122__hash_node_destructorINS_9allocatorINS_11__hash_nodeINS_17__hash_value_typeINS_12basic_stringIcNS_11char_traitsIcEENS1_IcEEEEN5folly7dynamicEEEPvEEEEEC2B8ue170006ERSE_b, symObjAddr: 0xC82C, symBinAddr: 0x100011938, symSize: 0x38 }
  - { offsetInCU: 0x445B6, offset: 0x5AFC3, size: 0x8, addend: 0x0, symName: __ZNSt3__110unique_ptrINS_11__hash_nodeINS_17__hash_value_typeINS_12basic_stringIcNS_11char_traitsIcEENS_9allocatorIcEEEEN5folly7dynamicEEEPvEENS_22__hash_node_destructorINS6_ISD_EEEEEC2B8ue170006ILb1EvEEPSD_NS_16__dependent_typeINS_27__unique_ptr_deleter_sfinaeISG_EEXT_EE20__good_rval_ref_typeE, symObjAddr: 0xC864, symBinAddr: 0x100011970, symSize: 0x48 }
  - { offsetInCU: 0x44607, offset: 0x5B014, size: 0x8, addend: 0x0, symName: __ZNSt3__117__compressed_pairIPNS_11__hash_nodeINS_17__hash_value_typeINS_12basic_stringIcNS_11char_traitsIcEENS_9allocatorIcEEEEN5folly7dynamicEEEPvEENS_22__hash_node_destructorINS6_ISD_EEEEEC1B8ue170006IRSE_SH_EEOT_OT0_, symObjAddr: 0xC8AC, symBinAddr: 0x1000119B8, symSize: 0x3C }
  - { offsetInCU: 0x4465F, offset: 0x5B06C, size: 0x8, addend: 0x0, symName: __ZNSt3__117__compressed_pairIPNS_11__hash_nodeINS_17__hash_value_typeINS_12basic_stringIcNS_11char_traitsIcEENS_9allocatorIcEEEEN5folly7dynamicEEEPvEENS_22__hash_node_destructorINS6_ISD_EEEEEC2B8ue170006IRSE_SH_EEOT_OT0_, symObjAddr: 0xC8E8, symBinAddr: 0x1000119F4, symSize: 0x48 }
  - { offsetInCU: 0x446B7, offset: 0x5B0C4, size: 0x8, addend: 0x0, symName: __ZNSt3__122__compressed_pair_elemIPNS_11__hash_nodeINS_17__hash_value_typeINS_12basic_stringIcNS_11char_traitsIcEENS_9allocatorIcEEEEN5folly7dynamicEEEPvEELi0ELb0EEC2B8ue170006IRSE_vEEOT_, symObjAddr: 0xC930, symBinAddr: 0x100011A3C, symSize: 0x24 }
  - { offsetInCU: 0x446F9, offset: 0x5B106, size: 0x8, addend: 0x0, symName: __ZNSt3__122__compressed_pair_elemINS_22__hash_node_destructorINS_9allocatorINS_11__hash_nodeINS_17__hash_value_typeINS_12basic_stringIcNS_11char_traitsIcEENS2_IcEEEEN5folly7dynamicEEEPvEEEEEELi1ELb0EEC2B8ue170006ISG_vEEOT_, symObjAddr: 0xC954, symBinAddr: 0x100011A60, symSize: 0x24 }
  - { offsetInCU: 0x4473B, offset: 0x5B148, size: 0x8, addend: 0x0, symName: __ZNSt3__19allocatorINS_11__hash_nodeINS_17__hash_value_typeINS_12basic_stringIcNS_11char_traitsIcEENS0_IcEEEEN5folly7dynamicEEEPvEEE9constructB8ue170006INS_4pairIKS7_S9_EEJRKSH_EEEvPT_DpOT0_, symObjAddr: 0xC978, symBinAddr: 0x100011A84, symSize: 0x30 }
  - { offsetInCU: 0x44791, offset: 0x5B19E, size: 0x8, addend: 0x0, symName: __ZNSt3__14pairIKNS_12basic_stringIcNS_11char_traitsIcEENS_9allocatorIcEEEEN5folly7dynamicEEC1B8ue170006ERKSA_, symObjAddr: 0xC9A8, symBinAddr: 0x100011AB4, symSize: 0x34 }
  - { offsetInCU: 0x447C6, offset: 0x5B1D3, size: 0x8, addend: 0x0, symName: __ZNSt3__14pairIKNS_12basic_stringIcNS_11char_traitsIcEENS_9allocatorIcEEEEN5folly7dynamicEEC2B8ue170006ERKSA_, symObjAddr: 0xC9DC, symBinAddr: 0x100011AE8, symSize: 0x70 }
  - { offsetInCU: 0x447FB, offset: 0x5B208, size: 0x8, addend: 0x0, symName: __ZNSt3__117__compressed_pairIPNS_11__hash_nodeINS_17__hash_value_typeINS_12basic_stringIcNS_11char_traitsIcEENS_9allocatorIcEEEEN5folly7dynamicEEEPvEENS_22__hash_node_destructorINS6_ISD_EEEEE6secondB8ue170006Ev, symObjAddr: 0xCA4C, symBinAddr: 0x100011B58, symSize: 0x28 }
  - { offsetInCU: 0x44821, offset: 0x5B22E, size: 0x8, addend: 0x0, symName: __ZNSt3__122__compressed_pair_elemINS_22__hash_node_destructorINS_9allocatorINS_11__hash_nodeINS_17__hash_value_typeINS_12basic_stringIcNS_11char_traitsIcEENS2_IcEEEEN5folly7dynamicEEEPvEEEEEELi1ELb0EE5__getB8ue170006Ev, symObjAddr: 0xCA74, symBinAddr: 0x100011B80, symSize: 0x14 }
  - { offsetInCU: 0x44847, offset: 0x5B254, size: 0x8, addend: 0x0, symName: __ZNKSt3__117__compressed_pairIPNS_11__hash_nodeINS_17__hash_value_typeINS_12basic_stringIcNS_11char_traitsIcEENS_9allocatorIcEEEEN5folly7dynamicEEEPvEENS_22__hash_node_destructorINS6_ISD_EEEEE5firstB8ue170006Ev, symObjAddr: 0xCA88, symBinAddr: 0x100011B94, symSize: 0x24 }
  - { offsetInCU: 0x4486D, offset: 0x5B27A, size: 0x8, addend: 0x0, symName: __ZNKSt3__122__compressed_pair_elemIPNS_11__hash_nodeINS_17__hash_value_typeINS_12basic_stringIcNS_11char_traitsIcEENS_9allocatorIcEEEEN5folly7dynamicEEEPvEELi0ELb0EE5__getB8ue170006Ev, symObjAddr: 0xCAAC, symBinAddr: 0x100011BB8, symSize: 0x14 }
  - { offsetInCU: 0x44893, offset: 0x5B2A0, size: 0x8, addend: 0x0, symName: __ZNSt3__117__compressed_pairIPNS_11__hash_nodeINS_17__hash_value_typeINS_12basic_stringIcNS_11char_traitsIcEENS_9allocatorIcEEEEN5folly7dynamicEEEPvEENS_22__hash_node_destructorINS6_ISD_EEEEE5firstB8ue170006Ev, symObjAddr: 0xCAC0, symBinAddr: 0x100011BCC, symSize: 0x24 }
  - { offsetInCU: 0x448B9, offset: 0x5B2C6, size: 0x8, addend: 0x0, symName: __ZNSt3__122__compressed_pair_elemIPNS_11__hash_nodeINS_17__hash_value_typeINS_12basic_stringIcNS_11char_traitsIcEENS_9allocatorIcEEEEN5folly7dynamicEEEPvEELi0ELb0EE5__getB8ue170006Ev, symObjAddr: 0xCAE4, symBinAddr: 0x100011BF0, symSize: 0x14 }
  - { offsetInCU: 0x448DF, offset: 0x5B2EC, size: 0x8, addend: 0x0, symName: __ZNSt3__110unique_ptrINS_11__hash_nodeINS_17__hash_value_typeINS_12basic_stringIcNS_11char_traitsIcEENS_9allocatorIcEEEEN5folly7dynamicEEEPvEENS_22__hash_node_destructorINS6_ISD_EEEEED2B8ue170006Ev, symObjAddr: 0xCAF8, symBinAddr: 0x100011C04, symSize: 0x30 }
  - { offsetInCU: 0x44909, offset: 0x5B316, size: 0x8, addend: 0x0, symName: __ZNSt3__110unique_ptrINS_11__hash_nodeINS_17__hash_value_typeINS_12basic_stringIcNS_11char_traitsIcEENS_9allocatorIcEEEEN5folly7dynamicEEEPvEENS_22__hash_node_destructorINS6_ISD_EEEEE5resetB8ue170006EPSD_, symObjAddr: 0xCB28, symBinAddr: 0x100011C34, symSize: 0x78 }
  - { offsetInCU: 0x4494D, offset: 0x5B35A, size: 0x8, addend: 0x0, symName: __ZNSt3__122__hash_node_destructorINS_9allocatorINS_11__hash_nodeINS_17__hash_value_typeINS_12basic_stringIcNS_11char_traitsIcEENS1_IcEEEEN5folly7dynamicEEEPvEEEEEclB8ue170006EPSD_, symObjAddr: 0xCBA0, symBinAddr: 0x100011CAC, symSize: 0x94 }
  - { offsetInCU: 0x44982, offset: 0x5B38F, size: 0x8, addend: 0x0, symName: __ZNSt3__115__hash_iteratorIPNS_11__hash_nodeINS_17__hash_value_typeINS_12basic_stringIcNS_11char_traitsIcEENS_9allocatorIcEEEEN5folly7dynamicEEEPvEEEC2B8ue170006EPNS_16__hash_node_baseISE_EE, symObjAddr: 0xCC34, symBinAddr: 0x100011D40, symSize: 0x20 }
  - { offsetInCU: 0x449BB, offset: 0x5B3C8, size: 0x8, addend: 0x0, symName: __ZNSt3__14pairINS_15__hash_iteratorIPNS_11__hash_nodeINS_17__hash_value_typeINS_12basic_stringIcNS_11char_traitsIcEENS_9allocatorIcEEEEN5folly7dynamicEEEPvEEEEbEC2B8ue170006ISG_RbLSD_0EEEOT_OT0_, symObjAddr: 0xCC54, symBinAddr: 0x100011D60, symSize: 0x38 }
  - { offsetInCU: 0x44A19, offset: 0x5B426, size: 0x8, addend: 0x0, symName: __ZNKSt3__121__hash_const_iteratorIPNS_11__hash_nodeINS_17__hash_value_typeINS_12basic_stringIcNS_11char_traitsIcEENS_9allocatorIcEEEEN5folly7dynamicEEEPvEEEptB8ue170006Ev, symObjAddr: 0xCC8C, symBinAddr: 0x100011D98, symSize: 0x30 }
  - { offsetInCU: 0x44A3F, offset: 0x5B44C, size: 0x8, addend: 0x0, symName: __ZNSt3__114pointer_traitsIPKNS_17__hash_value_typeINS_12basic_stringIcNS_11char_traitsIcEENS_9allocatorIcEEEEN5folly7dynamicEEEE10pointer_toB8ue170006ERSB_, symObjAddr: 0xCCBC, symBinAddr: 0x100011DC8, symSize: 0x14 }
  - { offsetInCU: 0x44A62, offset: 0x5B46F, size: 0x8, addend: 0x0, symName: __ZNSt3__121__hash_const_iteratorIPNS_11__hash_nodeINS_17__hash_value_typeINS_12basic_stringIcNS_11char_traitsIcEENS_9allocatorIcEEEEN5folly7dynamicEEEPvEEEppB8ue170006Ev, symObjAddr: 0xCCD0, symBinAddr: 0x100011DDC, symSize: 0x20 }
  - { offsetInCU: 0x44A88, offset: 0x5B495, size: 0x8, addend: 0x0, symName: __ZNKSt3__112__hash_tableINS_17__hash_value_typeINS_12basic_stringIcNS_11char_traitsIcEENS_9allocatorIcEEEEN5folly7dynamicEEENS_22__unordered_map_hasherIS7_SA_NS_4hashIS7_EENS_8equal_toIS7_EELb1EEENS_21__unordered_map_equalIS7_SA_SF_SD_Lb1EEENS5_ISA_EEE5beginEv, symObjAddr: 0xCCF0, symBinAddr: 0x100011DFC, symSize: 0x38 }
  - { offsetInCU: 0x44AB0, offset: 0x5B4BD, size: 0x8, addend: 0x0, symName: __ZNSt3__125__hash_map_const_iteratorINS_21__hash_const_iteratorIPNS_11__hash_nodeINS_17__hash_value_typeINS_12basic_stringIcNS_11char_traitsIcEENS_9allocatorIcEEEEN5folly7dynamicEEEPvEEEEEC1B8ue170006ESG_, symObjAddr: 0xCD28, symBinAddr: 0x100011E34, symSize: 0x34 }
  - { offsetInCU: 0x44AE9, offset: 0x5B4F6, size: 0x8, addend: 0x0, symName: __ZNKSt3__117__compressed_pairINS_16__hash_node_baseIPNS_11__hash_nodeINS_17__hash_value_typeINS_12basic_stringIcNS_11char_traitsIcEENS_9allocatorIcEEEEN5folly7dynamicEEEPvEEEENS7_ISE_EEE5firstB8ue170006Ev, symObjAddr: 0xCD5C, symBinAddr: 0x100011E68, symSize: 0x24 }
  - { offsetInCU: 0x44B0F, offset: 0x5B51C, size: 0x8, addend: 0x0, symName: __ZNSt3__121__hash_const_iteratorIPNS_11__hash_nodeINS_17__hash_value_typeINS_12basic_stringIcNS_11char_traitsIcEENS_9allocatorIcEEEEN5folly7dynamicEEEPvEEEC1B8ue170006EPNS_16__hash_node_baseISE_EE, symObjAddr: 0xCD80, symBinAddr: 0x100011E8C, symSize: 0x34 }
  - { offsetInCU: 0x44B48, offset: 0x5B555, size: 0x8, addend: 0x0, symName: __ZNKSt3__122__compressed_pair_elemINS_16__hash_node_baseIPNS_11__hash_nodeINS_17__hash_value_typeINS_12basic_stringIcNS_11char_traitsIcEENS_9allocatorIcEEEEN5folly7dynamicEEEPvEEEELi0ELb0EE5__getB8ue170006Ev, symObjAddr: 0xCDB4, symBinAddr: 0x100011EC0, symSize: 0x14 }
  - { offsetInCU: 0x44B6E, offset: 0x5B57B, size: 0x8, addend: 0x0, symName: __ZNSt3__121__hash_const_iteratorIPNS_11__hash_nodeINS_17__hash_value_typeINS_12basic_stringIcNS_11char_traitsIcEENS_9allocatorIcEEEEN5folly7dynamicEEEPvEEEC2B8ue170006EPNS_16__hash_node_baseISE_EE, symObjAddr: 0xCDC8, symBinAddr: 0x100011ED4, symSize: 0x20 }
  - { offsetInCU: 0x44BA7, offset: 0x5B5B4, size: 0x8, addend: 0x0, symName: __ZNSt3__125__hash_map_const_iteratorINS_21__hash_const_iteratorIPNS_11__hash_nodeINS_17__hash_value_typeINS_12basic_stringIcNS_11char_traitsIcEENS_9allocatorIcEEEEN5folly7dynamicEEEPvEEEEEC2B8ue170006ESG_, symObjAddr: 0xCDE8, symBinAddr: 0x100011EF4, symSize: 0x20 }
  - { offsetInCU: 0x44BE0, offset: 0x5B5ED, size: 0x8, addend: 0x0, symName: __ZNKSt3__112__hash_tableINS_17__hash_value_typeINS_12basic_stringIcNS_11char_traitsIcEENS_9allocatorIcEEEEN5folly7dynamicEEENS_22__unordered_map_hasherIS7_SA_NS_4hashIS7_EENS_8equal_toIS7_EELb1EEENS_21__unordered_map_equalIS7_SA_SF_SD_Lb1EEENS5_ISA_EEE3endEv, symObjAddr: 0xCE08, symBinAddr: 0x100011F14, symSize: 0x2C }
  - { offsetInCU: 0x44C08, offset: 0x5B615, size: 0x8, addend: 0x0, symName: __ZNSt3__16vectorIN5folly7dynamicENS_9allocatorIS2_EEEC2ERKS5_, symObjAddr: 0xCE34, symBinAddr: 0x100011F40, symSize: 0x94 }
  - { offsetInCU: 0x44C4D, offset: 0x5B65A, size: 0x8, addend: 0x0, symName: __ZNSt3__116allocator_traitsINS_9allocatorIN5folly7dynamicEEEE37select_on_container_copy_constructionB8ue170006IS4_vvEES4_RKS4_, symObjAddr: 0xCEC8, symBinAddr: 0x100011FD4, symSize: 0x10 }
  - { offsetInCU: 0x44C7C, offset: 0x5B689, size: 0x8, addend: 0x0, symName: __ZNKSt3__16vectorIN5folly7dynamicENS_9allocatorIS2_EEE7__allocB8ue170006Ev, symObjAddr: 0xCED8, symBinAddr: 0x100011FE4, symSize: 0x28 }
  - { offsetInCU: 0x44CA8, offset: 0x5B6B5, size: 0x8, addend: 0x0, symName: __ZNSt3__117__compressed_pairIPN5folly7dynamicENS_9allocatorIS2_EEEC1B8ue170006IDnS5_EEOT_OT0_, symObjAddr: 0xCF00, symBinAddr: 0x10001200C, symSize: 0x3C }
  - { offsetInCU: 0x44D00, offset: 0x5B70D, size: 0x8, addend: 0x0, symName: __ZNSt3__16vectorIN5folly7dynamicENS_9allocatorIS2_EEE16__init_with_sizeB8ue170006IPS2_S7_EEvT_T0_m, symObjAddr: 0xCF3C, symBinAddr: 0x100012048, symSize: 0xB8 }
  - { offsetInCU: 0x44D74, offset: 0x5B781, size: 0x8, addend: 0x0, symName: __ZNKSt3__117__compressed_pairIPN5folly7dynamicENS_9allocatorIS2_EEE6secondB8ue170006Ev, symObjAddr: 0xCFF4, symBinAddr: 0x100012100, symSize: 0x24 }
  - { offsetInCU: 0x44D9A, offset: 0x5B7A7, size: 0x8, addend: 0x0, symName: __ZNKSt3__122__compressed_pair_elemINS_9allocatorIN5folly7dynamicEEELi1ELb1EE5__getB8ue170006Ev, symObjAddr: 0xD018, symBinAddr: 0x100012124, symSize: 0x14 }
  - { offsetInCU: 0x44DC0, offset: 0x5B7CD, size: 0x8, addend: 0x0, symName: __ZNSt3__117__compressed_pairIPN5folly7dynamicENS_9allocatorIS2_EEEC2B8ue170006IDnS5_EEOT_OT0_, symObjAddr: 0xD02C, symBinAddr: 0x100012138, symSize: 0x44 }
  - { offsetInCU: 0x44E18, offset: 0x5B825, size: 0x8, addend: 0x0, symName: __ZNSt3__122__compressed_pair_elemINS_9allocatorIN5folly7dynamicEEELi1ELb1EEC2B8ue170006IS4_vEEOT_, symObjAddr: 0xD070, symBinAddr: 0x10001217C, symSize: 0x18 }
  - { offsetInCU: 0x44E5A, offset: 0x5B867, size: 0x8, addend: 0x0, symName: __ZNSt3__16vectorIN5folly7dynamicENS_9allocatorIS2_EEE11__vallocateB8ue170006Em, symObjAddr: 0xD0C8, symBinAddr: 0x1000121D4, symSize: 0xB4 }
  - { offsetInCU: 0x44E9E, offset: 0x5B8AB, size: 0x8, addend: 0x0, symName: __ZNSt3__16vectorIN5folly7dynamicENS_9allocatorIS2_EEE18__construct_at_endIPS2_S7_EEvT_T0_m, symObjAddr: 0xD17C, symBinAddr: 0x100012288, symSize: 0x8C }
  - { offsetInCU: 0x44F14, offset: 0x5B921, size: 0x8, addend: 0x0, symName: __ZNSt3__128__exception_guard_exceptionsINS_6vectorIN5folly7dynamicENS_9allocatorIS3_EEE16__destroy_vectorEE10__completeB8ue170006Ev, symObjAddr: 0xD208, symBinAddr: 0x100012314, symSize: 0x1C }
  - { offsetInCU: 0x44F3A, offset: 0x5B947, size: 0x8, addend: 0x0, symName: __ZNSt3__128__exception_guard_exceptionsINS_6vectorIN5folly7dynamicENS_9allocatorIS3_EEE16__destroy_vectorEED1B8ue170006Ev, symObjAddr: 0xD224, symBinAddr: 0x100012330, symSize: 0x2C }
  - { offsetInCU: 0x44F64, offset: 0x5B971, size: 0x8, addend: 0x0, symName: __ZNSt3__128__exception_guard_exceptionsINS_6vectorIN5folly7dynamicENS_9allocatorIS3_EEE16__destroy_vectorEEC1B8ue170006ES7_, symObjAddr: 0xD250, symBinAddr: 0x10001235C, symSize: 0x34 }
  - { offsetInCU: 0x44F9C, offset: 0x5B9A9, size: 0x8, addend: 0x0, symName: __ZNSt3__128__exception_guard_exceptionsINS_6vectorIN5folly7dynamicENS_9allocatorIS3_EEE16__destroy_vectorEEC2B8ue170006ES7_, symObjAddr: 0xD284, symBinAddr: 0x100012390, symSize: 0x24 }
  - { offsetInCU: 0x44FD4, offset: 0x5B9E1, size: 0x8, addend: 0x0, symName: __ZNKSt3__16vectorIN5folly7dynamicENS_9allocatorIS2_EEE8max_sizeEv, symObjAddr: 0xD2A8, symBinAddr: 0x1000123B4, symSize: 0x60 }
  - { offsetInCU: 0x44FFC, offset: 0x5BA09, size: 0x8, addend: 0x0, symName: __ZNKSt3__16vectorIN5folly7dynamicENS_9allocatorIS2_EEE20__throw_length_errorB8ue170006Ev, symObjAddr: 0xD308, symBinAddr: 0x100012414, symSize: 0x1C }
  - { offsetInCU: 0x45022, offset: 0x5BA2F, size: 0x8, addend: 0x0, symName: __ZNSt3__16vectorIN5folly7dynamicENS_9allocatorIS2_EEE9__end_capB8ue170006Ev, symObjAddr: 0xD364, symBinAddr: 0x100012470, symSize: 0x28 }
  - { offsetInCU: 0x45048, offset: 0x5BA55, size: 0x8, addend: 0x0, symName: __ZNKSt3__16vectorIN5folly7dynamicENS_9allocatorIS2_EEE14__annotate_newB8ue170006Em, symObjAddr: 0xD38C, symBinAddr: 0x100012498, symSize: 0xC8 }
  - { offsetInCU: 0x4507D, offset: 0x5BA8A, size: 0x8, addend: 0x0, symName: __ZNSt3__116allocator_traitsINS_9allocatorIN5folly7dynamicEEEE8max_sizeB8ue170006IS4_vEEmRKS4_, symObjAddr: 0xD480, symBinAddr: 0x10001258C, symSize: 0x24 }
  - { offsetInCU: 0x450AB, offset: 0x5BAB8, size: 0x8, addend: 0x0, symName: __ZNSt3__114numeric_limitsIlE3maxB8ue170006Ev, symObjAddr: 0xD4A4, symBinAddr: 0x1000125B0, symSize: 0x14 }
  - { offsetInCU: 0x450BF, offset: 0x5BACC, size: 0x8, addend: 0x0, symName: __ZNKSt3__19allocatorIN5folly7dynamicEE8max_sizeB8ue170006Ev, symObjAddr: 0xD50C, symBinAddr: 0x100012618, symSize: 0x18 }
  - { offsetInCU: 0x450E5, offset: 0x5BAF2, size: 0x8, addend: 0x0, symName: __ZNSt3__123__libcpp_numeric_limitsIlLb1EE3maxB8ue170006Ev, symObjAddr: 0xD524, symBinAddr: 0x100012630, symSize: 0x8 }
  - { offsetInCU: 0x450F9, offset: 0x5BB06, size: 0x8, addend: 0x0, symName: __ZNSt12length_errorC1B8ue170006EPKc, symObjAddr: 0xD590, symBinAddr: 0x10001269C, symSize: 0x34 }
  - { offsetInCU: 0x45131, offset: 0x5BB3E, size: 0x8, addend: 0x0, symName: __ZNSt12length_errorC2B8ue170006EPKc, symObjAddr: 0xD5C4, symBinAddr: 0x1000126D0, symSize: 0x4C }
  - { offsetInCU: 0x45169, offset: 0x5BB76, size: 0x8, addend: 0x0, symName: __ZNSt3__19allocatorIN5folly7dynamicEE8allocateB8ue170006Em, symObjAddr: 0xD610, symBinAddr: 0x10001271C, symSize: 0x5C }
  - { offsetInCU: 0x4519D, offset: 0x5BBAA, size: 0x8, addend: 0x0, symName: __ZNSt3__117__compressed_pairIPN5folly7dynamicENS_9allocatorIS2_EEE5firstB8ue170006Ev, symObjAddr: 0xD66C, symBinAddr: 0x100012778, symSize: 0x24 }
  - { offsetInCU: 0x451C3, offset: 0x5BBD0, size: 0x8, addend: 0x0, symName: __ZNSt3__122__compressed_pair_elemIPN5folly7dynamicELi0ELb0EE5__getB8ue170006Ev, symObjAddr: 0xD690, symBinAddr: 0x10001279C, symSize: 0x14 }
  - { offsetInCU: 0x45202, offset: 0x5BC0F, size: 0x8, addend: 0x0, symName: __ZNSt3__16vectorIN5folly7dynamicENS_9allocatorIS2_EEE21_ConstructTransactionC1B8ue170006ERS5_m, symObjAddr: 0xD6A4, symBinAddr: 0x1000127B0, symSize: 0x3C }
  - { offsetInCU: 0x4524A, offset: 0x5BC57, size: 0x8, addend: 0x0, symName: __ZNSt3__16vectorIN5folly7dynamicENS_9allocatorIS2_EEE21_ConstructTransactionD1B8ue170006Ev, symObjAddr: 0xD760, symBinAddr: 0x10001286C, symSize: 0x2C }
  - { offsetInCU: 0x45274, offset: 0x5BC81, size: 0x8, addend: 0x0, symName: __ZNSt3__16vectorIN5folly7dynamicENS_9allocatorIS2_EEE21_ConstructTransactionC2B8ue170006ERS5_m, symObjAddr: 0xD78C, symBinAddr: 0x100012898, symSize: 0x4C }
  - { offsetInCU: 0x452DC, offset: 0x5BCE9, size: 0x8, addend: 0x0, symName: __ZNSt3__14pairIPN5folly7dynamicES3_EC1B8ue170006IS3_S3_LPv0EEEOT_OT0_, symObjAddr: 0xD9C4, symBinAddr: 0x100012AD0, symSize: 0x3C }
  - { offsetInCU: 0x4533A, offset: 0x5BD47, size: 0x8, addend: 0x0, symName: __ZNSt3__14pairIPN5folly7dynamicES3_EC2B8ue170006IS3_S3_LPv0EEEOT_OT0_, symObjAddr: 0xDA00, symBinAddr: 0x100012B0C, symSize: 0x34 }
  - { offsetInCU: 0x45398, offset: 0x5BDA5, size: 0x8, addend: 0x0, symName: __ZNSt3__129_AllocatorDestroyRangeReverseINS_9allocatorIN5folly7dynamicEEEPS3_EC1B8ue170006ERS4_RS5_S8_, symObjAddr: 0xDA80, symBinAddr: 0x100012B8C, symSize: 0x44 }
  - { offsetInCU: 0x453EF, offset: 0x5BDFC, size: 0x8, addend: 0x0, symName: __ZNSt3__116allocator_traitsINS_9allocatorIN5folly7dynamicEEEE9constructB8ue170006IS3_JRS3_EvEEvRS4_PT_DpOT0_, symObjAddr: 0xDAC4, symBinAddr: 0x100012BD0, symSize: 0x34 }
  - { offsetInCU: 0x45446, offset: 0x5BE53, size: 0x8, addend: 0x0, symName: __ZNSt3__128__exception_guard_exceptionsINS_29_AllocatorDestroyRangeReverseINS_9allocatorIN5folly7dynamicEEEPS4_EEE10__completeB8ue170006Ev, symObjAddr: 0xDAF8, symBinAddr: 0x100012C04, symSize: 0x1C }
  - { offsetInCU: 0x4546C, offset: 0x5BE79, size: 0x8, addend: 0x0, symName: __ZNSt3__128__exception_guard_exceptionsINS_29_AllocatorDestroyRangeReverseINS_9allocatorIN5folly7dynamicEEEPS4_EEED1B8ue170006Ev, symObjAddr: 0xDB14, symBinAddr: 0x100012C20, symSize: 0x2C }
  - { offsetInCU: 0x45496, offset: 0x5BEA3, size: 0x8, addend: 0x0, symName: __ZNSt3__128__exception_guard_exceptionsINS_29_AllocatorDestroyRangeReverseINS_9allocatorIN5folly7dynamicEEEPS4_EEEC1B8ue170006ES7_, symObjAddr: 0xDB40, symBinAddr: 0x100012C4C, symSize: 0x34 }
  - { offsetInCU: 0x454CF, offset: 0x5BEDC, size: 0x8, addend: 0x0, symName: __ZNSt3__128__exception_guard_exceptionsINS_29_AllocatorDestroyRangeReverseINS_9allocatorIN5folly7dynamicEEEPS4_EEEC2B8ue170006ES7_, symObjAddr: 0xDB74, symBinAddr: 0x100012C80, symSize: 0x30 }
  - { offsetInCU: 0x45508, offset: 0x5BF15, size: 0x8, addend: 0x0, symName: __ZNSt3__129_AllocatorDestroyRangeReverseINS_9allocatorIN5folly7dynamicEEEPS3_EC2B8ue170006ERS4_RS5_S8_, symObjAddr: 0xDBA4, symBinAddr: 0x100012CB0, symSize: 0x38 }
  - { offsetInCU: 0x4555F, offset: 0x5BF6C, size: 0x8, addend: 0x0, symName: __ZNSt3__19allocatorIN5folly7dynamicEE9constructB8ue170006IS2_JRS2_EEEvPT_DpOT0_, symObjAddr: 0xDBDC, symBinAddr: 0x100012CE8, symSize: 0x30 }
  - { offsetInCU: 0x455B5, offset: 0x5BFC2, size: 0x8, addend: 0x0, symName: __ZNSt3__128__exception_guard_exceptionsINS_29_AllocatorDestroyRangeReverseINS_9allocatorIN5folly7dynamicEEEPS4_EEED2B8ue170006Ev, symObjAddr: 0xDC0C, symBinAddr: 0x100012D18, symSize: 0x50 }
  - { offsetInCU: 0x455DF, offset: 0x5BFEC, size: 0x8, addend: 0x0, symName: __ZNKSt3__129_AllocatorDestroyRangeReverseINS_9allocatorIN5folly7dynamicEEEPS3_EclB8ue170006Ev, symObjAddr: 0xDC5C, symBinAddr: 0x100012D68, symSize: 0x68 }
  - { offsetInCU: 0x45605, offset: 0x5C012, size: 0x8, addend: 0x0, symName: __ZNSt3__116reverse_iteratorIPN5folly7dynamicEEC1B8ue170006ES3_, symObjAddr: 0xDD34, symBinAddr: 0x100012E40, symSize: 0x34 }
  - { offsetInCU: 0x4563D, offset: 0x5C04A, size: 0x8, addend: 0x0, symName: __ZNSt3__116reverse_iteratorIPN5folly7dynamicEEppB8ue170006Ev, symObjAddr: 0xDDD4, symBinAddr: 0x100012EE0, symSize: 0x20 }
  - { offsetInCU: 0x45663, offset: 0x5C070, size: 0x8, addend: 0x0, symName: __ZNKSt3__116reverse_iteratorIPN5folly7dynamicEE4baseB8ue170006Ev, symObjAddr: 0xDDF4, symBinAddr: 0x100012F00, symSize: 0x18 }
  - { offsetInCU: 0x4568E, offset: 0x5C09B, size: 0x8, addend: 0x0, symName: __ZNSt3__119__to_address_helperINS_16reverse_iteratorIPN5folly7dynamicEEEvE6__callB8ue170006ERKS5_, symObjAddr: 0xDE0C, symBinAddr: 0x100012F18, symSize: 0x38 }
  - { offsetInCU: 0x456B1, offset: 0x5C0BE, size: 0x8, addend: 0x0, symName: __ZNKSt3__116reverse_iteratorIPN5folly7dynamicEEptB8ue170006Ev, symObjAddr: 0xDE44, symBinAddr: 0x100012F50, symSize: 0x24 }
  - { offsetInCU: 0x456D7, offset: 0x5C0E4, size: 0x8, addend: 0x0, symName: __ZNKSt3__116reverse_iteratorIPN5folly7dynamicEEdeB8ue170006Ev, symObjAddr: 0xDE68, symBinAddr: 0x100012F74, symSize: 0x28 }
  - { offsetInCU: 0x4570B, offset: 0x5C118, size: 0x8, addend: 0x0, symName: __ZNSt3__116reverse_iteratorIPN5folly7dynamicEEC2B8ue170006ES3_, symObjAddr: 0xDE90, symBinAddr: 0x100012F9C, symSize: 0x28 }
  - { offsetInCU: 0x45743, offset: 0x5C150, size: 0x8, addend: 0x0, symName: __ZNSt3__118__unwrap_iter_implIPN5folly7dynamicELb1EE8__unwrapB8ue170006ES3_, symObjAddr: 0xDEB8, symBinAddr: 0x100012FC4, symSize: 0x24 }
  - { offsetInCU: 0x45766, offset: 0x5C173, size: 0x8, addend: 0x0, symName: __ZNSt3__118__unwrap_iter_implIPN5folly7dynamicELb1EE8__rewrapB8ue170006ES3_S3_, symObjAddr: 0xDEDC, symBinAddr: 0x100012FE8, symSize: 0x58 }
  - { offsetInCU: 0x45797, offset: 0x5C1A4, size: 0x8, addend: 0x0, symName: __ZNSt3__16vectorIN5folly7dynamicENS_9allocatorIS2_EEE21_ConstructTransactionD2B8ue170006Ev, symObjAddr: 0xDF34, symBinAddr: 0x100013040, symSize: 0x20 }
  - { offsetInCU: 0x457C1, offset: 0x5C1CE, size: 0x8, addend: 0x0, symName: __ZNSt3__128__exception_guard_exceptionsINS_6vectorIN5folly7dynamicENS_9allocatorIS3_EEE16__destroy_vectorEED2B8ue170006Ev, symObjAddr: 0xDF54, symBinAddr: 0x100013060, symSize: 0x48 }
  - { offsetInCU: 0x457EB, offset: 0x5C1F8, size: 0x8, addend: 0x0, symName: __ZNSt3__110__get_pairILm0EE3getB8ue170006IKyNS_10shared_ptrIN5hf3fs17monitor_collector13WorkloadStatsEEEEERKT_RKNS_4pairIS9_T0_EE, symObjAddr: 0xDF9C, symBinAddr: 0x1000130A8, symSize: 0x14 }
  - { offsetInCU: 0x45821, offset: 0x5C22E, size: 0x8, addend: 0x0, symName: __ZNSt3__110__get_pairILm1EE3getB8ue170006IKyNS_10shared_ptrIN5hf3fs17monitor_collector13WorkloadStatsEEEEERKT0_RKNS_4pairIT_S9_EE, symObjAddr: 0xDFB0, symBinAddr: 0x1000130BC, symSize: 0x18 }
  - { offsetInCU: 0x45857, offset: 0x5C264, size: 0x8, addend: 0x0, symName: __ZN5folly7dynamicC2Ey, symObjAddr: 0xDFC8, symBinAddr: 0x1000130D4, symSize: 0x68 }
  - { offsetInCU: 0x45894, offset: 0x5C2A1, size: 0x8, addend: 0x0, symName: __ZNSt3__113unordered_mapINS_12basic_stringIcNS_11char_traitsIcEENS_9allocatorIcEEEEN5folly7dynamicENS_4hashIS6_EENS_8equal_toIS6_EENS4_INS_4pairIKS6_S8_EEEEEaSEOSH_, symObjAddr: 0xE20C, symBinAddr: 0x10001313C, symSize: 0x34 }
  - { offsetInCU: 0x458CB, offset: 0x5C2D8, size: 0x8, addend: 0x0, symName: __ZNSt3__16vectorIN5folly7dynamicENS_9allocatorIS2_EEEaSB8ue170006EOS5_, symObjAddr: 0xE240, symBinAddr: 0x100013170, symSize: 0x34 }
  - { offsetInCU: 0x45902, offset: 0x5C30F, size: 0x8, addend: 0x0, symName: __ZNSt3__112__hash_tableINS_17__hash_value_typeINS_12basic_stringIcNS_11char_traitsIcEENS_9allocatorIcEEEEN5folly7dynamicEEENS_22__unordered_map_hasherIS7_SA_NS_4hashIS7_EENS_8equal_toIS7_EELb1EEENS_21__unordered_map_equalIS7_SA_SF_SD_Lb1EEENS5_ISA_EEEaSEOSK_, symObjAddr: 0xE2A8, symBinAddr: 0x1000131A4, symSize: 0x34 }
  - { offsetInCU: 0x45939, offset: 0x5C346, size: 0x8, addend: 0x0, symName: __ZNSt3__112__hash_tableINS_17__hash_value_typeINS_12basic_stringIcNS_11char_traitsIcEENS_9allocatorIcEEEEN5folly7dynamicEEENS_22__unordered_map_hasherIS7_SA_NS_4hashIS7_EENS_8equal_toIS7_EELb1EEENS_21__unordered_map_equalIS7_SA_SF_SD_Lb1EEENS5_ISA_EEE13__move_assignERSK_NS_17integral_constantIbLb1EEE, symObjAddr: 0xE2DC, symBinAddr: 0x1000131D8, symSize: 0x1B8 }
  - { offsetInCU: 0x4597C, offset: 0x5C389, size: 0x8, addend: 0x0, symName: __ZNSt3__112__hash_tableINS_17__hash_value_typeINS_12basic_stringIcNS_11char_traitsIcEENS_9allocatorIcEEEEN5folly7dynamicEEENS_22__unordered_map_hasherIS7_SA_NS_4hashIS7_EENS_8equal_toIS7_EELb1EEENS_21__unordered_map_equalIS7_SA_SF_SD_Lb1EEENS5_ISA_EEE5clearEv, symObjAddr: 0xE494, symBinAddr: 0x100013390, symSize: 0xCC }
  - { offsetInCU: 0x459DE, offset: 0x5C3EB, size: 0x8, addend: 0x0, symName: __ZNSt3__110unique_ptrIA_PNS_16__hash_node_baseIPNS_11__hash_nodeINS_17__hash_value_typeINS_12basic_stringIcNS_11char_traitsIcEENS_9allocatorIcEEEEN5folly7dynamicEEEPvEEEENS_25__bucket_list_deallocatorINS7_ISH_EEEEE7releaseB8ue170006Ev, symObjAddr: 0xE560, symBinAddr: 0x10001345C, symSize: 0x44 }
  - { offsetInCU: 0x45A13, offset: 0x5C420, size: 0x8, addend: 0x0, symName: __ZNSt3__112__hash_tableINS_17__hash_value_typeINS_12basic_stringIcNS_11char_traitsIcEENS_9allocatorIcEEEEN5folly7dynamicEEENS_22__unordered_map_hasherIS7_SA_NS_4hashIS7_EENS_8equal_toIS7_EELb1EEENS_21__unordered_map_equalIS7_SA_SF_SD_Lb1EEENS5_ISA_EEE19__move_assign_allocB8ue170006ERSK_, symObjAddr: 0xE5A4, symBinAddr: 0x1000134A0, symSize: 0x2C }
  - { offsetInCU: 0x45A48, offset: 0x5C455, size: 0x8, addend: 0x0, symName: __ZNSt3__112__hash_tableINS_17__hash_value_typeINS_12basic_stringIcNS_11char_traitsIcEENS_9allocatorIcEEEEN5folly7dynamicEEENS_22__unordered_map_hasherIS7_SA_NS_4hashIS7_EENS_8equal_toIS7_EELb1EEENS_21__unordered_map_equalIS7_SA_SF_SD_Lb1EEENS5_ISA_EEE19__move_assign_allocB8ue170006ERSK_NS_17integral_constantIbLb1EEE, symObjAddr: 0xE5D0, symBinAddr: 0x1000134CC, symSize: 0x50 }
  - { offsetInCU: 0x45A89, offset: 0x5C496, size: 0x8, addend: 0x0, symName: __ZNSt3__16vectorIN5folly7dynamicENS_9allocatorIS2_EEE13__move_assignERS5_NS_17integral_constantIbLb1EEE, symObjAddr: 0xE620, symBinAddr: 0x10001351C, symSize: 0x94 }
  - { offsetInCU: 0x45ACC, offset: 0x5C4D9, size: 0x8, addend: 0x0, symName: __ZNSt3__16vectorIN5folly7dynamicENS_9allocatorIS2_EEE13__vdeallocateEv, symObjAddr: 0xE6B4, symBinAddr: 0x1000135B0, symSize: 0x94 }
  - { offsetInCU: 0x45AF4, offset: 0x5C501, size: 0x8, addend: 0x0, symName: __ZNSt3__16vectorIN5folly7dynamicENS_9allocatorIS2_EEE19__move_assign_allocB8ue170006ERS5_, symObjAddr: 0xE748, symBinAddr: 0x100013644, symSize: 0x2C }
  - { offsetInCU: 0x45B29, offset: 0x5C536, size: 0x8, addend: 0x0, symName: __ZNSt3__16vectorIN5folly7dynamicENS_9allocatorIS2_EEE5clearB8ue170006Ev, symObjAddr: 0xE774, symBinAddr: 0x100013670, symSize: 0x44 }
  - { offsetInCU: 0x45B5E, offset: 0x5C56B, size: 0x8, addend: 0x0, symName: __ZNKSt3__16vectorIN5folly7dynamicENS_9allocatorIS2_EEE17__annotate_shrinkB8ue170006Em, symObjAddr: 0xE7B8, symBinAddr: 0x1000136B4, symSize: 0xD0 }
  - { offsetInCU: 0x45B93, offset: 0x5C5A0, size: 0x8, addend: 0x0, symName: __ZNSt3__16vectorIN5folly7dynamicENS_9allocatorIS2_EEE19__move_assign_allocB8ue170006ERS5_NS_17integral_constantIbLb1EEE, symObjAddr: 0xE888, symBinAddr: 0x100013784, symSize: 0x38 }
  - { offsetInCU: 0x45BD4, offset: 0x5C5E1, size: 0x8, addend: 0x0, symName: __ZN5folly7dynamicC2ERKNSt3__112basic_stringIcNS1_11char_traitsIcEENS1_9allocatorIcEEEE, symObjAddr: 0xEC24, symBinAddr: 0x1000137BC, symSize: 0xA0 }
  - { offsetInCU: 0x45C0C, offset: 0x5C619, size: 0x8, addend: 0x0, symName: __ZN5folly7dynamicC2Ed, symObjAddr: 0xECC4, symBinAddr: 0x10001385C, symSize: 0x64 }
  - { offsetInCU: 0x45C44, offset: 0x5C651, size: 0x8, addend: 0x0, symName: __ZNSt3__110__get_pairILm0EE3getB8ue170006IKNS_12basic_stringIcNS_11char_traitsIcEENS_9allocatorIcEEEEyEERKT_RKNS_4pairISA_T0_EE, symObjAddr: 0xED28, symBinAddr: 0x1000138C0, symSize: 0x14 }
  - { offsetInCU: 0x45C7A, offset: 0x5C687, size: 0x8, addend: 0x0, symName: __ZNSt3__110__get_pairILm1EE3getB8ue170006IKNS_12basic_stringIcNS_11char_traitsIcEENS_9allocatorIcEEEEyEERKT0_RKNS_4pairIT_SA_EE, symObjAddr: 0xED3C, symBinAddr: 0x1000138D4, symSize: 0x18 }
  - { offsetInCU: 0x45CB0, offset: 0x5C6BD, size: 0x8, addend: 0x0, symName: __ZNSt3__113unordered_mapINS_12basic_stringIcNS_11char_traitsIcEENS_9allocatorIcEEEEN5folly7dynamicENS_4hashIS6_EENS_8equal_toIS6_EENS4_INS_4pairIKS6_S8_EEEEEixERSE_, symObjAddr: 0xED54, symBinAddr: 0x1000138EC, symSize: 0x80 }
  - { offsetInCU: 0x45CFC, offset: 0x5C709, size: 0x8, addend: 0x0, symName: __ZNSt3__112__hash_tableINS_17__hash_value_typeINS_12basic_stringIcNS_11char_traitsIcEENS_9allocatorIcEEEEN5folly7dynamicEEENS_22__unordered_map_hasherIS7_SA_NS_4hashIS7_EENS_8equal_toIS7_EELb1EEENS_21__unordered_map_equalIS7_SA_SF_SD_Lb1EEENS5_ISA_EEE25__emplace_unique_key_argsIS7_JRKNS_21piecewise_construct_tENS_5tupleIJRKS7_EEENSP_IJEEEEEENS_4pairINS_15__hash_iteratorIPNS_11__hash_nodeISA_PvEEEEbEERKT_DpOT0_, symObjAddr: 0xEDD4, symBinAddr: 0x10001396C, symSize: 0x4B0 }
  - { offsetInCU: 0x45E06, offset: 0x5C813, size: 0x8, addend: 0x0, symName: __ZNKSt3__115__hash_iteratorIPNS_11__hash_nodeINS_17__hash_value_typeINS_12basic_stringIcNS_11char_traitsIcEENS_9allocatorIcEEEEN5folly7dynamicEEEPvEEEptB8ue170006Ev, symObjAddr: 0xF2B4, symBinAddr: 0x100013E4C, symSize: 0x30 }
  - { offsetInCU: 0x45E2C, offset: 0x5C839, size: 0x8, addend: 0x0, symName: __ZNSt3__112__hash_tableINS_17__hash_value_typeINS_12basic_stringIcNS_11char_traitsIcEENS_9allocatorIcEEEEN5folly7dynamicEEENS_22__unordered_map_hasherIS7_SA_NS_4hashIS7_EENS_8equal_toIS7_EELb1EEENS_21__unordered_map_equalIS7_SA_SF_SD_Lb1EEENS5_ISA_EEE21__construct_node_hashIRKNS_21piecewise_construct_tEJNS_5tupleIJRKS7_EEENSP_IJEEEEEENS_10unique_ptrINS_11__hash_nodeISA_PvEENS_22__hash_node_destructorINS5_ISX_EEEEEEmOT_DpOT0_, symObjAddr: 0xF2E4, symBinAddr: 0x100013E7C, symSize: 0x150 }
  - { offsetInCU: 0x45EC8, offset: 0x5C8D5, size: 0x8, addend: 0x0, symName: __ZNSt3__116allocator_traitsINS_9allocatorINS_11__hash_nodeINS_17__hash_value_typeINS_12basic_stringIcNS_11char_traitsIcEENS1_IcEEEEN5folly7dynamicEEEPvEEEEE9constructB8ue170006INS_4pairIKS8_SA_EEJRKNS_21piecewise_construct_tENS_5tupleIJRSI_EEENSN_IJEEEEvEEvRSE_PT_DpOT0_, symObjAddr: 0xF434, symBinAddr: 0x100013FCC, symSize: 0x44 }
  - { offsetInCU: 0x45F47, offset: 0x5C954, size: 0x8, addend: 0x0, symName: __ZNSt3__19allocatorINS_11__hash_nodeINS_17__hash_value_typeINS_12basic_stringIcNS_11char_traitsIcEENS0_IcEEEEN5folly7dynamicEEEPvEEE9constructB8ue170006INS_4pairIKS7_S9_EEJRKNS_21piecewise_construct_tENS_5tupleIJRSG_EEENSL_IJEEEEEEvPT_DpOT0_, symObjAddr: 0xF478, symBinAddr: 0x100014010, symSize: 0x44 }
  - { offsetInCU: 0x45FC3, offset: 0x5C9D0, size: 0x8, addend: 0x0, symName: __ZNSt3__14pairIKNS_12basic_stringIcNS_11char_traitsIcEENS_9allocatorIcEEEEN5folly7dynamicEEC1B8ue170006IJRS7_EJEEENS_21piecewise_construct_tENS_5tupleIJDpT_EEENSE_IJDpT0_EEE, symObjAddr: 0xF4BC, symBinAddr: 0x100014054, symSize: 0x3C }
  - { offsetInCU: 0x4602A, offset: 0x5CA37, size: 0x8, addend: 0x0, symName: __ZNSt3__14pairIKNS_12basic_stringIcNS_11char_traitsIcEENS_9allocatorIcEEEEN5folly7dynamicEEC1B8ue170006IJRS7_EJEJLm0EEJEEENS_21piecewise_construct_tERNS_5tupleIJDpT_EEERNSE_IJDpT0_EEENS_15__tuple_indicesIJXspT1_EEEENSN_IJXspT2_EEEE, symObjAddr: 0xF4F8, symBinAddr: 0x100014090, symSize: 0x3C }
  - { offsetInCU: 0x460BA, offset: 0x5CAC7, size: 0x8, addend: 0x0, symName: __ZNSt3__14pairIKNS_12basic_stringIcNS_11char_traitsIcEENS_9allocatorIcEEEEN5folly7dynamicEEC2B8ue170006IJRS7_EJEJLm0EEJEEENS_21piecewise_construct_tERNS_5tupleIJDpT_EEERNSE_IJDpT0_EEENS_15__tuple_indicesIJXspT1_EEEENSN_IJXspT2_EEEE, symObjAddr: 0xF534, symBinAddr: 0x1000140CC, symSize: 0x78 }
  - { offsetInCU: 0x4614A, offset: 0x5CB57, size: 0x8, addend: 0x0, symName: __ZNSt3__112__tuple_leafILm0ERKNS_12basic_stringIcNS_11char_traitsIcEENS_9allocatorIcEEEELb0EE3getB8ue170006Ev, symObjAddr: 0xF5D0, symBinAddr: 0x100014168, symSize: 0x18 }
  - { offsetInCU: 0x46170, offset: 0x5CB7D, size: 0x8, addend: 0x0, symName: __ZNSt3__15tupleIJRKNS_12basic_stringIcNS_11char_traitsIcEENS_9allocatorIcEEEEEEC1B8ue170006INS_4_AndELi0EEES8_, symObjAddr: 0xF5E8, symBinAddr: 0x100014180, symSize: 0x34 }
  - { offsetInCU: 0x461B9, offset: 0x5CBC6, size: 0x8, addend: 0x0, symName: __ZNSt3__15tupleIJRKNS_12basic_stringIcNS_11char_traitsIcEENS_9allocatorIcEEEEEEC2B8ue170006INS_4_AndELi0EEES8_, symObjAddr: 0xF61C, symBinAddr: 0x1000141B4, symSize: 0x34 }
  - { offsetInCU: 0x46202, offset: 0x5CC0F, size: 0x8, addend: 0x0, symName: __ZNSt3__112__tuple_implINS_15__tuple_indicesIJLm0EEEEJRKNS_12basic_stringIcNS_11char_traitsIcEENS_9allocatorIcEEEEEEC1B8ue170006IJLm0EEJSA_EJEJEJSA_EEENS1_IJXspT_EEEENS_13__tuple_typesIJDpT0_EEENS1_IJXspT1_EEEENSE_IJDpT2_EEEDpOT3_, symObjAddr: 0xF650, symBinAddr: 0x1000141E8, symSize: 0x34 }
  - { offsetInCU: 0x46297, offset: 0x5CCA4, size: 0x8, addend: 0x0, symName: __ZNSt3__112__tuple_implINS_15__tuple_indicesIJLm0EEEEJRKNS_12basic_stringIcNS_11char_traitsIcEENS_9allocatorIcEEEEEEC2B8ue170006IJLm0EEJSA_EJEJEJSA_EEENS1_IJXspT_EEEENS_13__tuple_typesIJDpT0_EEENS1_IJXspT1_EEEENSE_IJDpT2_EEEDpOT3_, symObjAddr: 0xF684, symBinAddr: 0x10001421C, symSize: 0x34 }
  - { offsetInCU: 0x4632C, offset: 0x5CD39, size: 0x8, addend: 0x0, symName: __ZNSt3__112__tuple_leafILm0ERKNS_12basic_stringIcNS_11char_traitsIcEENS_9allocatorIcEEEELb0EEC2B8ue170006IS8_vEEOT_, symObjAddr: 0xF6B8, symBinAddr: 0x100014250, symSize: 0x20 }
  - { offsetInCU: 0x4636F, offset: 0x5CD7C, size: 0x8, addend: 0x0, symName: __ZNSt3__114pointer_traitsIPNS_17__hash_value_typeINS_12basic_stringIcNS_11char_traitsIcEENS_9allocatorIcEEEEN5folly7dynamicEEEE10pointer_toB8ue170006ERSA_, symObjAddr: 0xF6D8, symBinAddr: 0x100014270, symSize: 0x14 }
  - { offsetInCU: 0x46392, offset: 0x5CD9F, size: 0x8, addend: 0x0, symName: __ZNKSt3__111__wrap_iterIPNS_12basic_stringIcNS_11char_traitsIcEENS_9allocatorIcEEEEE4baseB8ue170006Ev, symObjAddr: 0xF734, symBinAddr: 0x1000142CC, symSize: 0x18 }
  - { offsetInCU: 0x463B8, offset: 0x5CDC5, size: 0x8, addend: 0x0, symName: __ZNSt3__16vectorIN5folly7dynamicENS_9allocatorIS2_EEE9push_backB8ue170006EOS2_, symObjAddr: 0xF74C, symBinAddr: 0x1000142E4, symSize: 0x6C }
  - { offsetInCU: 0x463EF, offset: 0x5CDFC, size: 0x8, addend: 0x0, symName: __ZNSt3__16vectorIN5folly7dynamicENS_9allocatorIS2_EEE22__construct_one_at_endB8ue170006IJS2_EEEvDpOT_, symObjAddr: 0xF7B8, symBinAddr: 0x100014350, symSize: 0x90 }
  - { offsetInCU: 0x4643E, offset: 0x5CE4B, size: 0x8, addend: 0x0, symName: __ZNSt3__16vectorIN5folly7dynamicENS_9allocatorIS2_EEE21__push_back_slow_pathIS2_EEvOT_, symObjAddr: 0xF848, symBinAddr: 0x1000143E0, symSize: 0xD8 }
  - { offsetInCU: 0x4649C, offset: 0x5CEA9, size: 0x8, addend: 0x0, symName: __ZNSt3__116allocator_traitsINS_9allocatorIN5folly7dynamicEEEE9constructB8ue170006IS3_JS3_EvEEvRS4_PT_DpOT0_, symObjAddr: 0xF920, symBinAddr: 0x1000144B8, symSize: 0x34 }
  - { offsetInCU: 0x464F3, offset: 0x5CF00, size: 0x8, addend: 0x0, symName: __ZNSt3__19allocatorIN5folly7dynamicEE9constructB8ue170006IS2_JS2_EEEvPT_DpOT0_, symObjAddr: 0xF954, symBinAddr: 0x1000144EC, symSize: 0x30 }
  - { offsetInCU: 0x46549, offset: 0x5CF56, size: 0x8, addend: 0x0, symName: __ZNKSt3__16vectorIN5folly7dynamicENS_9allocatorIS2_EEE11__recommendB8ue170006Em, symObjAddr: 0xF984, symBinAddr: 0x10001451C, symSize: 0xB4 }
  - { offsetInCU: 0x4659E, offset: 0x5CFAB, size: 0x8, addend: 0x0, symName: __ZNSt3__114__split_bufferIN5folly7dynamicERNS_9allocatorIS2_EEEC1EmmS5_, symObjAddr: 0xFA38, symBinAddr: 0x1000145D0, symSize: 0x44 }
  - { offsetInCU: 0x465F4, offset: 0x5D001, size: 0x8, addend: 0x0, symName: __ZNSt3__114__split_bufferIN5folly7dynamicERNS_9allocatorIS2_EEED1Ev, symObjAddr: 0xFB8C, symBinAddr: 0x100014724, symSize: 0x2C }
  - { offsetInCU: 0x46620, offset: 0x5D02D, size: 0x8, addend: 0x0, symName: __ZNSt3__114__split_bufferIN5folly7dynamicERNS_9allocatorIS2_EEEC2EmmS5_, symObjAddr: 0xFBB8, symBinAddr: 0x100014750, symSize: 0xE0 }
  - { offsetInCU: 0x46693, offset: 0x5D0A0, size: 0x8, addend: 0x0, symName: __ZNSt3__117__compressed_pairIPN5folly7dynamicERNS_9allocatorIS2_EEEC1B8ue170006IDnS6_EEOT_OT0_, symObjAddr: 0xFC98, symBinAddr: 0x100014830, symSize: 0x3C }
  - { offsetInCU: 0x466EB, offset: 0x5D0F8, size: 0x8, addend: 0x0, symName: __ZNSt3__114__split_bufferIN5folly7dynamicERNS_9allocatorIS2_EEE7__allocB8ue170006Ev, symObjAddr: 0xFCD4, symBinAddr: 0x10001486C, symSize: 0x28 }
  - { offsetInCU: 0x46711, offset: 0x5D11E, size: 0x8, addend: 0x0, symName: __ZNSt3__114__split_bufferIN5folly7dynamicERNS_9allocatorIS2_EEE9__end_capB8ue170006Ev, symObjAddr: 0xFCFC, symBinAddr: 0x100014894, symSize: 0x28 }
  - { offsetInCU: 0x46737, offset: 0x5D144, size: 0x8, addend: 0x0, symName: __ZNSt3__117__compressed_pairIPN5folly7dynamicERNS_9allocatorIS2_EEEC2B8ue170006IDnS6_EEOT_OT0_, symObjAddr: 0xFD24, symBinAddr: 0x1000148BC, symSize: 0x48 }
  - { offsetInCU: 0x4678F, offset: 0x5D19C, size: 0x8, addend: 0x0, symName: __ZNSt3__122__compressed_pair_elemIRNS_9allocatorIN5folly7dynamicEEELi1ELb0EEC2B8ue170006IS5_vEEOT_, symObjAddr: 0xFD6C, symBinAddr: 0x100014904, symSize: 0x20 }
  - { offsetInCU: 0x467D1, offset: 0x5D1DE, size: 0x8, addend: 0x0, symName: __ZNSt3__117__compressed_pairIPN5folly7dynamicERNS_9allocatorIS2_EEE6secondB8ue170006Ev, symObjAddr: 0xFD8C, symBinAddr: 0x100014924, symSize: 0x28 }
  - { offsetInCU: 0x467F7, offset: 0x5D204, size: 0x8, addend: 0x0, symName: __ZNSt3__122__compressed_pair_elemIRNS_9allocatorIN5folly7dynamicEEELi1ELb0EE5__getB8ue170006Ev, symObjAddr: 0xFDB4, symBinAddr: 0x10001494C, symSize: 0x18 }
  - { offsetInCU: 0x4681D, offset: 0x5D22A, size: 0x8, addend: 0x0, symName: __ZNSt3__117__compressed_pairIPN5folly7dynamicERNS_9allocatorIS2_EEE5firstB8ue170006Ev, symObjAddr: 0xFDCC, symBinAddr: 0x100014964, symSize: 0x24 }
  - { offsetInCU: 0x46843, offset: 0x5D250, size: 0x8, addend: 0x0, symName: __ZNSt3__129_AllocatorDestroyRangeReverseINS_9allocatorIN5folly7dynamicEEENS_16reverse_iteratorIPS3_EEEC1B8ue170006ERS4_RS7_SA_, symObjAddr: 0xFF94, symBinAddr: 0x100014B2C, symSize: 0x44 }
  - { offsetInCU: 0x4689A, offset: 0x5D2A7, size: 0x8, addend: 0x0, symName: __ZNSt3__128__exception_guard_exceptionsINS_29_AllocatorDestroyRangeReverseINS_9allocatorIN5folly7dynamicEEENS_16reverse_iteratorIPS4_EEEEE10__completeB8ue170006Ev, symObjAddr: 0xFFD8, symBinAddr: 0x100014B70, symSize: 0x1C }
  - { offsetInCU: 0x468C0, offset: 0x5D2CD, size: 0x8, addend: 0x0, symName: __ZNSt3__128__exception_guard_exceptionsINS_29_AllocatorDestroyRangeReverseINS_9allocatorIN5folly7dynamicEEENS_16reverse_iteratorIPS4_EEEEED1B8ue170006Ev, symObjAddr: 0xFFF4, symBinAddr: 0x100014B8C, symSize: 0x2C }
  - { offsetInCU: 0x468EA, offset: 0x5D2F7, size: 0x8, addend: 0x0, symName: __ZNSt3__128__exception_guard_exceptionsINS_29_AllocatorDestroyRangeReverseINS_9allocatorIN5folly7dynamicEEENS_16reverse_iteratorIPS4_EEEEEC1B8ue170006ES9_, symObjAddr: 0x10020, symBinAddr: 0x100014BB8, symSize: 0x34 }
  - { offsetInCU: 0x46923, offset: 0x5D330, size: 0x8, addend: 0x0, symName: __ZNSt3__128__exception_guard_exceptionsINS_29_AllocatorDestroyRangeReverseINS_9allocatorIN5folly7dynamicEEENS_16reverse_iteratorIPS4_EEEEEC2B8ue170006ES9_, symObjAddr: 0x10054, symBinAddr: 0x100014BEC, symSize: 0x30 }
  - { offsetInCU: 0x4695C, offset: 0x5D369, size: 0x8, addend: 0x0, symName: __ZNSt3__129_AllocatorDestroyRangeReverseINS_9allocatorIN5folly7dynamicEEENS_16reverse_iteratorIPS3_EEEC2B8ue170006ERS4_RS7_SA_, symObjAddr: 0x10084, symBinAddr: 0x100014C1C, symSize: 0x38 }
  - { offsetInCU: 0x469B3, offset: 0x5D3C0, size: 0x8, addend: 0x0, symName: __ZNSt3__128__exception_guard_exceptionsINS_29_AllocatorDestroyRangeReverseINS_9allocatorIN5folly7dynamicEEENS_16reverse_iteratorIPS4_EEEEED2B8ue170006Ev, symObjAddr: 0x100BC, symBinAddr: 0x100014C54, symSize: 0x50 }
  - { offsetInCU: 0x469DD, offset: 0x5D3EA, size: 0x8, addend: 0x0, symName: __ZNKSt3__129_AllocatorDestroyRangeReverseINS_9allocatorIN5folly7dynamicEEENS_16reverse_iteratorIPS3_EEEclB8ue170006Ev, symObjAddr: 0x1010C, symBinAddr: 0x100014CA4, symSize: 0xB4 }
  - { offsetInCU: 0x46A04, offset: 0x5D411, size: 0x8, addend: 0x0, symName: __ZNSt3__116reverse_iteratorINS0_IPN5folly7dynamicEEEEC1B8ue170006ES4_, symObjAddr: 0x10230, symBinAddr: 0x100014DC8, symSize: 0x3C }
  - { offsetInCU: 0x46A3C, offset: 0x5D449, size: 0x8, addend: 0x0, symName: __ZNSt3__116reverse_iteratorINS0_IPN5folly7dynamicEEEEppB8ue170006Ev, symObjAddr: 0x102F0, symBinAddr: 0x100014E88, symSize: 0x30 }
  - { offsetInCU: 0x46A62, offset: 0x5D46F, size: 0x8, addend: 0x0, symName: __ZNKSt3__116reverse_iteratorINS0_IPN5folly7dynamicEEEE4baseB8ue170006Ev, symObjAddr: 0x10320, symBinAddr: 0x100014EB8, symSize: 0x24 }
  - { offsetInCU: 0x46A8D, offset: 0x5D49A, size: 0x8, addend: 0x0, symName: __ZNSt3__119__to_address_helperINS_16reverse_iteratorINS1_IPN5folly7dynamicEEEEEvE6__callB8ue170006ERKS6_, symObjAddr: 0x10344, symBinAddr: 0x100014EDC, symSize: 0x38 }
  - { offsetInCU: 0x46AB0, offset: 0x5D4BD, size: 0x8, addend: 0x0, symName: __ZNKSt3__116reverse_iteratorINS0_IPN5folly7dynamicEEEEptB8ue170006Ev, symObjAddr: 0x1037C, symBinAddr: 0x100014F14, symSize: 0x24 }
  - { offsetInCU: 0x46AD6, offset: 0x5D4E3, size: 0x8, addend: 0x0, symName: __ZNKSt3__116reverse_iteratorINS0_IPN5folly7dynamicEEEEdeB8ue170006Ev, symObjAddr: 0x103A0, symBinAddr: 0x100014F38, symSize: 0x34 }
  - { offsetInCU: 0x46B0A, offset: 0x5D517, size: 0x8, addend: 0x0, symName: __ZNSt3__116reverse_iteratorIPN5folly7dynamicEEmmB8ue170006Ev, symObjAddr: 0x103D4, symBinAddr: 0x100014F6C, symSize: 0x20 }
  - { offsetInCU: 0x46B30, offset: 0x5D53D, size: 0x8, addend: 0x0, symName: __ZNSt3__116reverse_iteratorINS0_IPN5folly7dynamicEEEEC2B8ue170006ES4_, symObjAddr: 0x103F4, symBinAddr: 0x100014F8C, symSize: 0x2C }
  - { offsetInCU: 0x46B68, offset: 0x5D575, size: 0x8, addend: 0x0, symName: __ZNSt3__114__split_bufferIN5folly7dynamicERNS_9allocatorIS2_EEED2Ev, symObjAddr: 0x10420, symBinAddr: 0x100014FB8, symSize: 0x8C }
  - { offsetInCU: 0x46B94, offset: 0x5D5A1, size: 0x8, addend: 0x0, symName: __ZNSt3__114__split_bufferIN5folly7dynamicERNS_9allocatorIS2_EEE5clearB8ue170006Ev, symObjAddr: 0x104AC, symBinAddr: 0x100015044, symSize: 0x28 }
  - { offsetInCU: 0x46BBA, offset: 0x5D5C7, size: 0x8, addend: 0x0, symName: __ZNKSt3__114__split_bufferIN5folly7dynamicERNS_9allocatorIS2_EEE8capacityB8ue170006Ev, symObjAddr: 0x104D4, symBinAddr: 0x10001506C, symSize: 0x40 }
  - { offsetInCU: 0x46BE0, offset: 0x5D5ED, size: 0x8, addend: 0x0, symName: __ZNSt3__114__split_bufferIN5folly7dynamicERNS_9allocatorIS2_EEE17__destruct_at_endB8ue170006EPS2_, symObjAddr: 0x10514, symBinAddr: 0x1000150AC, symSize: 0x2C }
  - { offsetInCU: 0x46C14, offset: 0x5D621, size: 0x8, addend: 0x0, symName: __ZNSt3__114__split_bufferIN5folly7dynamicERNS_9allocatorIS2_EEE17__destruct_at_endB8ue170006EPS2_NS_17integral_constantIbLb0EEE, symObjAddr: 0x10540, symBinAddr: 0x1000150D8, symSize: 0x80 }
  - { offsetInCU: 0x46C55, offset: 0x5D662, size: 0x8, addend: 0x0, symName: __ZNKSt3__114__split_bufferIN5folly7dynamicERNS_9allocatorIS2_EEE9__end_capB8ue170006Ev, symObjAddr: 0x105C0, symBinAddr: 0x100015158, symSize: 0x28 }
  - { offsetInCU: 0x46C7B, offset: 0x5D688, size: 0x8, addend: 0x0, symName: __ZNKSt3__117__compressed_pairIPN5folly7dynamicERNS_9allocatorIS2_EEE5firstB8ue170006Ev, symObjAddr: 0x105E8, symBinAddr: 0x100015180, symSize: 0x24 }
  - { offsetInCU: 0x46CA1, offset: 0x5D6AE, size: 0x8, addend: 0x0, symName: __ZN5folly7dynamicC2EOS0_, symObjAddr: 0x1060C, symBinAddr: 0x1000151A4, symSize: 0x84 }
  - { offsetInCU: 0x46CD6, offset: 0x5D6E3, size: 0x8, addend: 0x0, symName: __ZNSt3__113unordered_mapINS_12basic_stringIcNS_11char_traitsIcEENS_9allocatorIcEEEEN5folly7dynamicENS_4hashIS6_EENS_8equal_toIS6_EENS4_INS_4pairIKS6_S8_EEEEEC1EOSH_, symObjAddr: 0x10690, symBinAddr: 0x100015228, symSize: 0x34 }
  - { offsetInCU: 0x46D11, offset: 0x5D71E, size: 0x8, addend: 0x0, symName: __ZNSt3__16vectorIN5folly7dynamicENS_9allocatorIS2_EEEC1B8ue170006EOS5_, symObjAddr: 0x106C4, symBinAddr: 0x10001525C, symSize: 0x34 }
  - { offsetInCU: 0x46D4C, offset: 0x5D759, size: 0x8, addend: 0x0, symName: __ZNSt3__113unordered_mapINS_12basic_stringIcNS_11char_traitsIcEENS_9allocatorIcEEEEN5folly7dynamicENS_4hashIS6_EENS_8equal_toIS6_EENS4_INS_4pairIKS6_S8_EEEEEC2EOSH_, symObjAddr: 0x1072C, symBinAddr: 0x100015290, symSize: 0x34 }
  - { offsetInCU: 0x46D87, offset: 0x5D794, size: 0x8, addend: 0x0, symName: __ZNSt3__112__hash_tableINS_17__hash_value_typeINS_12basic_stringIcNS_11char_traitsIcEENS_9allocatorIcEEEEN5folly7dynamicEEENS_22__unordered_map_hasherIS7_SA_NS_4hashIS7_EENS_8equal_toIS7_EELb1EEENS_21__unordered_map_equalIS7_SA_SF_SD_Lb1EEENS5_ISA_EEEC1EOSK_, symObjAddr: 0x10760, symBinAddr: 0x1000152C4, symSize: 0x34 }
  - { offsetInCU: 0x46DC2, offset: 0x5D7CF, size: 0x8, addend: 0x0, symName: __ZNSt3__112__hash_tableINS_17__hash_value_typeINS_12basic_stringIcNS_11char_traitsIcEENS_9allocatorIcEEEEN5folly7dynamicEEENS_22__unordered_map_hasherIS7_SA_NS_4hashIS7_EENS_8equal_toIS7_EELb1EEENS_21__unordered_map_equalIS7_SA_SF_SD_Lb1EEENS5_ISA_EEEC2EOSK_, symObjAddr: 0x10794, symBinAddr: 0x1000152F8, symSize: 0xF8 }
  - { offsetInCU: 0x46DFD, offset: 0x5D80A, size: 0x8, addend: 0x0, symName: __ZNSt3__110unique_ptrIA_PNS_16__hash_node_baseIPNS_11__hash_nodeINS_17__hash_value_typeINS_12basic_stringIcNS_11char_traitsIcEENS_9allocatorIcEEEEN5folly7dynamicEEEPvEEEENS_25__bucket_list_deallocatorINS7_ISH_EEEEEC1B8ue170006EOSM_, symObjAddr: 0x1088C, symBinAddr: 0x1000153F0, symSize: 0x34 }
  - { offsetInCU: 0x46E36, offset: 0x5D843, size: 0x8, addend: 0x0, symName: __ZNSt3__110unique_ptrIA_PNS_16__hash_node_baseIPNS_11__hash_nodeINS_17__hash_value_typeINS_12basic_stringIcNS_11char_traitsIcEENS_9allocatorIcEEEEN5folly7dynamicEEEPvEEEENS_25__bucket_list_deallocatorINS7_ISH_EEEEEC2B8ue170006EOSM_, symObjAddr: 0x108C0, symBinAddr: 0x100015424, symSize: 0x60 }
  - { offsetInCU: 0x46E75, offset: 0x5D882, size: 0x8, addend: 0x0, symName: __ZNSt3__117__compressed_pairIPPNS_16__hash_node_baseIPNS_11__hash_nodeINS_17__hash_value_typeINS_12basic_stringIcNS_11char_traitsIcEENS_9allocatorIcEEEEN5folly7dynamicEEEPvEEEENS_25__bucket_list_deallocatorINS7_ISH_EEEEEC1B8ue170006ISI_SL_EEOT_OT0_, symObjAddr: 0x10920, symBinAddr: 0x100015484, symSize: 0x3C }
  - { offsetInCU: 0x46ECD, offset: 0x5D8DA, size: 0x8, addend: 0x0, symName: __ZNSt3__117__compressed_pairIPPNS_16__hash_node_baseIPNS_11__hash_nodeINS_17__hash_value_typeINS_12basic_stringIcNS_11char_traitsIcEENS_9allocatorIcEEEEN5folly7dynamicEEEPvEEEENS_25__bucket_list_deallocatorINS7_ISH_EEEEEC2B8ue170006ISI_SL_EEOT_OT0_, symObjAddr: 0x1095C, symBinAddr: 0x1000154C0, symSize: 0x48 }
  - { offsetInCU: 0x46F25, offset: 0x5D932, size: 0x8, addend: 0x0, symName: __ZNSt3__122__compressed_pair_elemIPPNS_16__hash_node_baseIPNS_11__hash_nodeINS_17__hash_value_typeINS_12basic_stringIcNS_11char_traitsIcEENS_9allocatorIcEEEEN5folly7dynamicEEEPvEEEELi0ELb0EEC2B8ue170006ISI_vEEOT_, symObjAddr: 0x109A4, symBinAddr: 0x100015508, symSize: 0x24 }
  - { offsetInCU: 0x46F67, offset: 0x5D974, size: 0x8, addend: 0x0, symName: __ZNSt3__16vectorIN5folly7dynamicENS_9allocatorIS2_EEEC2B8ue170006EOS5_, symObjAddr: 0x109C8, symBinAddr: 0x10001552C, symSize: 0xC4 }
  - { offsetInCU: 0x46FA2, offset: 0x5D9AF, size: 0x8, addend: 0x0, symName: __ZN5folly7dynamicC2Ei, symObjAddr: 0x10B1C, symBinAddr: 0x1000155F0, symSize: 0x68 }
  - { offsetInCU: 0x46FDA, offset: 0x5D9E7, size: 0x8, addend: 0x0, symName: __ZNSt3__110__get_pairILm0EE3getB8ue170006IKyNS_10shared_ptrIN5hf3fs17monitor_collector13WorkloadStatsEEEEERT_RNS_4pairIS9_T0_EE, symObjAddr: 0x10B84, symBinAddr: 0x100015658, symSize: 0x14 }
  - { offsetInCU: 0x47010, offset: 0x5DA1D, size: 0x8, addend: 0x0, symName: __ZNSt3__110__get_pairILm1EE3getB8ue170006IKyNS_10shared_ptrIN5hf3fs17monitor_collector13WorkloadStatsEEEEERT0_RNS_4pairIT_S9_EE, symObjAddr: 0x10B98, symBinAddr: 0x10001566C, symSize: 0x18 }
  - { offsetInCU: 0x47046, offset: 0x5DA53, size: 0x8, addend: 0x0, symName: __ZNKSt3__111__wrap_iterIPN5hf3fs17monitor_collector15OperationRecordEE4baseB8ue170006Ev, symObjAddr: 0x10BF8, symBinAddr: 0x1000156CC, symSize: 0x18 }
  - { offsetInCU: 0x4706C, offset: 0x5DA79, size: 0x8, addend: 0x0, symName: __ZNKSt3__111__wrap_iterIPyE4baseB8ue170006Ev, symObjAddr: 0x10C58, symBinAddr: 0x10001572C, symSize: 0x18 }
  - { offsetInCU: 0x47092, offset: 0x5DA9F, size: 0x8, addend: 0x0, symName: __ZNSt3__111__wrap_iterIPKNS_10shared_ptrIN5hf3fs17monitor_collector13WorkloadStatsEEEEC2B8ue170006IPS5_EERKNS0_IT_EEPNS_9enable_ifIXsr14is_convertibleISB_S7_EE5valueEvE4typeE, symObjAddr: 0x10C70, symBinAddr: 0x100015744, symSize: 0x40 }
  - { offsetInCU: 0x470DE, offset: 0x5DAEB, size: 0x8, addend: 0x0, symName: __ZNKSt3__111__wrap_iterIPKN5hf3fs17monitor_collector15OperationRecordEE4baseB8ue170006Ev, symObjAddr: 0x10CF8, symBinAddr: 0x1000157CC, symSize: 0x18 }
  - { offsetInCU: 0x47118, offset: 0x5DB25, size: 0x8, addend: 0x0, symName: __ZNKSt16initializer_listIiE5beginB8ue170006Ev, symObjAddr: 0x10D40, symBinAddr: 0x100015814, symSize: 0x18 }
  - { offsetInCU: 0x4713E, offset: 0x5DB4B, size: 0x8, addend: 0x0, symName: __ZNKSt16initializer_listIiE3endB8ue170006Ev, symObjAddr: 0x10D58, symBinAddr: 0x10001582C, symSize: 0x20 }
  - { offsetInCU: 0x47169, offset: 0x5DB76, size: 0x8, addend: 0x0, symName: __ZNKSt3__16__lessIvvEclB8ue170006IiiEEbRKT_RKT0_, symObjAddr: 0x10E14, symBinAddr: 0x1000158E8, symSize: 0x34 }
  - { offsetInCU: 0x471BD, offset: 0x5DBCA, size: 0x8, addend: 0x0, symName: __ZNSt3__18functionIFvvEED2Ev, symObjAddr: 0x10E8C, symBinAddr: 0x10001591C, symSize: 0x2C }
  - { offsetInCU: 0x471E9, offset: 0x5DBF6, size: 0x8, addend: 0x0, symName: __ZNSt3__110__function12__value_funcIFvvEED1B8ue170006Ev, symObjAddr: 0x10EB8, symBinAddr: 0x100015948, symSize: 0x2C }
  - { offsetInCU: 0x47213, offset: 0x5DC20, size: 0x8, addend: 0x0, symName: __ZNSt3__110__function12__value_funcIFvvEED2B8ue170006Ev, symObjAddr: 0x10EE4, symBinAddr: 0x100015974, symSize: 0x90 }
  - { offsetInCU: 0x4723D, offset: 0x5DC4A, size: 0x8, addend: 0x0, symName: __ZNSt3__112basic_stringIcNS_11char_traitsIcEENS_9allocatorIcEEE15__make_iteratorB8ue170006EPc, symObjAddr: 0x10F74, symBinAddr: 0x100015A04, symSize: 0x30 }
  - { offsetInCU: 0x47272, offset: 0x5DC7F, size: 0x8, addend: 0x0, symName: __ZNSt3__111__wrap_iterIPcEC1B8ue170006ES1_, symObjAddr: 0x10FF8, symBinAddr: 0x100015A34, symSize: 0x34 }
  - { offsetInCU: 0x472AA, offset: 0x5DCB7, size: 0x8, addend: 0x0, symName: __ZNSt3__111__wrap_iterIPcEC2B8ue170006ES1_, symObjAddr: 0x1102C, symBinAddr: 0x100015A68, symSize: 0x20 }
  - { offsetInCU: 0x472E2, offset: 0x5DCEF, size: 0x8, addend: 0x0, symName: __ZNKSt3__111__wrap_iterIPcEdeB8ue170006Ev, symObjAddr: 0x11080, symBinAddr: 0x100015ABC, symSize: 0x18 }
  - { offsetInCU: 0x47308, offset: 0x5DD15, size: 0x8, addend: 0x0, symName: __ZNSt3__111__wrap_iterIPcEppB8ue170006Ev, symObjAddr: 0x11098, symBinAddr: 0x100015AD4, symSize: 0x20 }
  - { offsetInCU: 0x4732E, offset: 0x5DD3B, size: 0x8, addend: 0x0, symName: __ZNKSt3__111__wrap_iterIPcE4baseB8ue170006Ev, symObjAddr: 0x11100, symBinAddr: 0x100015B3C, symSize: 0x18 }
  - { offsetInCU: 0x47354, offset: 0x5DD61, size: 0x8, addend: 0x0, symName: __ZNSt3__113unordered_mapIyNS_10shared_ptrIN5hf3fs17monitor_collector13WorkloadStatsEEENS_4hashIyEENS_8equal_toIyEENS_9allocatorINS_4pairIKyS5_EEEEED2B8ue170006Ev, symObjAddr: 0x11118, symBinAddr: 0x100015B54, symSize: 0x2C }
  - { offsetInCU: 0x4737E, offset: 0x5DD8B, size: 0x8, addend: 0x0, symName: __ZNSt3__112__hash_tableINS_17__hash_value_typeIyNS_10shared_ptrIN5hf3fs17monitor_collector13WorkloadStatsEEEEENS_22__unordered_map_hasherIyS7_NS_4hashIyEENS_8equal_toIyEELb1EEENS_21__unordered_map_equalIyS7_SC_SA_Lb1EEENS_9allocatorIS7_EEED1Ev, symObjAddr: 0x11144, symBinAddr: 0x100015B80, symSize: 0x2C }
  - { offsetInCU: 0x473AA, offset: 0x5DDB7, size: 0x8, addend: 0x0, symName: __ZNSt3__112__hash_tableINS_17__hash_value_typeIyNS_10shared_ptrIN5hf3fs17monitor_collector13WorkloadStatsEEEEENS_22__unordered_map_hasherIyS7_NS_4hashIyEENS_8equal_toIyEELb1EEENS_21__unordered_map_equalIyS7_SC_SA_Lb1EEENS_9allocatorIS7_EEED2Ev, symObjAddr: 0x11170, symBinAddr: 0x100015BAC, symSize: 0x48 }
  - { offsetInCU: 0x473D6, offset: 0x5DDE3, size: 0x8, addend: 0x0, symName: __ZNSt3__112__hash_tableINS_17__hash_value_typeIyNS_10shared_ptrIN5hf3fs17monitor_collector13WorkloadStatsEEEEENS_22__unordered_map_hasherIyS7_NS_4hashIyEENS_8equal_toIyEELb1EEENS_21__unordered_map_equalIyS7_SC_SA_Lb1EEENS_9allocatorIS7_EEE17__deallocate_nodeEPNS_16__hash_node_baseIPNS_11__hash_nodeIS7_PvEEEE, symObjAddr: 0x111B8, symBinAddr: 0x100015BF4, symSize: 0xA8 }
  - { offsetInCU: 0x47440, offset: 0x5DE4D, size: 0x8, addend: 0x0, symName: __ZNSt3__117__compressed_pairINS_16__hash_node_baseIPNS_11__hash_nodeINS_17__hash_value_typeIyNS_10shared_ptrIN5hf3fs17monitor_collector13WorkloadStatsEEEEEPvEEEENS_9allocatorISB_EEE5firstB8ue170006Ev, symObjAddr: 0x11260, symBinAddr: 0x100015C9C, symSize: 0x24 }
  - { offsetInCU: 0x47466, offset: 0x5DE73, size: 0x8, addend: 0x0, symName: __ZNSt3__110unique_ptrIA_PNS_16__hash_node_baseIPNS_11__hash_nodeINS_17__hash_value_typeIyNS_10shared_ptrIN5hf3fs17monitor_collector13WorkloadStatsEEEEEPvEEEENS_25__bucket_list_deallocatorINS_9allocatorISE_EEEEED1B8ue170006Ev, symObjAddr: 0x11284, symBinAddr: 0x100015CC0, symSize: 0x2C }
  - { offsetInCU: 0x47490, offset: 0x5DE9D, size: 0x8, addend: 0x0, symName: __ZNSt3__112__hash_tableINS_17__hash_value_typeIyNS_10shared_ptrIN5hf3fs17monitor_collector13WorkloadStatsEEEEENS_22__unordered_map_hasherIyS7_NS_4hashIyEENS_8equal_toIyEELb1EEENS_21__unordered_map_equalIyS7_SC_SA_Lb1EEENS_9allocatorIS7_EEE12__node_allocB8ue170006Ev, symObjAddr: 0x112B0, symBinAddr: 0x100015CEC, symSize: 0x28 }
  - { offsetInCU: 0x474B6, offset: 0x5DEC3, size: 0x8, addend: 0x0, symName: __ZNSt3__116__hash_node_baseIPNS_11__hash_nodeINS_17__hash_value_typeIyNS_10shared_ptrIN5hf3fs17monitor_collector13WorkloadStatsEEEEEPvEEE8__upcastB8ue170006Ev, symObjAddr: 0x112D8, symBinAddr: 0x100015D14, symSize: 0x24 }
  - { offsetInCU: 0x474DC, offset: 0x5DEE9, size: 0x8, addend: 0x0, symName: __ZNSt3__116allocator_traitsINS_9allocatorINS_11__hash_nodeINS_17__hash_value_typeIyNS_10shared_ptrIN5hf3fs17monitor_collector13WorkloadStatsEEEEEPvEEEEE7destroyB8ue170006INS_4pairIKyS8_EEvvEEvRSC_PT_, symObjAddr: 0x112FC, symBinAddr: 0x100015D38, symSize: 0x28 }
  - { offsetInCU: 0x47517, offset: 0x5DF24, size: 0x8, addend: 0x0, symName: __ZNSt3__122__hash_key_value_typesINS_17__hash_value_typeIyNS_10shared_ptrIN5hf3fs17monitor_collector13WorkloadStatsEEEEEE9__get_ptrB8ue170006ERS7_, symObjAddr: 0x11324, symBinAddr: 0x100015D60, symSize: 0x24 }
  - { offsetInCU: 0x4753A, offset: 0x5DF47, size: 0x8, addend: 0x0, symName: __ZNSt3__116allocator_traitsINS_9allocatorINS_11__hash_nodeINS_17__hash_value_typeIyNS_10shared_ptrIN5hf3fs17monitor_collector13WorkloadStatsEEEEEPvEEEEE10deallocateB8ue170006ERSC_PSB_m, symObjAddr: 0x11348, symBinAddr: 0x100015D84, symSize: 0x34 }
  - { offsetInCU: 0x4757C, offset: 0x5DF89, size: 0x8, addend: 0x0, symName: __ZNSt3__117__compressed_pairINS_16__hash_node_baseIPNS_11__hash_nodeINS_17__hash_value_typeIyNS_10shared_ptrIN5hf3fs17monitor_collector13WorkloadStatsEEEEEPvEEEENS_9allocatorISB_EEE6secondB8ue170006Ev, symObjAddr: 0x1137C, symBinAddr: 0x100015DB8, symSize: 0x24 }
  - { offsetInCU: 0x475A2, offset: 0x5DFAF, size: 0x8, addend: 0x0, symName: __ZNSt3__122__compressed_pair_elemINS_9allocatorINS_11__hash_nodeINS_17__hash_value_typeIyNS_10shared_ptrIN5hf3fs17monitor_collector13WorkloadStatsEEEEEPvEEEELi1ELb1EE5__getB8ue170006Ev, symObjAddr: 0x113A0, symBinAddr: 0x100015DDC, symSize: 0x14 }
  - { offsetInCU: 0x475C8, offset: 0x5DFD5, size: 0x8, addend: 0x0, symName: __ZNSt3__114pointer_traitsIPNS_16__hash_node_baseIPNS_11__hash_nodeINS_17__hash_value_typeIyNS_10shared_ptrIN5hf3fs17monitor_collector13WorkloadStatsEEEEEPvEEEEE10pointer_toB8ue170006ERSD_, symObjAddr: 0x113B4, symBinAddr: 0x100015DF0, symSize: 0x14 }
  - { offsetInCU: 0x475EB, offset: 0x5DFF8, size: 0x8, addend: 0x0, symName: __ZNSt3__14pairIKyNS_10shared_ptrIN5hf3fs17monitor_collector13WorkloadStatsEEEED1Ev, symObjAddr: 0x113C8, symBinAddr: 0x100015E04, symSize: 0x2C }
  - { offsetInCU: 0x47617, offset: 0x5E024, size: 0x8, addend: 0x0, symName: __ZNSt3__14pairIKyNS_10shared_ptrIN5hf3fs17monitor_collector13WorkloadStatsEEEED2Ev, symObjAddr: 0x113F4, symBinAddr: 0x100015E30, symSize: 0x30 }
  - { offsetInCU: 0x47643, offset: 0x5E050, size: 0x8, addend: 0x0, symName: __ZNSt3__117__hash_value_typeIyNS_10shared_ptrIN5hf3fs17monitor_collector13WorkloadStatsEEEE11__get_valueB8ue170006Ev, symObjAddr: 0x11424, symBinAddr: 0x100015E60, symSize: 0x24 }
  - { offsetInCU: 0x47669, offset: 0x5E076, size: 0x8, addend: 0x0, symName: __ZNSt3__19allocatorINS_11__hash_nodeINS_17__hash_value_typeIyNS_10shared_ptrIN5hf3fs17monitor_collector13WorkloadStatsEEEEEPvEEE10deallocateB8ue170006EPSA_m, symObjAddr: 0x11480, symBinAddr: 0x100015EBC, symSize: 0x44 }
  - { offsetInCU: 0x476AB, offset: 0x5E0B8, size: 0x8, addend: 0x0, symName: __ZNSt3__122__compressed_pair_elemINS_16__hash_node_baseIPNS_11__hash_nodeINS_17__hash_value_typeIyNS_10shared_ptrIN5hf3fs17monitor_collector13WorkloadStatsEEEEEPvEEEELi0ELb0EE5__getB8ue170006Ev, symObjAddr: 0x114C4, symBinAddr: 0x100015F00, symSize: 0x14 }
  - { offsetInCU: 0x476D1, offset: 0x5E0DE, size: 0x8, addend: 0x0, symName: __ZNSt3__110unique_ptrIA_PNS_16__hash_node_baseIPNS_11__hash_nodeINS_17__hash_value_typeIyNS_10shared_ptrIN5hf3fs17monitor_collector13WorkloadStatsEEEEEPvEEEENS_25__bucket_list_deallocatorINS_9allocatorISE_EEEEED2B8ue170006Ev, symObjAddr: 0x114D8, symBinAddr: 0x100015F14, symSize: 0x30 }
  - { offsetInCU: 0x476FB, offset: 0x5E108, size: 0x8, addend: 0x0, symName: __ZNSt3__110unique_ptrIA_PNS_16__hash_node_baseIPNS_11__hash_nodeINS_17__hash_value_typeIyNS_10shared_ptrIN5hf3fs17monitor_collector13WorkloadStatsEEEEEPvEEEENS_25__bucket_list_deallocatorINS_9allocatorISE_EEEEE5resetB8ue170006EDn, symObjAddr: 0x11508, symBinAddr: 0x100015F44, symSize: 0x6C }
  - { offsetInCU: 0x4773C, offset: 0x5E149, size: 0x8, addend: 0x0, symName: __ZNSt3__117__compressed_pairIPPNS_16__hash_node_baseIPNS_11__hash_nodeINS_17__hash_value_typeIyNS_10shared_ptrIN5hf3fs17monitor_collector13WorkloadStatsEEEEEPvEEEENS_25__bucket_list_deallocatorINS_9allocatorISE_EEEEE5firstB8ue170006Ev, symObjAddr: 0x11574, symBinAddr: 0x100015FB0, symSize: 0x24 }
  - { offsetInCU: 0x47762, offset: 0x5E16F, size: 0x8, addend: 0x0, symName: __ZNSt3__117__compressed_pairIPPNS_16__hash_node_baseIPNS_11__hash_nodeINS_17__hash_value_typeIyNS_10shared_ptrIN5hf3fs17monitor_collector13WorkloadStatsEEEEEPvEEEENS_25__bucket_list_deallocatorINS_9allocatorISE_EEEEE6secondB8ue170006Ev, symObjAddr: 0x11598, symBinAddr: 0x100015FD4, symSize: 0x28 }
  - { offsetInCU: 0x47788, offset: 0x5E195, size: 0x8, addend: 0x0, symName: __ZNSt3__125__bucket_list_deallocatorINS_9allocatorIPNS_16__hash_node_baseIPNS_11__hash_nodeINS_17__hash_value_typeIyNS_10shared_ptrIN5hf3fs17monitor_collector13WorkloadStatsEEEEEPvEEEEEEEclB8ue170006EPSF_, symObjAddr: 0x115C0, symBinAddr: 0x100015FFC, symSize: 0x58 }
  - { offsetInCU: 0x477BD, offset: 0x5E1CA, size: 0x8, addend: 0x0, symName: __ZNSt3__122__compressed_pair_elemIPPNS_16__hash_node_baseIPNS_11__hash_nodeINS_17__hash_value_typeIyNS_10shared_ptrIN5hf3fs17monitor_collector13WorkloadStatsEEEEEPvEEEELi0ELb0EE5__getB8ue170006Ev, symObjAddr: 0x11618, symBinAddr: 0x100016054, symSize: 0x14 }
  - { offsetInCU: 0x477E3, offset: 0x5E1F0, size: 0x8, addend: 0x0, symName: __ZNSt3__122__compressed_pair_elemINS_25__bucket_list_deallocatorINS_9allocatorIPNS_16__hash_node_baseIPNS_11__hash_nodeINS_17__hash_value_typeIyNS_10shared_ptrIN5hf3fs17monitor_collector13WorkloadStatsEEEEEPvEEEEEEEELi1ELb0EE5__getB8ue170006Ev, symObjAddr: 0x1162C, symBinAddr: 0x100016068, symSize: 0x14 }
  - { offsetInCU: 0x47809, offset: 0x5E216, size: 0x8, addend: 0x0, symName: __ZNSt3__116allocator_traitsINS_9allocatorIPNS_16__hash_node_baseIPNS_11__hash_nodeINS_17__hash_value_typeIyNS_10shared_ptrIN5hf3fs17monitor_collector13WorkloadStatsEEEEEPvEEEEEEE10deallocateB8ue170006ERSG_PSF_m, symObjAddr: 0x11640, symBinAddr: 0x10001607C, symSize: 0x34 }
  - { offsetInCU: 0x4784B, offset: 0x5E258, size: 0x8, addend: 0x0, symName: __ZNSt3__125__bucket_list_deallocatorINS_9allocatorIPNS_16__hash_node_baseIPNS_11__hash_nodeINS_17__hash_value_typeIyNS_10shared_ptrIN5hf3fs17monitor_collector13WorkloadStatsEEEEEPvEEEEEEE7__allocB8ue170006Ev, symObjAddr: 0x11674, symBinAddr: 0x1000160B0, symSize: 0x24 }
  - { offsetInCU: 0x47871, offset: 0x5E27E, size: 0x8, addend: 0x0, symName: __ZNSt3__125__bucket_list_deallocatorINS_9allocatorIPNS_16__hash_node_baseIPNS_11__hash_nodeINS_17__hash_value_typeIyNS_10shared_ptrIN5hf3fs17monitor_collector13WorkloadStatsEEEEEPvEEEEEEE4sizeB8ue170006Ev, symObjAddr: 0x11698, symBinAddr: 0x1000160D4, symSize: 0x24 }
  - { offsetInCU: 0x47897, offset: 0x5E2A4, size: 0x8, addend: 0x0, symName: __ZNSt3__19allocatorIPNS_16__hash_node_baseIPNS_11__hash_nodeINS_17__hash_value_typeIyNS_10shared_ptrIN5hf3fs17monitor_collector13WorkloadStatsEEEEEPvEEEEE10deallocateB8ue170006EPSE_m, symObjAddr: 0x116BC, symBinAddr: 0x1000160F8, symSize: 0x40 }
  - { offsetInCU: 0x478D9, offset: 0x5E2E6, size: 0x8, addend: 0x0, symName: __ZNSt3__117__compressed_pairImNS_9allocatorIPNS_16__hash_node_baseIPNS_11__hash_nodeINS_17__hash_value_typeIyNS_10shared_ptrIN5hf3fs17monitor_collector13WorkloadStatsEEEEEPvEEEEEEE6secondB8ue170006Ev, symObjAddr: 0x116FC, symBinAddr: 0x100016138, symSize: 0x24 }
  - { offsetInCU: 0x478FF, offset: 0x5E30C, size: 0x8, addend: 0x0, symName: __ZNSt3__122__compressed_pair_elemINS_9allocatorIPNS_16__hash_node_baseIPNS_11__hash_nodeINS_17__hash_value_typeIyNS_10shared_ptrIN5hf3fs17monitor_collector13WorkloadStatsEEEEEPvEEEEEELi1ELb1EE5__getB8ue170006Ev, symObjAddr: 0x11720, symBinAddr: 0x10001615C, symSize: 0x14 }
  - { offsetInCU: 0x47925, offset: 0x5E332, size: 0x8, addend: 0x0, symName: __ZNSt3__117__compressed_pairImNS_9allocatorIPNS_16__hash_node_baseIPNS_11__hash_nodeINS_17__hash_value_typeIyNS_10shared_ptrIN5hf3fs17monitor_collector13WorkloadStatsEEEEEPvEEEEEEE5firstB8ue170006Ev, symObjAddr: 0x11734, symBinAddr: 0x100016170, symSize: 0x24 }
  - { offsetInCU: 0x4794B, offset: 0x5E358, size: 0x8, addend: 0x0, symName: __ZNSt3__16vectorINS_10shared_ptrIN5hf3fs17monitor_collector13WorkloadStatsEEENS_9allocatorIS5_EEEC2B8ue170006Ev, symObjAddr: 0x11758, symBinAddr: 0x100016194, symSize: 0x4C }
  - { offsetInCU: 0x47975, offset: 0x5E382, size: 0x8, addend: 0x0, symName: __ZNSt3__117__compressed_pairIPNS_10shared_ptrIN5hf3fs17monitor_collector13WorkloadStatsEEENS_9allocatorIS5_EEEC1B8ue170006IDnNS_18__default_init_tagEEEOT_OT0_, symObjAddr: 0x117A4, symBinAddr: 0x1000161E0, symSize: 0x3C }
  - { offsetInCU: 0x479CD, offset: 0x5E3DA, size: 0x8, addend: 0x0, symName: __ZNSt3__117__compressed_pairIPNS_10shared_ptrIN5hf3fs17monitor_collector13WorkloadStatsEEENS_9allocatorIS5_EEEC2B8ue170006IDnNS_18__default_init_tagEEEOT_OT0_, symObjAddr: 0x117E0, symBinAddr: 0x10001621C, symSize: 0x40 }
  - { offsetInCU: 0x47A25, offset: 0x5E432, size: 0x8, addend: 0x0, symName: __ZNSt3__122__compressed_pair_elemIPNS_10shared_ptrIN5hf3fs17monitor_collector13WorkloadStatsEEELi0ELb0EEC2B8ue170006IDnvEEOT_, symObjAddr: 0x11820, symBinAddr: 0x10001625C, symSize: 0x1C }
  - { offsetInCU: 0x47A67, offset: 0x5E474, size: 0x8, addend: 0x0, symName: __ZNSt3__122__compressed_pair_elemINS_9allocatorINS_10shared_ptrIN5hf3fs17monitor_collector13WorkloadStatsEEEEELi1ELb1EEC2B8ue170006ENS_18__default_init_tagE, symObjAddr: 0x1183C, symBinAddr: 0x100016278, symSize: 0x2C }
  - { offsetInCU: 0x47A9C, offset: 0x5E4A9, size: 0x8, addend: 0x0, symName: __ZNSt3__19allocatorINS_10shared_ptrIN5hf3fs17monitor_collector13WorkloadStatsEEEEC2B8ue170006Ev, symObjAddr: 0x11868, symBinAddr: 0x1000162A4, symSize: 0x2C }
  - { offsetInCU: 0x47AC6, offset: 0x5E4D3, size: 0x8, addend: 0x0, symName: __ZNSt3__116__non_trivial_ifILb1ENS_9allocatorINS_10shared_ptrIN5hf3fs17monitor_collector13WorkloadStatsEEEEEEC2B8ue170006Ev, symObjAddr: 0x11894, symBinAddr: 0x1000162D0, symSize: 0x14 }
  - { offsetInCU: 0x47AF0, offset: 0x5E4FD, size: 0x8, addend: 0x0, symName: __ZNSt3__16vectorINS_10shared_ptrIN5hf3fs17monitor_collector13WorkloadStatsEEENS_9allocatorIS5_EEED2B8ue170006Ev, symObjAddr: 0x118A8, symBinAddr: 0x1000162E4, symSize: 0x44 }
  - { offsetInCU: 0x47B1A, offset: 0x5E527, size: 0x8, addend: 0x0, symName: __ZNSt3__16vectorINS_10shared_ptrIN5hf3fs17monitor_collector13WorkloadStatsEEENS_9allocatorIS5_EEE16__destroy_vectorC1B8ue170006ERS8_, symObjAddr: 0x118EC, symBinAddr: 0x100016328, symSize: 0x34 }
  - { offsetInCU: 0x47B53, offset: 0x5E560, size: 0x8, addend: 0x0, symName: __ZNSt3__16vectorINS_10shared_ptrIN5hf3fs17monitor_collector13WorkloadStatsEEENS_9allocatorIS5_EEE16__destroy_vectorclB8ue170006Ev, symObjAddr: 0x11920, symBinAddr: 0x10001635C, symSize: 0x90 }
  - { offsetInCU: 0x47B79, offset: 0x5E586, size: 0x8, addend: 0x0, symName: __ZNSt3__16vectorINS_10shared_ptrIN5hf3fs17monitor_collector13WorkloadStatsEEENS_9allocatorIS5_EEE16__destroy_vectorC2B8ue170006ERS8_, symObjAddr: 0x119B0, symBinAddr: 0x1000163EC, symSize: 0x20 }
  - { offsetInCU: 0x47BB2, offset: 0x5E5BF, size: 0x8, addend: 0x0, symName: __ZNSt3__16vectorINS_10shared_ptrIN5hf3fs17monitor_collector13WorkloadStatsEEENS_9allocatorIS5_EEE7__clearB8ue170006Ev, symObjAddr: 0x119D0, symBinAddr: 0x10001640C, symSize: 0x28 }
  - { offsetInCU: 0x47BD8, offset: 0x5E5E5, size: 0x8, addend: 0x0, symName: __ZNKSt3__16vectorINS_10shared_ptrIN5hf3fs17monitor_collector13WorkloadStatsEEENS_9allocatorIS5_EEE17__annotate_deleteB8ue170006Ev, symObjAddr: 0x119F8, symBinAddr: 0x100016434, symSize: 0xB8 }
  - { offsetInCU: 0x47BFE, offset: 0x5E60B, size: 0x8, addend: 0x0, symName: __ZNSt3__116allocator_traitsINS_9allocatorINS_10shared_ptrIN5hf3fs17monitor_collector13WorkloadStatsEEEEEE10deallocateB8ue170006ERS7_PS6_m, symObjAddr: 0x11AB0, symBinAddr: 0x1000164EC, symSize: 0x34 }
  - { offsetInCU: 0x47C40, offset: 0x5E64D, size: 0x8, addend: 0x0, symName: __ZNSt3__16vectorINS_10shared_ptrIN5hf3fs17monitor_collector13WorkloadStatsEEENS_9allocatorIS5_EEE7__allocB8ue170006Ev, symObjAddr: 0x11AE4, symBinAddr: 0x100016520, symSize: 0x28 }
  - { offsetInCU: 0x47C66, offset: 0x5E673, size: 0x8, addend: 0x0, symName: __ZNKSt3__16vectorINS_10shared_ptrIN5hf3fs17monitor_collector13WorkloadStatsEEENS_9allocatorIS5_EEE8capacityB8ue170006Ev, symObjAddr: 0x11B0C, symBinAddr: 0x100016548, symSize: 0x40 }
  - { offsetInCU: 0x47C8C, offset: 0x5E699, size: 0x8, addend: 0x0, symName: __ZNSt3__16vectorINS_10shared_ptrIN5hf3fs17monitor_collector13WorkloadStatsEEENS_9allocatorIS5_EEE22__base_destruct_at_endB8ue170006EPS5_, symObjAddr: 0x11B4C, symBinAddr: 0x100016588, symSize: 0x8C }
  - { offsetInCU: 0x47CD0, offset: 0x5E6DD, size: 0x8, addend: 0x0, symName: __ZNSt3__116allocator_traitsINS_9allocatorINS_10shared_ptrIN5hf3fs17monitor_collector13WorkloadStatsEEEEEE7destroyB8ue170006IS6_vEEvRS7_PT_, symObjAddr: 0x11BD8, symBinAddr: 0x100016614, symSize: 0x2C }
  - { offsetInCU: 0x47D0D, offset: 0x5E71A, size: 0x8, addend: 0x0, symName: __ZNSt3__19allocatorINS_10shared_ptrIN5hf3fs17monitor_collector13WorkloadStatsEEEE7destroyB8ue170006EPS5_, symObjAddr: 0x11C18, symBinAddr: 0x100016654, symSize: 0x28 }
  - { offsetInCU: 0x47D41, offset: 0x5E74E, size: 0x8, addend: 0x0, symName: __ZNKSt3__16vectorINS_10shared_ptrIN5hf3fs17monitor_collector13WorkloadStatsEEENS_9allocatorIS5_EEE31__annotate_contiguous_containerB8ue170006EPKvSA_SA_SA_, symObjAddr: 0x11C40, symBinAddr: 0x10001667C, symSize: 0x20 }
  - { offsetInCU: 0x47D97, offset: 0x5E7A4, size: 0x8, addend: 0x0, symName: __ZNKSt3__16vectorINS_10shared_ptrIN5hf3fs17monitor_collector13WorkloadStatsEEENS_9allocatorIS5_EEE4dataB8ue170006Ev, symObjAddr: 0x11C60, symBinAddr: 0x10001669C, symSize: 0x28 }
  - { offsetInCU: 0x47DBD, offset: 0x5E7CA, size: 0x8, addend: 0x0, symName: __ZNSt3__19allocatorINS_10shared_ptrIN5hf3fs17monitor_collector13WorkloadStatsEEEE10deallocateB8ue170006EPS5_m, symObjAddr: 0x11C88, symBinAddr: 0x1000166C4, symSize: 0x40 }
  - { offsetInCU: 0x47DFF, offset: 0x5E80C, size: 0x8, addend: 0x0, symName: __ZNSt3__117__compressed_pairIPNS_10shared_ptrIN5hf3fs17monitor_collector13WorkloadStatsEEENS_9allocatorIS5_EEE6secondB8ue170006Ev, symObjAddr: 0x11CC8, symBinAddr: 0x100016704, symSize: 0x24 }
  - { offsetInCU: 0x47E25, offset: 0x5E832, size: 0x8, addend: 0x0, symName: __ZNSt3__122__compressed_pair_elemINS_9allocatorINS_10shared_ptrIN5hf3fs17monitor_collector13WorkloadStatsEEEEELi1ELb1EE5__getB8ue170006Ev, symObjAddr: 0x11CEC, symBinAddr: 0x100016728, symSize: 0x14 }
  - { offsetInCU: 0x47E4B, offset: 0x5E858, size: 0x8, addend: 0x0, symName: __ZNKSt3__16vectorINS_10shared_ptrIN5hf3fs17monitor_collector13WorkloadStatsEEENS_9allocatorIS5_EEE9__end_capB8ue170006Ev, symObjAddr: 0x11D00, symBinAddr: 0x10001673C, symSize: 0x28 }
  - { offsetInCU: 0x47E71, offset: 0x5E87E, size: 0x8, addend: 0x0, symName: __ZNKSt3__117__compressed_pairIPNS_10shared_ptrIN5hf3fs17monitor_collector13WorkloadStatsEEENS_9allocatorIS5_EEE5firstB8ue170006Ev, symObjAddr: 0x11D28, symBinAddr: 0x100016764, symSize: 0x24 }
  - { offsetInCU: 0x47E97, offset: 0x5E8A4, size: 0x8, addend: 0x0, symName: __ZNKSt3__122__compressed_pair_elemIPNS_10shared_ptrIN5hf3fs17monitor_collector13WorkloadStatsEEELi0ELb0EE5__getB8ue170006Ev, symObjAddr: 0x11D4C, symBinAddr: 0x100016788, symSize: 0x14 }
  - { offsetInCU: 0x47EBD, offset: 0x5E8CA, size: 0x8, addend: 0x0, symName: __ZNSt3__110unique_ptrIN5hf3fs16BackgroundRunnerENS_14default_deleteIS2_EEED2B8ue170006Ev, symObjAddr: 0x11D60, symBinAddr: 0x10001679C, symSize: 0x30 }
  - { offsetInCU: 0x47EEC, offset: 0x5E8F9, size: 0x8, addend: 0x0, symName: '__ZNSt3__18functionIFvvEEC2IZN5hf3fs17monitor_collector19MLWorkloadAnalyticsC1ERKNS6_6ConfigEE3$_0vEET_', symObjAddr: 0x125F8, symBinAddr: 0x1000167CC, symSize: 0x38 }
  - { offsetInCU: 0x47F31, offset: 0x5E93E, size: 0x8, addend: 0x0, symName: '__ZNSt3__110__function12__value_funcIFvvEEC1B8ue170006IZN5hf3fs17monitor_collector19MLWorkloadAnalyticsC1ERKNS7_6ConfigEE3$_0vEEOT_', symObjAddr: 0x12630, symBinAddr: 0x100016804, symSize: 0x50 }
  - { offsetInCU: 0x47F74, offset: 0x5E981, size: 0x8, addend: 0x0, symName: '__ZNSt3__19allocatorIZN5hf3fs17monitor_collector19MLWorkloadAnalyticsC1ERKNS3_6ConfigEE3$_0EC1B8ue170006Ev', symObjAddr: 0x12680, symBinAddr: 0x100016854, symSize: 0x2C }
  - { offsetInCU: 0x47F9E, offset: 0x5E9AB, size: 0x8, addend: 0x0, symName: '__ZNSt3__110__function12__value_funcIFvvEEC1B8ue170006IZN5hf3fs17monitor_collector19MLWorkloadAnalyticsC1ERKNS7_6ConfigEE3$_0NS_9allocatorISB_EEEEOT_RKT0_', symObjAddr: 0x126AC, symBinAddr: 0x100016880, symSize: 0x3C }
  - { offsetInCU: 0x47FF8, offset: 0x5EA05, size: 0x8, addend: 0x0, symName: '__ZNSt3__19allocatorIZN5hf3fs17monitor_collector19MLWorkloadAnalyticsC1ERKNS3_6ConfigEE3$_0EC2B8ue170006Ev', symObjAddr: 0x126E8, symBinAddr: 0x1000168BC, symSize: 0x2C }
  - { offsetInCU: 0x48022, offset: 0x5EA2F, size: 0x8, addend: 0x0, symName: '__ZNSt3__116__non_trivial_ifILb1ENS_9allocatorIZN5hf3fs17monitor_collector19MLWorkloadAnalyticsC1ERKNS4_6ConfigEE3$_0EEEC2B8ue170006Ev', symObjAddr: 0x12714, symBinAddr: 0x1000168E8, symSize: 0x14 }
  - { offsetInCU: 0x4804C, offset: 0x5EA59, size: 0x8, addend: 0x0, symName: '__ZNSt3__110__function12__value_funcIFvvEEC2B8ue170006IZN5hf3fs17monitor_collector19MLWorkloadAnalyticsC1ERKNS7_6ConfigEE3$_0NS_9allocatorISB_EEEEOT_RKT0_', symObjAddr: 0x12728, symBinAddr: 0x1000168FC, symSize: 0x94 }
  - { offsetInCU: 0x480F2, offset: 0x5EAFF, size: 0x8, addend: 0x0, symName: '__ZNSt3__19allocatorINS_10__function6__funcIZN5hf3fs17monitor_collector19MLWorkloadAnalyticsC1ERKNS5_6ConfigEE3$_0NS0_IS9_EEFvvEEEEC1B8ue170006IS9_EERKNS0_IT_EE', symObjAddr: 0x127D4, symBinAddr: 0x1000169A8, symSize: 0x34 }
  - { offsetInCU: 0x48135, offset: 0x5EB42, size: 0x8, addend: 0x0, symName: '__ZNSt3__19allocatorIZN5hf3fs17monitor_collector19MLWorkloadAnalyticsC1ERKNS3_6ConfigEE3$_0EC1B8ue170006INS_10__function6__funcIS7_S8_FvvEEEEERKNS0_IT_EE', symObjAddr: 0x12808, symBinAddr: 0x1000169DC, symSize: 0x34 }
  - { offsetInCU: 0x48173, offset: 0x5EB80, size: 0x8, addend: 0x0, symName: '__ZNSt3__110__function6__funcIZN5hf3fs17monitor_collector19MLWorkloadAnalyticsC1ERKNS4_6ConfigEE3$_0NS_9allocatorIS8_EEFvvEEC1B8ue170006EOS8_OSA_', symObjAddr: 0x1283C, symBinAddr: 0x100016A10, symSize: 0x3C }
  - { offsetInCU: 0x481BB, offset: 0x5EBC8, size: 0x8, addend: 0x0, symName: '__ZNSt3__19allocatorINS_10__function6__funcIZN5hf3fs17monitor_collector19MLWorkloadAnalyticsC1ERKNS5_6ConfigEE3$_0NS0_IS9_EEFvvEEEEC2B8ue170006IS9_EERKNS0_IT_EE', symObjAddr: 0x12878, symBinAddr: 0x100016A4C, symSize: 0x30 }
  - { offsetInCU: 0x481F9, offset: 0x5EC06, size: 0x8, addend: 0x0, symName: '__ZNSt3__116__non_trivial_ifILb1ENS_9allocatorINS_10__function6__funcIZN5hf3fs17monitor_collector19MLWorkloadAnalyticsC1ERKNS6_6ConfigEE3$_0NS1_ISA_EEFvvEEEEEEC2B8ue170006Ev', symObjAddr: 0x128A8, symBinAddr: 0x100016A7C, symSize: 0x14 }
  - { offsetInCU: 0x48223, offset: 0x5EC30, size: 0x8, addend: 0x0, symName: '__ZNSt3__19allocatorIZN5hf3fs17monitor_collector19MLWorkloadAnalyticsC1ERKNS3_6ConfigEE3$_0EC2B8ue170006INS_10__function6__funcIS7_S8_FvvEEEEERKNS0_IT_EE', symObjAddr: 0x128BC, symBinAddr: 0x100016A90, symSize: 0x30 }
  - { offsetInCU: 0x48261, offset: 0x5EC6E, size: 0x8, addend: 0x0, symName: '__ZNSt3__110__function6__funcIZN5hf3fs17monitor_collector19MLWorkloadAnalyticsC1ERKNS4_6ConfigEE3$_0NS_9allocatorIS8_EEFvvEEC2B8ue170006EOS8_OSA_', symObjAddr: 0x128EC, symBinAddr: 0x100016AC0, symSize: 0x88 }
  - { offsetInCU: 0x482A9, offset: 0x5ECB6, size: 0x8, addend: 0x0, symName: __ZNSt3__110__function6__baseIFvvEEC2B8ue170006Ev, symObjAddr: 0x12974, symBinAddr: 0x100016B48, symSize: 0x24 }
  - { offsetInCU: 0x482D3, offset: 0x5ECE0, size: 0x8, addend: 0x0, symName: '__ZNSt3__110__function12__alloc_funcIZN5hf3fs17monitor_collector19MLWorkloadAnalyticsC1ERKNS4_6ConfigEE3$_0NS_9allocatorIS8_EEFvvEEC1B8ue170006EOS8_OSA_', symObjAddr: 0x12998, symBinAddr: 0x100016B6C, symSize: 0x3C }
  - { offsetInCU: 0x48319, offset: 0x5ED26, size: 0x8, addend: 0x0, symName: __ZNSt3__110__function6__baseIFvvEED2Ev, symObjAddr: 0x129D4, symBinAddr: 0x100016BA8, symSize: 0x14 }
  - { offsetInCU: 0x48343, offset: 0x5ED50, size: 0x8, addend: 0x0, symName: '__ZNSt3__110__function6__funcIZN5hf3fs17monitor_collector19MLWorkloadAnalyticsC1ERKNS4_6ConfigEE3$_0NS_9allocatorIS8_EEFvvEED1Ev', symObjAddr: 0x129E8, symBinAddr: 0x100016BBC, symSize: 0x2C }
  - { offsetInCU: 0x48370, offset: 0x5ED7D, size: 0x8, addend: 0x0, symName: '__ZNSt3__110__function6__funcIZN5hf3fs17monitor_collector19MLWorkloadAnalyticsC1ERKNS4_6ConfigEE3$_0NS_9allocatorIS8_EEFvvEED0Ev', symObjAddr: 0x12A14, symBinAddr: 0x100016BE8, symSize: 0x30 }
  - { offsetInCU: 0x4839D, offset: 0x5EDAA, size: 0x8, addend: 0x0, symName: '__ZNKSt3__110__function6__funcIZN5hf3fs17monitor_collector19MLWorkloadAnalyticsC1ERKNS4_6ConfigEE3$_0NS_9allocatorIS8_EEFvvEE7__cloneEv', symObjAddr: 0x12A44, symBinAddr: 0x100016C18, symSize: 0xFC }
  - { offsetInCU: 0x483EF, offset: 0x5EDFC, size: 0x8, addend: 0x0, symName: '__ZNKSt3__110__function6__funcIZN5hf3fs17monitor_collector19MLWorkloadAnalyticsC1ERKNS4_6ConfigEE3$_0NS_9allocatorIS8_EEFvvEE7__cloneEPNS0_6__baseISB_EE', symObjAddr: 0x12B40, symBinAddr: 0x100016D14, symSize: 0x58 }
  - { offsetInCU: 0x48426, offset: 0x5EE33, size: 0x8, addend: 0x0, symName: '__ZNSt3__110__function6__funcIZN5hf3fs17monitor_collector19MLWorkloadAnalyticsC1ERKNS4_6ConfigEE3$_0NS_9allocatorIS8_EEFvvEE7destroyEv', symObjAddr: 0x12B98, symBinAddr: 0x100016D6C, symSize: 0x28 }
  - { offsetInCU: 0x4844E, offset: 0x5EE5B, size: 0x8, addend: 0x0, symName: '__ZNSt3__110__function6__funcIZN5hf3fs17monitor_collector19MLWorkloadAnalyticsC1ERKNS4_6ConfigEE3$_0NS_9allocatorIS8_EEFvvEE18destroy_deallocateEv', symObjAddr: 0x12BC0, symBinAddr: 0x100016D94, symSize: 0x58 }
  - { offsetInCU: 0x48491, offset: 0x5EE9E, size: 0x8, addend: 0x0, symName: '__ZNSt3__110__function6__funcIZN5hf3fs17monitor_collector19MLWorkloadAnalyticsC1ERKNS4_6ConfigEE3$_0NS_9allocatorIS8_EEFvvEEclEv', symObjAddr: 0x12C18, symBinAddr: 0x100016DEC, symSize: 0x28 }
  - { offsetInCU: 0x484B9, offset: 0x5EEC6, size: 0x8, addend: 0x0, symName: '__ZNKSt3__110__function6__funcIZN5hf3fs17monitor_collector19MLWorkloadAnalyticsC1ERKNS4_6ConfigEE3$_0NS_9allocatorIS8_EEFvvEE6targetERKSt9type_info', symObjAddr: 0x12C40, symBinAddr: 0x100016E14, symSize: 0x60 }
  - { offsetInCU: 0x484F0, offset: 0x5EEFD, size: 0x8, addend: 0x0, symName: '__ZNKSt3__110__function6__funcIZN5hf3fs17monitor_collector19MLWorkloadAnalyticsC1ERKNS4_6ConfigEE3$_0NS_9allocatorIS8_EEFvvEE11target_typeEv', symObjAddr: 0x12CA0, symBinAddr: 0x100016E74, symSize: 0x18 }
  - { offsetInCU: 0x48518, offset: 0x5EF25, size: 0x8, addend: 0x0, symName: __ZNSt3__110__function6__baseIFvvEED1Ev, symObjAddr: 0x12CB8, symBinAddr: 0x100016E8C, symSize: 0x14 }
  - { offsetInCU: 0x48542, offset: 0x5EF4F, size: 0x8, addend: 0x0, symName: __ZNSt3__110__function6__baseIFvvEED0Ev, symObjAddr: 0x12CCC, symBinAddr: 0x100016EA0, symSize: 0xC }
  - { offsetInCU: 0x4856C, offset: 0x5EF79, size: 0x8, addend: 0x0, symName: '__ZNSt3__110__function12__alloc_funcIZN5hf3fs17monitor_collector19MLWorkloadAnalyticsC1ERKNS4_6ConfigEE3$_0NS_9allocatorIS8_EEFvvEEC2B8ue170006EOS8_OSA_', symObjAddr: 0x12CD8, symBinAddr: 0x100016EAC, symSize: 0x5C }
  - { offsetInCU: 0x485B2, offset: 0x5EFBF, size: 0x8, addend: 0x0, symName: '__ZNSt3__117__compressed_pairIZN5hf3fs17monitor_collector19MLWorkloadAnalyticsC1ERKNS3_6ConfigEE3$_0NS_9allocatorIS7_EEEC1B8ue170006IJOS7_EJOS9_EEENS_21piecewise_construct_tENS_5tupleIJDpT_EEENSF_IJDpT0_EEE', symObjAddr: 0x12D8C, symBinAddr: 0x100016F60, symSize: 0x3C }
  - { offsetInCU: 0x4861C, offset: 0x5F029, size: 0x8, addend: 0x0, symName: '__ZNSt3__15tupleIJOZN5hf3fs17monitor_collector19MLWorkloadAnalyticsC1ERKNS3_6ConfigEE3$_0EEC1B8ue170006IJS7_ELi0EEEDpOT_', symObjAddr: 0x12DC8, symBinAddr: 0x100016F9C, symSize: 0x34 }
  - { offsetInCU: 0x48666, offset: 0x5F073, size: 0x8, addend: 0x0, symName: '__ZNSt3__15tupleIJOZN5hf3fs17monitor_collector19MLWorkloadAnalyticsC1ERKNS3_6ConfigEE3$_0EEC2B8ue170006IJS7_ELi0EEEDpOT_', symObjAddr: 0x12DFC, symBinAddr: 0x100016FD0, symSize: 0x34 }
  - { offsetInCU: 0x486B0, offset: 0x5F0BD, size: 0x8, addend: 0x0, symName: '__ZNSt3__112__tuple_implINS_15__tuple_indicesIJLm0EEEEJOZN5hf3fs17monitor_collector19MLWorkloadAnalyticsC1ERKNS5_6ConfigEE3$_0EEC1B8ue170006IJLm0EEJSA_EJEJEJS9_EEENS1_IJXspT_EEEENS_13__tuple_typesIJDpT0_EEENS1_IJXspT1_EEEENSE_IJDpT2_EEEDpOT3_', symObjAddr: 0x12E30, symBinAddr: 0x100017004, symSize: 0x34 }
  - { offsetInCU: 0x48745, offset: 0x5F152, size: 0x8, addend: 0x0, symName: '__ZNSt3__112__tuple_implINS_15__tuple_indicesIJLm0EEEEJOZN5hf3fs17monitor_collector19MLWorkloadAnalyticsC1ERKNS5_6ConfigEE3$_0EEC2B8ue170006IJLm0EEJSA_EJEJEJS9_EEENS1_IJXspT_EEEENS_13__tuple_typesIJDpT0_EEENS1_IJXspT1_EEEENSE_IJDpT2_EEEDpOT3_', symObjAddr: 0x12E64, symBinAddr: 0x100017038, symSize: 0x34 }
  - { offsetInCU: 0x487DA, offset: 0x5F1E7, size: 0x8, addend: 0x0, symName: '__ZNSt3__112__tuple_leafILm0EOZN5hf3fs17monitor_collector19MLWorkloadAnalyticsC1ERKNS3_6ConfigEE3$_0Lb0EEC2B8ue170006IS7_vEEOT_', symObjAddr: 0x12E98, symBinAddr: 0x10001706C, symSize: 0x20 }
  - { offsetInCU: 0x4881D, offset: 0x5F22A, size: 0x8, addend: 0x0, symName: '__ZNSt3__15tupleIJONS_9allocatorIZN5hf3fs17monitor_collector19MLWorkloadAnalyticsC1ERKNS4_6ConfigEE3$_0EEEEC1B8ue170006IJS9_ELi0EEEDpOT_', symObjAddr: 0x12EB8, symBinAddr: 0x10001708C, symSize: 0x34 }
  - { offsetInCU: 0x48867, offset: 0x5F274, size: 0x8, addend: 0x0, symName: '__ZNSt3__15tupleIJONS_9allocatorIZN5hf3fs17monitor_collector19MLWorkloadAnalyticsC1ERKNS4_6ConfigEE3$_0EEEEC2B8ue170006IJS9_ELi0EEEDpOT_', symObjAddr: 0x12EEC, symBinAddr: 0x1000170C0, symSize: 0x34 }
  - { offsetInCU: 0x488B1, offset: 0x5F2BE, size: 0x8, addend: 0x0, symName: '__ZNSt3__112__tuple_implINS_15__tuple_indicesIJLm0EEEEJONS_9allocatorIZN5hf3fs17monitor_collector19MLWorkloadAnalyticsC1ERKNS6_6ConfigEE3$_0EEEEC1B8ue170006IJLm0EEJSC_EJEJEJSB_EEENS1_IJXspT_EEEENS_13__tuple_typesIJDpT0_EEENS1_IJXspT1_EEEENSG_IJDpT2_EEEDpOT3_', symObjAddr: 0x12F20, symBinAddr: 0x1000170F4, symSize: 0x34 }
  - { offsetInCU: 0x48946, offset: 0x5F353, size: 0x8, addend: 0x0, symName: '__ZNSt3__112__tuple_implINS_15__tuple_indicesIJLm0EEEEJONS_9allocatorIZN5hf3fs17monitor_collector19MLWorkloadAnalyticsC1ERKNS6_6ConfigEE3$_0EEEEC2B8ue170006IJLm0EEJSC_EJEJEJSB_EEENS1_IJXspT_EEEENS_13__tuple_typesIJDpT0_EEENS1_IJXspT1_EEEENSG_IJDpT2_EEEDpOT3_', symObjAddr: 0x12F54, symBinAddr: 0x100017128, symSize: 0x34 }
  - { offsetInCU: 0x489DB, offset: 0x5F3E8, size: 0x8, addend: 0x0, symName: '__ZNSt3__112__tuple_leafILm0EONS_9allocatorIZN5hf3fs17monitor_collector19MLWorkloadAnalyticsC1ERKNS4_6ConfigEE3$_0EELb0EEC2B8ue170006IS9_vEEOT_', symObjAddr: 0x12F88, symBinAddr: 0x10001715C, symSize: 0x20 }
  - { offsetInCU: 0x48A1E, offset: 0x5F42B, size: 0x8, addend: 0x0, symName: '__ZNSt3__117__compressed_pairIZN5hf3fs17monitor_collector19MLWorkloadAnalyticsC1ERKNS3_6ConfigEE3$_0NS_9allocatorIS7_EEEC2B8ue170006IJOS7_EJOS9_EEENS_21piecewise_construct_tENS_5tupleIJDpT_EEENSF_IJDpT0_EEE', symObjAddr: 0x12FA8, symBinAddr: 0x10001717C, symSize: 0x54 }
  - { offsetInCU: 0x48A88, offset: 0x5F495, size: 0x8, addend: 0x0, symName: '__ZNSt3__122__compressed_pair_elemIZN5hf3fs17monitor_collector19MLWorkloadAnalyticsC1ERKNS3_6ConfigEE3$_0Li0ELb0EEC2B8ue170006IJOS7_EJLm0EEEENS_21piecewise_construct_tENS_5tupleIJDpT_EEENS_15__tuple_indicesIJXspT0_EEEE', symObjAddr: 0x12FFC, symBinAddr: 0x1000171D0, symSize: 0x44 }
  - { offsetInCU: 0x48AED, offset: 0x5F4FA, size: 0x8, addend: 0x0, symName: '__ZNSt3__122__compressed_pair_elemINS_9allocatorIZN5hf3fs17monitor_collector19MLWorkloadAnalyticsC1ERKNS4_6ConfigEE3$_0EELi1ELb1EEC2B8ue170006IJOS9_EJLm0EEEENS_21piecewise_construct_tENS_5tupleIJDpT_EEENS_15__tuple_indicesIJXspT0_EEEE', symObjAddr: 0x13040, symBinAddr: 0x100017214, symSize: 0x38 }
  - { offsetInCU: 0x48B52, offset: 0x5F55F, size: 0x8, addend: 0x0, symName: '__ZNSt3__112__tuple_leafILm0EOZN5hf3fs17monitor_collector19MLWorkloadAnalyticsC1ERKNS3_6ConfigEE3$_0Lb0EE3getB8ue170006Ev', symObjAddr: 0x1309C, symBinAddr: 0x100017270, symSize: 0x18 }
  - { offsetInCU: 0x48B78, offset: 0x5F585, size: 0x8, addend: 0x0, symName: '__ZNSt3__112__tuple_leafILm0EONS_9allocatorIZN5hf3fs17monitor_collector19MLWorkloadAnalyticsC1ERKNS4_6ConfigEE3$_0EELb0EE3getB8ue170006Ev', symObjAddr: 0x130D8, symBinAddr: 0x1000172AC, symSize: 0x18 }
  - { offsetInCU: 0x48B9E, offset: 0x5F5AB, size: 0x8, addend: 0x0, symName: '__ZNSt3__110__function6__funcIZN5hf3fs17monitor_collector19MLWorkloadAnalyticsC1ERKNS4_6ConfigEE3$_0NS_9allocatorIS8_EEFvvEED2Ev', symObjAddr: 0x130F0, symBinAddr: 0x1000172C4, symSize: 0x2C }
  - { offsetInCU: 0x48BCB, offset: 0x5F5D8, size: 0x8, addend: 0x0, symName: '__ZNKSt3__110__function12__alloc_funcIZN5hf3fs17monitor_collector19MLWorkloadAnalyticsC1ERKNS4_6ConfigEE3$_0NS_9allocatorIS8_EEFvvEE15__get_allocatorB8ue170006Ev', symObjAddr: 0x1311C, symBinAddr: 0x1000172F0, symSize: 0x24 }
  - { offsetInCU: 0x48BF1, offset: 0x5F5FE, size: 0x8, addend: 0x0, symName: '__ZNSt3__19allocatorINS_10__function6__funcIZN5hf3fs17monitor_collector19MLWorkloadAnalyticsC1ERKNS5_6ConfigEE3$_0NS0_IS9_EEFvvEEEE8allocateB8ue170006Em', symObjAddr: 0x13140, symBinAddr: 0x100017314, symSize: 0x58 }
  - { offsetInCU: 0x48C34, offset: 0x5F641, size: 0x8, addend: 0x0, symName: '__ZNSt3__122__allocator_destructorINS_9allocatorINS_10__function6__funcIZN5hf3fs17monitor_collector19MLWorkloadAnalyticsC1ERKNS6_6ConfigEE3$_0NS1_ISA_EEFvvEEEEEEC1B8ue170006ERSE_m', symObjAddr: 0x13198, symBinAddr: 0x10001736C, symSize: 0x3C }
  - { offsetInCU: 0x48D08, offset: 0x5F715, size: 0x8, addend: 0x0, symName: '__ZNSt3__110unique_ptrINS_10__function6__funcIZN5hf3fs17monitor_collector19MLWorkloadAnalyticsC1ERKNS5_6ConfigEE3$_0NS_9allocatorIS9_EEFvvEEENS_22__allocator_destructorINSA_ISD_EEEEEC1B8ue170006ILb1EvEEPSD_NS_16__dependent_typeINS_27__unique_ptr_deleter_sfinaeISG_EEXT_EE20__good_rval_ref_typeE', symObjAddr: 0x131D4, symBinAddr: 0x1000173A8, symSize: 0x3C }
  - { offsetInCU: 0x48D59, offset: 0x5F766, size: 0x8, addend: 0x0, symName: '__ZNKSt3__110unique_ptrINS_10__function6__funcIZN5hf3fs17monitor_collector19MLWorkloadAnalyticsC1ERKNS5_6ConfigEE3$_0NS_9allocatorIS9_EEFvvEEENS_22__allocator_destructorINSA_ISD_EEEEE3getB8ue170006Ev', symObjAddr: 0x13210, symBinAddr: 0x1000173E4, symSize: 0x28 }
  - { offsetInCU: 0x48D7F, offset: 0x5F78C, size: 0x8, addend: 0x0, symName: '__ZNKSt3__110__function12__alloc_funcIZN5hf3fs17monitor_collector19MLWorkloadAnalyticsC1ERKNS4_6ConfigEE3$_0NS_9allocatorIS8_EEFvvEE8__targetB8ue170006Ev', symObjAddr: 0x13238, symBinAddr: 0x10001740C, symSize: 0x24 }
  - { offsetInCU: 0x48DA5, offset: 0x5F7B2, size: 0x8, addend: 0x0, symName: '__ZNSt3__110__function6__funcIZN5hf3fs17monitor_collector19MLWorkloadAnalyticsC1ERKNS4_6ConfigEE3$_0NS_9allocatorIS8_EEFvvEEC1B8ue170006ERKS8_OSA_', symObjAddr: 0x1325C, symBinAddr: 0x100017430, symSize: 0x3C }
  - { offsetInCU: 0x48DED, offset: 0x5F7FA, size: 0x8, addend: 0x0, symName: '__ZNSt3__110unique_ptrINS_10__function6__funcIZN5hf3fs17monitor_collector19MLWorkloadAnalyticsC1ERKNS5_6ConfigEE3$_0NS_9allocatorIS9_EEFvvEEENS_22__allocator_destructorINSA_ISD_EEEEE7releaseB8ue170006Ev', symObjAddr: 0x13298, symBinAddr: 0x10001746C, symSize: 0x44 }
  - { offsetInCU: 0x48E22, offset: 0x5F82F, size: 0x8, addend: 0x0, symName: '__ZNSt3__110unique_ptrINS_10__function6__funcIZN5hf3fs17monitor_collector19MLWorkloadAnalyticsC1ERKNS5_6ConfigEE3$_0NS_9allocatorIS9_EEFvvEEENS_22__allocator_destructorINSA_ISD_EEEEED1B8ue170006Ev', symObjAddr: 0x132DC, symBinAddr: 0x1000174B0, symSize: 0x2C }
  - { offsetInCU: 0x48E4C, offset: 0x5F859, size: 0x8, addend: 0x0, symName: '__ZNKSt3__117__compressed_pairIZN5hf3fs17monitor_collector19MLWorkloadAnalyticsC1ERKNS3_6ConfigEE3$_0NS_9allocatorIS7_EEE6secondB8ue170006Ev', symObjAddr: 0x13308, symBinAddr: 0x1000174DC, symSize: 0x24 }
  - { offsetInCU: 0x48E72, offset: 0x5F87F, size: 0x8, addend: 0x0, symName: '__ZNKSt3__122__compressed_pair_elemINS_9allocatorIZN5hf3fs17monitor_collector19MLWorkloadAnalyticsC1ERKNS4_6ConfigEE3$_0EELi1ELb1EE5__getB8ue170006Ev', symObjAddr: 0x1332C, symBinAddr: 0x100017500, symSize: 0x14 }
  - { offsetInCU: 0x48EA2, offset: 0x5F8AF, size: 0x8, addend: 0x0, symName: '__ZNSt3__116allocator_traitsINS_9allocatorINS_10__function6__funcIZN5hf3fs17monitor_collector19MLWorkloadAnalyticsC1ERKNS6_6ConfigEE3$_0NS1_ISA_EEFvvEEEEEE8max_sizeB8ue170006ISE_vEEmRKSE_', symObjAddr: 0x13340, symBinAddr: 0x100017514, symSize: 0x24 }
  - { offsetInCU: 0x48ED0, offset: 0x5F8DD, size: 0x8, addend: 0x0, symName: '__ZNKSt3__19allocatorINS_10__function6__funcIZN5hf3fs17monitor_collector19MLWorkloadAnalyticsC1ERKNS5_6ConfigEE3$_0NS0_IS9_EEFvvEEEE8max_sizeB8ue170006Ev', symObjAddr: 0x13364, symBinAddr: 0x100017538, symSize: 0x14 }
  - { offsetInCU: 0x48EF6, offset: 0x5F903, size: 0x8, addend: 0x0, symName: '__ZNSt3__122__allocator_destructorINS_9allocatorINS_10__function6__funcIZN5hf3fs17monitor_collector19MLWorkloadAnalyticsC1ERKNS6_6ConfigEE3$_0NS1_ISA_EEFvvEEEEEEC2B8ue170006ERSE_m', symObjAddr: 0x13378, symBinAddr: 0x10001754C, symSize: 0x2C }
  - { offsetInCU: 0x48F3C, offset: 0x5F949, size: 0x8, addend: 0x0, symName: '__ZNSt3__110unique_ptrINS_10__function6__funcIZN5hf3fs17monitor_collector19MLWorkloadAnalyticsC1ERKNS5_6ConfigEE3$_0NS_9allocatorIS9_EEFvvEEENS_22__allocator_destructorINSA_ISD_EEEEEC2B8ue170006ILb1EvEEPSD_NS_16__dependent_typeINS_27__unique_ptr_deleter_sfinaeISG_EEXT_EE20__good_rval_ref_typeE', symObjAddr: 0x133A4, symBinAddr: 0x100017578, symSize: 0x48 }
  - { offsetInCU: 0x48F8D, offset: 0x5F99A, size: 0x8, addend: 0x0, symName: '__ZNSt3__117__compressed_pairIPNS_10__function6__funcIZN5hf3fs17monitor_collector19MLWorkloadAnalyticsC1ERKNS5_6ConfigEE3$_0NS_9allocatorIS9_EEFvvEEENS_22__allocator_destructorINSA_ISD_EEEEEC1B8ue170006IRSE_SH_EEOT_OT0_', symObjAddr: 0x133EC, symBinAddr: 0x1000175C0, symSize: 0x3C }
  - { offsetInCU: 0x48FE5, offset: 0x5F9F2, size: 0x8, addend: 0x0, symName: '__ZNSt3__117__compressed_pairIPNS_10__function6__funcIZN5hf3fs17monitor_collector19MLWorkloadAnalyticsC1ERKNS5_6ConfigEE3$_0NS_9allocatorIS9_EEFvvEEENS_22__allocator_destructorINSA_ISD_EEEEEC2B8ue170006IRSE_SH_EEOT_OT0_', symObjAddr: 0x13428, symBinAddr: 0x1000175FC, symSize: 0x48 }
  - { offsetInCU: 0x4903D, offset: 0x5FA4A, size: 0x8, addend: 0x0, symName: '__ZNSt3__122__compressed_pair_elemIPNS_10__function6__funcIZN5hf3fs17monitor_collector19MLWorkloadAnalyticsC1ERKNS5_6ConfigEE3$_0NS_9allocatorIS9_EEFvvEEELi0ELb0EEC2B8ue170006IRSE_vEEOT_', symObjAddr: 0x13470, symBinAddr: 0x100017644, symSize: 0x24 }
  - { offsetInCU: 0x4907F, offset: 0x5FA8C, size: 0x8, addend: 0x0, symName: '__ZNSt3__122__compressed_pair_elemINS_22__allocator_destructorINS_9allocatorINS_10__function6__funcIZN5hf3fs17monitor_collector19MLWorkloadAnalyticsC1ERKNS7_6ConfigEE3$_0NS2_ISB_EEFvvEEEEEEELi1ELb0EEC2B8ue170006ISG_vEEOT_', symObjAddr: 0x13494, symBinAddr: 0x100017668, symSize: 0x24 }
  - { offsetInCU: 0x490C1, offset: 0x5FACE, size: 0x8, addend: 0x0, symName: '__ZNKSt3__117__compressed_pairIPNS_10__function6__funcIZN5hf3fs17monitor_collector19MLWorkloadAnalyticsC1ERKNS5_6ConfigEE3$_0NS_9allocatorIS9_EEFvvEEENS_22__allocator_destructorINSA_ISD_EEEEE5firstB8ue170006Ev', symObjAddr: 0x134B8, symBinAddr: 0x10001768C, symSize: 0x24 }
  - { offsetInCU: 0x490E7, offset: 0x5FAF4, size: 0x8, addend: 0x0, symName: '__ZNKSt3__122__compressed_pair_elemIPNS_10__function6__funcIZN5hf3fs17monitor_collector19MLWorkloadAnalyticsC1ERKNS5_6ConfigEE3$_0NS_9allocatorIS9_EEFvvEEELi0ELb0EE5__getB8ue170006Ev', symObjAddr: 0x134DC, symBinAddr: 0x1000176B0, symSize: 0x14 }
  - { offsetInCU: 0x4910D, offset: 0x5FB1A, size: 0x8, addend: 0x0, symName: '__ZNKSt3__117__compressed_pairIZN5hf3fs17monitor_collector19MLWorkloadAnalyticsC1ERKNS3_6ConfigEE3$_0NS_9allocatorIS7_EEE5firstB8ue170006Ev', symObjAddr: 0x134F0, symBinAddr: 0x1000176C4, symSize: 0x24 }
  - { offsetInCU: 0x49133, offset: 0x5FB40, size: 0x8, addend: 0x0, symName: '__ZNKSt3__122__compressed_pair_elemIZN5hf3fs17monitor_collector19MLWorkloadAnalyticsC1ERKNS3_6ConfigEE3$_0Li0ELb0EE5__getB8ue170006Ev', symObjAddr: 0x13514, symBinAddr: 0x1000176E8, symSize: 0x14 }
  - { offsetInCU: 0x49159, offset: 0x5FB66, size: 0x8, addend: 0x0, symName: '__ZNSt3__110__function6__funcIZN5hf3fs17monitor_collector19MLWorkloadAnalyticsC1ERKNS4_6ConfigEE3$_0NS_9allocatorIS8_EEFvvEEC2B8ue170006ERKS8_OSA_', symObjAddr: 0x13528, symBinAddr: 0x1000176FC, symSize: 0x88 }
  - { offsetInCU: 0x491A1, offset: 0x5FBAE, size: 0x8, addend: 0x0, symName: '__ZNSt3__110__function12__alloc_funcIZN5hf3fs17monitor_collector19MLWorkloadAnalyticsC1ERKNS4_6ConfigEE3$_0NS_9allocatorIS8_EEFvvEEC1B8ue170006ERKS8_OSA_', symObjAddr: 0x135B0, symBinAddr: 0x100017784, symSize: 0x3C }
  - { offsetInCU: 0x491E7, offset: 0x5FBF4, size: 0x8, addend: 0x0, symName: '__ZNSt3__110__function12__alloc_funcIZN5hf3fs17monitor_collector19MLWorkloadAnalyticsC1ERKNS4_6ConfigEE3$_0NS_9allocatorIS8_EEFvvEEC2B8ue170006ERKS8_OSA_', symObjAddr: 0x135EC, symBinAddr: 0x1000177C0, symSize: 0x5C }
  - { offsetInCU: 0x4922D, offset: 0x5FC3A, size: 0x8, addend: 0x0, symName: '__ZNSt3__117__compressed_pairIZN5hf3fs17monitor_collector19MLWorkloadAnalyticsC1ERKNS3_6ConfigEE3$_0NS_9allocatorIS7_EEEC1B8ue170006IJRKS7_EJOS9_EEENS_21piecewise_construct_tENS_5tupleIJDpT_EEENSG_IJDpT0_EEE', symObjAddr: 0x13674, symBinAddr: 0x100017848, symSize: 0x3C }
  - { offsetInCU: 0x49297, offset: 0x5FCA4, size: 0x8, addend: 0x0, symName: '__ZNSt3__15tupleIJRKZN5hf3fs17monitor_collector19MLWorkloadAnalyticsC1ERKNS3_6ConfigEE3$_0EEC1B8ue170006INS_4_AndELi0EEES9_', symObjAddr: 0x136B0, symBinAddr: 0x100017884, symSize: 0x34 }
  - { offsetInCU: 0x492E0, offset: 0x5FCED, size: 0x8, addend: 0x0, symName: '__ZNSt3__15tupleIJRKZN5hf3fs17monitor_collector19MLWorkloadAnalyticsC1ERKNS3_6ConfigEE3$_0EEC2B8ue170006INS_4_AndELi0EEES9_', symObjAddr: 0x136E4, symBinAddr: 0x1000178B8, symSize: 0x34 }
  - { offsetInCU: 0x49329, offset: 0x5FD36, size: 0x8, addend: 0x0, symName: '__ZNSt3__112__tuple_implINS_15__tuple_indicesIJLm0EEEEJRKZN5hf3fs17monitor_collector19MLWorkloadAnalyticsC1ERKNS5_6ConfigEE3$_0EEC1B8ue170006IJLm0EEJSB_EJEJEJSB_EEENS1_IJXspT_EEEENS_13__tuple_typesIJDpT0_EEENS1_IJXspT1_EEEENSF_IJDpT2_EEEDpOT3_', symObjAddr: 0x13718, symBinAddr: 0x1000178EC, symSize: 0x34 }
  - { offsetInCU: 0x493BE, offset: 0x5FDCB, size: 0x8, addend: 0x0, symName: '__ZNSt3__112__tuple_implINS_15__tuple_indicesIJLm0EEEEJRKZN5hf3fs17monitor_collector19MLWorkloadAnalyticsC1ERKNS5_6ConfigEE3$_0EEC2B8ue170006IJLm0EEJSB_EJEJEJSB_EEENS1_IJXspT_EEEENS_13__tuple_typesIJDpT0_EEENS1_IJXspT1_EEEENSF_IJDpT2_EEEDpOT3_', symObjAddr: 0x1374C, symBinAddr: 0x100017920, symSize: 0x34 }
  - { offsetInCU: 0x49453, offset: 0x5FE60, size: 0x8, addend: 0x0, symName: '__ZNSt3__112__tuple_leafILm0ERKZN5hf3fs17monitor_collector19MLWorkloadAnalyticsC1ERKNS3_6ConfigEE3$_0Lb0EEC2B8ue170006IS9_vEEOT_', symObjAddr: 0x13780, symBinAddr: 0x100017954, symSize: 0x20 }
  - { offsetInCU: 0x49496, offset: 0x5FEA3, size: 0x8, addend: 0x0, symName: '__ZNSt3__117__compressed_pairIZN5hf3fs17monitor_collector19MLWorkloadAnalyticsC1ERKNS3_6ConfigEE3$_0NS_9allocatorIS7_EEEC2B8ue170006IJRKS7_EJOS9_EEENS_21piecewise_construct_tENS_5tupleIJDpT_EEENSG_IJDpT0_EEE', symObjAddr: 0x137A0, symBinAddr: 0x100017974, symSize: 0x54 }
  - { offsetInCU: 0x49500, offset: 0x5FF0D, size: 0x8, addend: 0x0, symName: '__ZNSt3__122__compressed_pair_elemIZN5hf3fs17monitor_collector19MLWorkloadAnalyticsC1ERKNS3_6ConfigEE3$_0Li0ELb0EEC2B8ue170006IJRKS7_EJLm0EEEENS_21piecewise_construct_tENS_5tupleIJDpT_EEENS_15__tuple_indicesIJXspT0_EEEE', symObjAddr: 0x137F4, symBinAddr: 0x1000179C8, symSize: 0x44 }
  - { offsetInCU: 0x49565, offset: 0x5FF72, size: 0x8, addend: 0x0, symName: '__ZNSt3__112__tuple_leafILm0ERKZN5hf3fs17monitor_collector19MLWorkloadAnalyticsC1ERKNS3_6ConfigEE3$_0Lb0EE3getB8ue170006Ev', symObjAddr: 0x1385C, symBinAddr: 0x100017A30, symSize: 0x18 }
  - { offsetInCU: 0x4958B, offset: 0x5FF98, size: 0x8, addend: 0x0, symName: '__ZNSt3__117__compressed_pairIPNS_10__function6__funcIZN5hf3fs17monitor_collector19MLWorkloadAnalyticsC1ERKNS5_6ConfigEE3$_0NS_9allocatorIS9_EEFvvEEENS_22__allocator_destructorINSA_ISD_EEEEE5firstB8ue170006Ev', symObjAddr: 0x13874, symBinAddr: 0x100017A48, symSize: 0x24 }
  - { offsetInCU: 0x495B1, offset: 0x5FFBE, size: 0x8, addend: 0x0, symName: '__ZNSt3__122__compressed_pair_elemIPNS_10__function6__funcIZN5hf3fs17monitor_collector19MLWorkloadAnalyticsC1ERKNS5_6ConfigEE3$_0NS_9allocatorIS9_EEFvvEEELi0ELb0EE5__getB8ue170006Ev', symObjAddr: 0x13898, symBinAddr: 0x100017A6C, symSize: 0x14 }
  - { offsetInCU: 0x495D7, offset: 0x5FFE4, size: 0x8, addend: 0x0, symName: '__ZNSt3__110unique_ptrINS_10__function6__funcIZN5hf3fs17monitor_collector19MLWorkloadAnalyticsC1ERKNS5_6ConfigEE3$_0NS_9allocatorIS9_EEFvvEEENS_22__allocator_destructorINSA_ISD_EEEEED2B8ue170006Ev', symObjAddr: 0x138AC, symBinAddr: 0x100017A80, symSize: 0x30 }
  - { offsetInCU: 0x49601, offset: 0x6000E, size: 0x8, addend: 0x0, symName: '__ZNSt3__110unique_ptrINS_10__function6__funcIZN5hf3fs17monitor_collector19MLWorkloadAnalyticsC1ERKNS5_6ConfigEE3$_0NS_9allocatorIS9_EEFvvEEENS_22__allocator_destructorINSA_ISD_EEEEE5resetB8ue170006EPSD_', symObjAddr: 0x138DC, symBinAddr: 0x100017AB0, symSize: 0x78 }
  - { offsetInCU: 0x49645, offset: 0x60052, size: 0x8, addend: 0x0, symName: '__ZNSt3__117__compressed_pairIPNS_10__function6__funcIZN5hf3fs17monitor_collector19MLWorkloadAnalyticsC1ERKNS5_6ConfigEE3$_0NS_9allocatorIS9_EEFvvEEENS_22__allocator_destructorINSA_ISD_EEEEE6secondB8ue170006Ev', symObjAddr: 0x13954, symBinAddr: 0x100017B28, symSize: 0x28 }
  - { offsetInCU: 0x4966B, offset: 0x60078, size: 0x8, addend: 0x0, symName: '__ZNSt3__122__allocator_destructorINS_9allocatorINS_10__function6__funcIZN5hf3fs17monitor_collector19MLWorkloadAnalyticsC1ERKNS6_6ConfigEE3$_0NS1_ISA_EEFvvEEEEEEclB8ue170006EPSD_', symObjAddr: 0x1397C, symBinAddr: 0x100017B50, symSize: 0x34 }
  - { offsetInCU: 0x4969F, offset: 0x600AC, size: 0x8, addend: 0x0, symName: '__ZNSt3__122__compressed_pair_elemINS_22__allocator_destructorINS_9allocatorINS_10__function6__funcIZN5hf3fs17monitor_collector19MLWorkloadAnalyticsC1ERKNS7_6ConfigEE3$_0NS2_ISB_EEFvvEEEEEEELi1ELb0EE5__getB8ue170006Ev', symObjAddr: 0x139B0, symBinAddr: 0x100017B84, symSize: 0x14 }
  - { offsetInCU: 0x496C5, offset: 0x600D2, size: 0x8, addend: 0x0, symName: '__ZNSt3__116allocator_traitsINS_9allocatorINS_10__function6__funcIZN5hf3fs17monitor_collector19MLWorkloadAnalyticsC1ERKNS6_6ConfigEE3$_0NS1_ISA_EEFvvEEEEEE10deallocateB8ue170006ERSE_PSD_m', symObjAddr: 0x139C4, symBinAddr: 0x100017B98, symSize: 0x34 }
  - { offsetInCU: 0x49707, offset: 0x60114, size: 0x8, addend: 0x0, symName: '__ZNSt3__19allocatorINS_10__function6__funcIZN5hf3fs17monitor_collector19MLWorkloadAnalyticsC1ERKNS5_6ConfigEE3$_0NS0_IS9_EEFvvEEEE10deallocateB8ue170006EPSC_m', symObjAddr: 0x139F8, symBinAddr: 0x100017BCC, symSize: 0x40 }
  - { offsetInCU: 0x49749, offset: 0x60156, size: 0x8, addend: 0x0, symName: '__ZNSt3__110__function6__funcIZN5hf3fs17monitor_collector19MLWorkloadAnalyticsC1ERKNS4_6ConfigEE3$_0NS_9allocatorIS8_EEFvvEEC1B8ue170006ERKS8_RKSA_', symObjAddr: 0x13A38, symBinAddr: 0x100017C0C, symSize: 0x3C }
  - { offsetInCU: 0x49791, offset: 0x6019E, size: 0x8, addend: 0x0, symName: '__ZNSt3__110__function6__funcIZN5hf3fs17monitor_collector19MLWorkloadAnalyticsC1ERKNS4_6ConfigEE3$_0NS_9allocatorIS8_EEFvvEEC2B8ue170006ERKS8_RKSA_', symObjAddr: 0x13A74, symBinAddr: 0x100017C48, symSize: 0x88 }
  - { offsetInCU: 0x497D9, offset: 0x601E6, size: 0x8, addend: 0x0, symName: '__ZNSt3__110__function12__alloc_funcIZN5hf3fs17monitor_collector19MLWorkloadAnalyticsC1ERKNS4_6ConfigEE3$_0NS_9allocatorIS8_EEFvvEEC1B8ue170006ERKS8_RKSA_', symObjAddr: 0x13AFC, symBinAddr: 0x100017CD0, symSize: 0x3C }
  - { offsetInCU: 0x4981F, offset: 0x6022C, size: 0x8, addend: 0x0, symName: '__ZNSt3__110__function12__alloc_funcIZN5hf3fs17monitor_collector19MLWorkloadAnalyticsC1ERKNS4_6ConfigEE3$_0NS_9allocatorIS8_EEFvvEEC2B8ue170006ERKS8_RKSA_', symObjAddr: 0x13B38, symBinAddr: 0x100017D0C, symSize: 0x5C }
  - { offsetInCU: 0x49865, offset: 0x60272, size: 0x8, addend: 0x0, symName: '__ZNSt3__117__compressed_pairIZN5hf3fs17monitor_collector19MLWorkloadAnalyticsC1ERKNS3_6ConfigEE3$_0NS_9allocatorIS7_EEEC1B8ue170006IJRKS7_EJRKS9_EEENS_21piecewise_construct_tENS_5tupleIJDpT_EEENSH_IJDpT0_EEE', symObjAddr: 0x13BC0, symBinAddr: 0x100017D94, symSize: 0x3C }
  - { offsetInCU: 0x498CF, offset: 0x602DC, size: 0x8, addend: 0x0, symName: '__ZNSt3__15tupleIJRKNS_9allocatorIZN5hf3fs17monitor_collector19MLWorkloadAnalyticsC1ERKNS4_6ConfigEE3$_0EEEEC1B8ue170006INS_4_AndELi0EEESB_', symObjAddr: 0x13BFC, symBinAddr: 0x100017DD0, symSize: 0x34 }
  - { offsetInCU: 0x49918, offset: 0x60325, size: 0x8, addend: 0x0, symName: '__ZNSt3__15tupleIJRKNS_9allocatorIZN5hf3fs17monitor_collector19MLWorkloadAnalyticsC1ERKNS4_6ConfigEE3$_0EEEEC2B8ue170006INS_4_AndELi0EEESB_', symObjAddr: 0x13C30, symBinAddr: 0x100017E04, symSize: 0x34 }
  - { offsetInCU: 0x49961, offset: 0x6036E, size: 0x8, addend: 0x0, symName: '__ZNSt3__112__tuple_implINS_15__tuple_indicesIJLm0EEEEJRKNS_9allocatorIZN5hf3fs17monitor_collector19MLWorkloadAnalyticsC1ERKNS6_6ConfigEE3$_0EEEEC1B8ue170006IJLm0EEJSD_EJEJEJSD_EEENS1_IJXspT_EEEENS_13__tuple_typesIJDpT0_EEENS1_IJXspT1_EEEENSH_IJDpT2_EEEDpOT3_', symObjAddr: 0x13C64, symBinAddr: 0x100017E38, symSize: 0x34 }
  - { offsetInCU: 0x499F6, offset: 0x60403, size: 0x8, addend: 0x0, symName: '__ZNSt3__112__tuple_implINS_15__tuple_indicesIJLm0EEEEJRKNS_9allocatorIZN5hf3fs17monitor_collector19MLWorkloadAnalyticsC1ERKNS6_6ConfigEE3$_0EEEEC2B8ue170006IJLm0EEJSD_EJEJEJSD_EEENS1_IJXspT_EEEENS_13__tuple_typesIJDpT0_EEENS1_IJXspT1_EEEENSH_IJDpT2_EEEDpOT3_', symObjAddr: 0x13C98, symBinAddr: 0x100017E6C, symSize: 0x34 }
  - { offsetInCU: 0x49A8B, offset: 0x60498, size: 0x8, addend: 0x0, symName: '__ZNSt3__112__tuple_leafILm0ERKNS_9allocatorIZN5hf3fs17monitor_collector19MLWorkloadAnalyticsC1ERKNS4_6ConfigEE3$_0EELb0EEC2B8ue170006ISB_vEEOT_', symObjAddr: 0x13CCC, symBinAddr: 0x100017EA0, symSize: 0x20 }
  - { offsetInCU: 0x49ACE, offset: 0x604DB, size: 0x8, addend: 0x0, symName: '__ZNSt3__117__compressed_pairIZN5hf3fs17monitor_collector19MLWorkloadAnalyticsC1ERKNS3_6ConfigEE3$_0NS_9allocatorIS7_EEEC2B8ue170006IJRKS7_EJRKS9_EEENS_21piecewise_construct_tENS_5tupleIJDpT_EEENSH_IJDpT0_EEE', symObjAddr: 0x13CEC, symBinAddr: 0x100017EC0, symSize: 0x54 }
  - { offsetInCU: 0x49B38, offset: 0x60545, size: 0x8, addend: 0x0, symName: '__ZNSt3__122__compressed_pair_elemINS_9allocatorIZN5hf3fs17monitor_collector19MLWorkloadAnalyticsC1ERKNS4_6ConfigEE3$_0EELi1ELb1EEC2B8ue170006IJRKS9_EJLm0EEEENS_21piecewise_construct_tENS_5tupleIJDpT_EEENS_15__tuple_indicesIJXspT0_EEEE', symObjAddr: 0x13D40, symBinAddr: 0x100017F14, symSize: 0x38 }
  - { offsetInCU: 0x49B9D, offset: 0x605AA, size: 0x8, addend: 0x0, symName: '__ZNSt3__112__tuple_leafILm0ERKNS_9allocatorIZN5hf3fs17monitor_collector19MLWorkloadAnalyticsC1ERKNS4_6ConfigEE3$_0EELb0EE3getB8ue170006Ev', symObjAddr: 0x13D9C, symBinAddr: 0x100017F70, symSize: 0x18 }
  - { offsetInCU: 0x49BC3, offset: 0x605D0, size: 0x8, addend: 0x0, symName: '__ZNSt3__110__function12__alloc_funcIZN5hf3fs17monitor_collector19MLWorkloadAnalyticsC1ERKNS4_6ConfigEE3$_0NS_9allocatorIS8_EEFvvEE7destroyB8ue170006Ev', symObjAddr: 0x13DB4, symBinAddr: 0x100017F88, symSize: 0x10 }
  - { offsetInCU: 0x49BE9, offset: 0x605F6, size: 0x8, addend: 0x0, symName: '__ZNSt3__110__function12__alloc_funcIZN5hf3fs17monitor_collector19MLWorkloadAnalyticsC1ERKNS4_6ConfigEE3$_0NS_9allocatorIS8_EEFvvEEclB8ue170006Ev', symObjAddr: 0x13DC4, symBinAddr: 0x100017F98, symSize: 0x28 }
  - { offsetInCU: 0x49C0F, offset: 0x6061C, size: 0x8, addend: 0x0, symName: '__ZNSt3__128__invoke_void_return_wrapperIvLb1EE6__callB8ue170006IJRZN5hf3fs17monitor_collector19MLWorkloadAnalyticsC1ERKNS5_6ConfigEE3$_0EEEvDpOT_', symObjAddr: 0x13DEC, symBinAddr: 0x100017FC0, symSize: 0x24 }
  - { offsetInCU: 0x49C3E, offset: 0x6064B, size: 0x8, addend: 0x0, symName: '__ZNSt3__117__compressed_pairIZN5hf3fs17monitor_collector19MLWorkloadAnalyticsC1ERKNS3_6ConfigEE3$_0NS_9allocatorIS7_EEE5firstB8ue170006Ev', symObjAddr: 0x13E10, symBinAddr: 0x100017FE4, symSize: 0x24 }
  - { offsetInCU: 0x49C69, offset: 0x60676, size: 0x8, addend: 0x0, symName: '__ZZN5hf3fs17monitor_collector19MLWorkloadAnalyticsC1ERKNS1_6ConfigEENK3$_0clEv', symObjAddr: 0x13E58, symBinAddr: 0x10001802C, symSize: 0x3C }
  - { offsetInCU: 0x49C93, offset: 0x606A0, size: 0x8, addend: 0x0, symName: '__ZNSt3__122__compressed_pair_elemIZN5hf3fs17monitor_collector19MLWorkloadAnalyticsC1ERKNS3_6ConfigEE3$_0Li0ELb0EE5__getB8ue170006Ev', symObjAddr: 0x13E94, symBinAddr: 0x100018068, symSize: 0x14 }
  - { offsetInCU: 0x49CEF, offset: 0x606FC, size: 0x8, addend: 0x0, symName: __ZNKSt9type_infoeqB8ue170006ERKS_, symObjAddr: 0x13EA8, symBinAddr: 0x10001807C, symSize: 0xDC }
  - { offsetInCU: 0x49D8D, offset: 0x6079A, size: 0x8, addend: 0x0, symName: __ZNSt27__type_info_implementations30__non_unique_arm_rtti_bit_impl21__is_type_name_uniqueB8ue170006Em, symObjAddr: 0x13F84, symBinAddr: 0x100018158, symSize: 0x20 }
  - { offsetInCU: 0x49DB1, offset: 0x607BE, size: 0x8, addend: 0x0, symName: __ZNKSt3__117__compressed_pairIPN5hf3fs16BackgroundRunnerENS_14default_deleteIS2_EEE5firstB8ue170006Ev, symObjAddr: 0x13FA4, symBinAddr: 0x100018178, symSize: 0x24 }
  - { offsetInCU: 0x49DD7, offset: 0x607E4, size: 0x8, addend: 0x0, symName: __ZNKSt3__122__compressed_pair_elemIPN5hf3fs16BackgroundRunnerELi0ELb0EE5__getB8ue170006Ev, symObjAddr: 0x13FC8, symBinAddr: 0x10001819C, symSize: 0x14 }
  - { offsetInCU: 0x49DFD, offset: 0x6080A, size: 0x8, addend: 0x0, symName: '__ZNSt3__18functionIFvvEEC1IZN5hf3fs17monitor_collector19MLWorkloadAnalytics4initEvE3$_1vEET_', symObjAddr: 0x13FDC, symBinAddr: 0x1000181B0, symSize: 0x34 }
  - { offsetInCU: 0x49E42, offset: 0x6084F, size: 0x8, addend: 0x0, symName: __ZN5hf3fs16BackgroundRunnerC1ERKNSt3__112basic_stringIcNS1_11char_traitsIcEENS1_9allocatorIcEEEENS1_8functionIFvvEEENS1_6chrono8durationIxNS1_5ratioILl1ELl1000EEEEE, symObjAddr: 0x14010, symBinAddr: 0x1000181E4, symSize: 0x44 }
  - { offsetInCU: 0x49E97, offset: 0x608A4, size: 0x8, addend: 0x0, symName: __ZNSt3__110unique_ptrIN5hf3fs16BackgroundRunnerENS_14default_deleteIS2_EEEC1B8ue170006ILb1EvEEPS2_, symObjAddr: 0x14054, symBinAddr: 0x100018228, symSize: 0x34 }
  - { offsetInCU: 0x49EDA, offset: 0x608E7, size: 0x8, addend: 0x0, symName: '__ZNSt3__18functionIFvvEEC2IZN5hf3fs17monitor_collector19MLWorkloadAnalytics4initEvE3$_1vEET_', symObjAddr: 0x14088, symBinAddr: 0x10001825C, symSize: 0x38 }
  - { offsetInCU: 0x49F1F, offset: 0x6092C, size: 0x8, addend: 0x0, symName: '__ZNSt3__110__function12__value_funcIFvvEEC1B8ue170006IZN5hf3fs17monitor_collector19MLWorkloadAnalytics4initEvE3$_1vEEOT_', symObjAddr: 0x140C0, symBinAddr: 0x100018294, symSize: 0x50 }
  - { offsetInCU: 0x49F62, offset: 0x6096F, size: 0x8, addend: 0x0, symName: '__ZNSt3__19allocatorIZN5hf3fs17monitor_collector19MLWorkloadAnalytics4initEvE3$_1EC1B8ue170006Ev', symObjAddr: 0x14110, symBinAddr: 0x1000182E4, symSize: 0x2C }
  - { offsetInCU: 0x49F8C, offset: 0x60999, size: 0x8, addend: 0x0, symName: '__ZNSt3__110__function12__value_funcIFvvEEC1B8ue170006IZN5hf3fs17monitor_collector19MLWorkloadAnalytics4initEvE3$_1NS_9allocatorIS8_EEEEOT_RKT0_', symObjAddr: 0x1413C, symBinAddr: 0x100018310, symSize: 0x3C }
  - { offsetInCU: 0x49FE6, offset: 0x609F3, size: 0x8, addend: 0x0, symName: '__ZNSt3__19allocatorIZN5hf3fs17monitor_collector19MLWorkloadAnalytics4initEvE3$_1EC2B8ue170006Ev', symObjAddr: 0x14178, symBinAddr: 0x10001834C, symSize: 0x2C }
  - { offsetInCU: 0x4A010, offset: 0x60A1D, size: 0x8, addend: 0x0, symName: '__ZNSt3__116__non_trivial_ifILb1ENS_9allocatorIZN5hf3fs17monitor_collector19MLWorkloadAnalytics4initEvE3$_1EEEC2B8ue170006Ev', symObjAddr: 0x141A4, symBinAddr: 0x100018378, symSize: 0x14 }
  - { offsetInCU: 0x4A03A, offset: 0x60A47, size: 0x8, addend: 0x0, symName: '__ZNSt3__110__function12__value_funcIFvvEEC2B8ue170006IZN5hf3fs17monitor_collector19MLWorkloadAnalytics4initEvE3$_1NS_9allocatorIS8_EEEEOT_RKT0_', symObjAddr: 0x141B8, symBinAddr: 0x10001838C, symSize: 0x94 }
  - { offsetInCU: 0x4A0E0, offset: 0x60AED, size: 0x8, addend: 0x0, symName: '__ZNSt3__19allocatorINS_10__function6__funcIZN5hf3fs17monitor_collector19MLWorkloadAnalytics4initEvE3$_1NS0_IS6_EEFvvEEEEC1B8ue170006IS6_EERKNS0_IT_EE', symObjAddr: 0x14264, symBinAddr: 0x100018438, symSize: 0x34 }
  - { offsetInCU: 0x4A123, offset: 0x60B30, size: 0x8, addend: 0x0, symName: '__ZNSt3__19allocatorIZN5hf3fs17monitor_collector19MLWorkloadAnalytics4initEvE3$_1EC1B8ue170006INS_10__function6__funcIS4_S5_FvvEEEEERKNS0_IT_EE', symObjAddr: 0x14298, symBinAddr: 0x10001846C, symSize: 0x34 }
  - { offsetInCU: 0x4A161, offset: 0x60B6E, size: 0x8, addend: 0x0, symName: '__ZNSt3__110__function6__funcIZN5hf3fs17monitor_collector19MLWorkloadAnalytics4initEvE3$_1NS_9allocatorIS5_EEFvvEEC1B8ue170006EOS5_OS7_', symObjAddr: 0x142CC, symBinAddr: 0x1000184A0, symSize: 0x3C }
  - { offsetInCU: 0x4A1A9, offset: 0x60BB6, size: 0x8, addend: 0x0, symName: '__ZNSt3__19allocatorINS_10__function6__funcIZN5hf3fs17monitor_collector19MLWorkloadAnalytics4initEvE3$_1NS0_IS6_EEFvvEEEEC2B8ue170006IS6_EERKNS0_IT_EE', symObjAddr: 0x14308, symBinAddr: 0x1000184DC, symSize: 0x30 }
  - { offsetInCU: 0x4A1E7, offset: 0x60BF4, size: 0x8, addend: 0x0, symName: '__ZNSt3__116__non_trivial_ifILb1ENS_9allocatorINS_10__function6__funcIZN5hf3fs17monitor_collector19MLWorkloadAnalytics4initEvE3$_1NS1_IS7_EEFvvEEEEEEC2B8ue170006Ev', symObjAddr: 0x14338, symBinAddr: 0x10001850C, symSize: 0x14 }
  - { offsetInCU: 0x4A211, offset: 0x60C1E, size: 0x8, addend: 0x0, symName: '__ZNSt3__19allocatorIZN5hf3fs17monitor_collector19MLWorkloadAnalytics4initEvE3$_1EC2B8ue170006INS_10__function6__funcIS4_S5_FvvEEEEERKNS0_IT_EE', symObjAddr: 0x1434C, symBinAddr: 0x100018520, symSize: 0x30 }
  - { offsetInCU: 0x4A24F, offset: 0x60C5C, size: 0x8, addend: 0x0, symName: '__ZNSt3__110__function6__funcIZN5hf3fs17monitor_collector19MLWorkloadAnalytics4initEvE3$_1NS_9allocatorIS5_EEFvvEEC2B8ue170006EOS5_OS7_', symObjAddr: 0x1437C, symBinAddr: 0x100018550, symSize: 0x88 }
  - { offsetInCU: 0x4A297, offset: 0x60CA4, size: 0x8, addend: 0x0, symName: '__ZNSt3__110__function12__alloc_funcIZN5hf3fs17monitor_collector19MLWorkloadAnalytics4initEvE3$_1NS_9allocatorIS5_EEFvvEEC1B8ue170006EOS5_OS7_', symObjAddr: 0x14404, symBinAddr: 0x1000185D8, symSize: 0x3C }
  - { offsetInCU: 0x4A2DD, offset: 0x60CEA, size: 0x8, addend: 0x0, symName: '__ZNSt3__110__function6__funcIZN5hf3fs17monitor_collector19MLWorkloadAnalytics4initEvE3$_1NS_9allocatorIS5_EEFvvEED1Ev', symObjAddr: 0x14440, symBinAddr: 0x100018614, symSize: 0x2C }
  - { offsetInCU: 0x4A30A, offset: 0x60D17, size: 0x8, addend: 0x0, symName: '__ZNSt3__110__function6__funcIZN5hf3fs17monitor_collector19MLWorkloadAnalytics4initEvE3$_1NS_9allocatorIS5_EEFvvEED0Ev', symObjAddr: 0x1446C, symBinAddr: 0x100018640, symSize: 0x30 }
  - { offsetInCU: 0x4A337, offset: 0x60D44, size: 0x8, addend: 0x0, symName: '__ZNKSt3__110__function6__funcIZN5hf3fs17monitor_collector19MLWorkloadAnalytics4initEvE3$_1NS_9allocatorIS5_EEFvvEE7__cloneEv', symObjAddr: 0x1449C, symBinAddr: 0x100018670, symSize: 0xFC }
  - { offsetInCU: 0x4A389, offset: 0x60D96, size: 0x8, addend: 0x0, symName: '__ZNKSt3__110__function6__funcIZN5hf3fs17monitor_collector19MLWorkloadAnalytics4initEvE3$_1NS_9allocatorIS5_EEFvvEE7__cloneEPNS0_6__baseIS8_EE', symObjAddr: 0x14598, symBinAddr: 0x10001876C, symSize: 0x58 }
  - { offsetInCU: 0x4A3C0, offset: 0x60DCD, size: 0x8, addend: 0x0, symName: '__ZNSt3__110__function6__funcIZN5hf3fs17monitor_collector19MLWorkloadAnalytics4initEvE3$_1NS_9allocatorIS5_EEFvvEE7destroyEv', symObjAddr: 0x145F0, symBinAddr: 0x1000187C4, symSize: 0x28 }
  - { offsetInCU: 0x4A3E8, offset: 0x60DF5, size: 0x8, addend: 0x0, symName: '__ZNSt3__110__function6__funcIZN5hf3fs17monitor_collector19MLWorkloadAnalytics4initEvE3$_1NS_9allocatorIS5_EEFvvEE18destroy_deallocateEv', symObjAddr: 0x14618, symBinAddr: 0x1000187EC, symSize: 0x58 }
  - { offsetInCU: 0x4A42B, offset: 0x60E38, size: 0x8, addend: 0x0, symName: '__ZNSt3__110__function6__funcIZN5hf3fs17monitor_collector19MLWorkloadAnalytics4initEvE3$_1NS_9allocatorIS5_EEFvvEEclEv', symObjAddr: 0x14670, symBinAddr: 0x100018844, symSize: 0x28 }
  - { offsetInCU: 0x4A453, offset: 0x60E60, size: 0x8, addend: 0x0, symName: '__ZNKSt3__110__function6__funcIZN5hf3fs17monitor_collector19MLWorkloadAnalytics4initEvE3$_1NS_9allocatorIS5_EEFvvEE6targetERKSt9type_info', symObjAddr: 0x14698, symBinAddr: 0x10001886C, symSize: 0x60 }
  - { offsetInCU: 0x4A48A, offset: 0x60E97, size: 0x8, addend: 0x0, symName: '__ZNKSt3__110__function6__funcIZN5hf3fs17monitor_collector19MLWorkloadAnalytics4initEvE3$_1NS_9allocatorIS5_EEFvvEE11target_typeEv', symObjAddr: 0x146F8, symBinAddr: 0x1000188CC, symSize: 0x18 }
  - { offsetInCU: 0x4A4B2, offset: 0x60EBF, size: 0x8, addend: 0x0, symName: '__ZNSt3__110__function12__alloc_funcIZN5hf3fs17monitor_collector19MLWorkloadAnalytics4initEvE3$_1NS_9allocatorIS5_EEFvvEEC2B8ue170006EOS5_OS7_', symObjAddr: 0x14710, symBinAddr: 0x1000188E4, symSize: 0x5C }
  - { offsetInCU: 0x4A4F8, offset: 0x60F05, size: 0x8, addend: 0x0, symName: '__ZNSt3__117__compressed_pairIZN5hf3fs17monitor_collector19MLWorkloadAnalytics4initEvE3$_1NS_9allocatorIS4_EEEC1B8ue170006IJOS4_EJOS6_EEENS_21piecewise_construct_tENS_5tupleIJDpT_EEENSC_IJDpT0_EEE', symObjAddr: 0x147C4, symBinAddr: 0x100018998, symSize: 0x3C }
  - { offsetInCU: 0x4A562, offset: 0x60F6F, size: 0x8, addend: 0x0, symName: '__ZNSt3__15tupleIJOZN5hf3fs17monitor_collector19MLWorkloadAnalytics4initEvE3$_1EEC1B8ue170006IJS4_ELi0EEEDpOT_', symObjAddr: 0x14800, symBinAddr: 0x1000189D4, symSize: 0x34 }
  - { offsetInCU: 0x4A5AC, offset: 0x60FB9, size: 0x8, addend: 0x0, symName: '__ZNSt3__15tupleIJOZN5hf3fs17monitor_collector19MLWorkloadAnalytics4initEvE3$_1EEC2B8ue170006IJS4_ELi0EEEDpOT_', symObjAddr: 0x14834, symBinAddr: 0x100018A08, symSize: 0x34 }
  - { offsetInCU: 0x4A5F6, offset: 0x61003, size: 0x8, addend: 0x0, symName: '__ZNSt3__112__tuple_implINS_15__tuple_indicesIJLm0EEEEJOZN5hf3fs17monitor_collector19MLWorkloadAnalytics4initEvE3$_1EEC1B8ue170006IJLm0EEJS7_EJEJEJS6_EEENS1_IJXspT_EEEENS_13__tuple_typesIJDpT0_EEENS1_IJXspT1_EEEENSB_IJDpT2_EEEDpOT3_', symObjAddr: 0x14868, symBinAddr: 0x100018A3C, symSize: 0x34 }
  - { offsetInCU: 0x4A68B, offset: 0x61098, size: 0x8, addend: 0x0, symName: '__ZNSt3__112__tuple_implINS_15__tuple_indicesIJLm0EEEEJOZN5hf3fs17monitor_collector19MLWorkloadAnalytics4initEvE3$_1EEC2B8ue170006IJLm0EEJS7_EJEJEJS6_EEENS1_IJXspT_EEEENS_13__tuple_typesIJDpT0_EEENS1_IJXspT1_EEEENSB_IJDpT2_EEEDpOT3_', symObjAddr: 0x1489C, symBinAddr: 0x100018A70, symSize: 0x34 }
  - { offsetInCU: 0x4A720, offset: 0x6112D, size: 0x8, addend: 0x0, symName: '__ZNSt3__112__tuple_leafILm0EOZN5hf3fs17monitor_collector19MLWorkloadAnalytics4initEvE3$_1Lb0EEC2B8ue170006IS4_vEEOT_', symObjAddr: 0x148D0, symBinAddr: 0x100018AA4, symSize: 0x20 }
  - { offsetInCU: 0x4A763, offset: 0x61170, size: 0x8, addend: 0x0, symName: '__ZNSt3__15tupleIJONS_9allocatorIZN5hf3fs17monitor_collector19MLWorkloadAnalytics4initEvE3$_1EEEEC1B8ue170006IJS6_ELi0EEEDpOT_', symObjAddr: 0x148F0, symBinAddr: 0x100018AC4, symSize: 0x34 }
  - { offsetInCU: 0x4A7AD, offset: 0x611BA, size: 0x8, addend: 0x0, symName: '__ZNSt3__15tupleIJONS_9allocatorIZN5hf3fs17monitor_collector19MLWorkloadAnalytics4initEvE3$_1EEEEC2B8ue170006IJS6_ELi0EEEDpOT_', symObjAddr: 0x14924, symBinAddr: 0x100018AF8, symSize: 0x34 }
  - { offsetInCU: 0x4A7F7, offset: 0x61204, size: 0x8, addend: 0x0, symName: '__ZNSt3__112__tuple_implINS_15__tuple_indicesIJLm0EEEEJONS_9allocatorIZN5hf3fs17monitor_collector19MLWorkloadAnalytics4initEvE3$_1EEEEC1B8ue170006IJLm0EEJS9_EJEJEJS8_EEENS1_IJXspT_EEEENS_13__tuple_typesIJDpT0_EEENS1_IJXspT1_EEEENSD_IJDpT2_EEEDpOT3_', symObjAddr: 0x14958, symBinAddr: 0x100018B2C, symSize: 0x34 }
  - { offsetInCU: 0x4A88C, offset: 0x61299, size: 0x8, addend: 0x0, symName: '__ZNSt3__112__tuple_implINS_15__tuple_indicesIJLm0EEEEJONS_9allocatorIZN5hf3fs17monitor_collector19MLWorkloadAnalytics4initEvE3$_1EEEEC2B8ue170006IJLm0EEJS9_EJEJEJS8_EEENS1_IJXspT_EEEENS_13__tuple_typesIJDpT0_EEENS1_IJXspT1_EEEENSD_IJDpT2_EEEDpOT3_', symObjAddr: 0x1498C, symBinAddr: 0x100018B60, symSize: 0x34 }
  - { offsetInCU: 0x4A921, offset: 0x6132E, size: 0x8, addend: 0x0, symName: '__ZNSt3__112__tuple_leafILm0EONS_9allocatorIZN5hf3fs17monitor_collector19MLWorkloadAnalytics4initEvE3$_1EELb0EEC2B8ue170006IS6_vEEOT_', symObjAddr: 0x149C0, symBinAddr: 0x100018B94, symSize: 0x20 }
  - { offsetInCU: 0x4A964, offset: 0x61371, size: 0x8, addend: 0x0, symName: '__ZNSt3__117__compressed_pairIZN5hf3fs17monitor_collector19MLWorkloadAnalytics4initEvE3$_1NS_9allocatorIS4_EEEC2B8ue170006IJOS4_EJOS6_EEENS_21piecewise_construct_tENS_5tupleIJDpT_EEENSC_IJDpT0_EEE', symObjAddr: 0x149E0, symBinAddr: 0x100018BB4, symSize: 0x54 }
  - { offsetInCU: 0x4A9CE, offset: 0x613DB, size: 0x8, addend: 0x0, symName: '__ZNSt3__122__compressed_pair_elemIZN5hf3fs17monitor_collector19MLWorkloadAnalytics4initEvE3$_1Li0ELb0EEC2B8ue170006IJOS4_EJLm0EEEENS_21piecewise_construct_tENS_5tupleIJDpT_EEENS_15__tuple_indicesIJXspT0_EEEE', symObjAddr: 0x14A34, symBinAddr: 0x100018C08, symSize: 0x44 }
  - { offsetInCU: 0x4AA33, offset: 0x61440, size: 0x8, addend: 0x0, symName: '__ZNSt3__122__compressed_pair_elemINS_9allocatorIZN5hf3fs17monitor_collector19MLWorkloadAnalytics4initEvE3$_1EELi1ELb1EEC2B8ue170006IJOS6_EJLm0EEEENS_21piecewise_construct_tENS_5tupleIJDpT_EEENS_15__tuple_indicesIJXspT0_EEEE', symObjAddr: 0x14A78, symBinAddr: 0x100018C4C, symSize: 0x38 }
  - { offsetInCU: 0x4AA98, offset: 0x614A5, size: 0x8, addend: 0x0, symName: '__ZNSt3__112__tuple_leafILm0EOZN5hf3fs17monitor_collector19MLWorkloadAnalytics4initEvE3$_1Lb0EE3getB8ue170006Ev', symObjAddr: 0x14AD4, symBinAddr: 0x100018CA8, symSize: 0x18 }
  - { offsetInCU: 0x4AABE, offset: 0x614CB, size: 0x8, addend: 0x0, symName: '__ZNSt3__112__tuple_leafILm0EONS_9allocatorIZN5hf3fs17monitor_collector19MLWorkloadAnalytics4initEvE3$_1EELb0EE3getB8ue170006Ev', symObjAddr: 0x14B10, symBinAddr: 0x100018CE4, symSize: 0x18 }
  - { offsetInCU: 0x4AAE4, offset: 0x614F1, size: 0x8, addend: 0x0, symName: '__ZNSt3__110__function6__funcIZN5hf3fs17monitor_collector19MLWorkloadAnalytics4initEvE3$_1NS_9allocatorIS5_EEFvvEED2Ev', symObjAddr: 0x14B28, symBinAddr: 0x100018CFC, symSize: 0x2C }
  - { offsetInCU: 0x4AB11, offset: 0x6151E, size: 0x8, addend: 0x0, symName: '__ZNKSt3__110__function12__alloc_funcIZN5hf3fs17monitor_collector19MLWorkloadAnalytics4initEvE3$_1NS_9allocatorIS5_EEFvvEE15__get_allocatorB8ue170006Ev', symObjAddr: 0x14B54, symBinAddr: 0x100018D28, symSize: 0x24 }
  - { offsetInCU: 0x4AB37, offset: 0x61544, size: 0x8, addend: 0x0, symName: '__ZNSt3__19allocatorINS_10__function6__funcIZN5hf3fs17monitor_collector19MLWorkloadAnalytics4initEvE3$_1NS0_IS6_EEFvvEEEE8allocateB8ue170006Em', symObjAddr: 0x14B78, symBinAddr: 0x100018D4C, symSize: 0x58 }
  - { offsetInCU: 0x4AB7A, offset: 0x61587, size: 0x8, addend: 0x0, symName: '__ZNSt3__122__allocator_destructorINS_9allocatorINS_10__function6__funcIZN5hf3fs17monitor_collector19MLWorkloadAnalytics4initEvE3$_1NS1_IS7_EEFvvEEEEEEC1B8ue170006ERSB_m', symObjAddr: 0x14BD0, symBinAddr: 0x100018DA4, symSize: 0x3C }
  - { offsetInCU: 0x4AC4E, offset: 0x6165B, size: 0x8, addend: 0x0, symName: '__ZNSt3__110unique_ptrINS_10__function6__funcIZN5hf3fs17monitor_collector19MLWorkloadAnalytics4initEvE3$_1NS_9allocatorIS6_EEFvvEEENS_22__allocator_destructorINS7_ISA_EEEEEC1B8ue170006ILb1EvEEPSA_NS_16__dependent_typeINS_27__unique_ptr_deleter_sfinaeISD_EEXT_EE20__good_rval_ref_typeE', symObjAddr: 0x14C0C, symBinAddr: 0x100018DE0, symSize: 0x3C }
  - { offsetInCU: 0x4AC9F, offset: 0x616AC, size: 0x8, addend: 0x0, symName: '__ZNKSt3__110unique_ptrINS_10__function6__funcIZN5hf3fs17monitor_collector19MLWorkloadAnalytics4initEvE3$_1NS_9allocatorIS6_EEFvvEEENS_22__allocator_destructorINS7_ISA_EEEEE3getB8ue170006Ev', symObjAddr: 0x14C48, symBinAddr: 0x100018E1C, symSize: 0x28 }
  - { offsetInCU: 0x4ACC5, offset: 0x616D2, size: 0x8, addend: 0x0, symName: '__ZNKSt3__110__function12__alloc_funcIZN5hf3fs17monitor_collector19MLWorkloadAnalytics4initEvE3$_1NS_9allocatorIS5_EEFvvEE8__targetB8ue170006Ev', symObjAddr: 0x14C70, symBinAddr: 0x100018E44, symSize: 0x24 }
  - { offsetInCU: 0x4ACEB, offset: 0x616F8, size: 0x8, addend: 0x0, symName: '__ZNSt3__110__function6__funcIZN5hf3fs17monitor_collector19MLWorkloadAnalytics4initEvE3$_1NS_9allocatorIS5_EEFvvEEC1B8ue170006ERKS5_OS7_', symObjAddr: 0x14C94, symBinAddr: 0x100018E68, symSize: 0x3C }
  - { offsetInCU: 0x4AD33, offset: 0x61740, size: 0x8, addend: 0x0, symName: '__ZNSt3__110unique_ptrINS_10__function6__funcIZN5hf3fs17monitor_collector19MLWorkloadAnalytics4initEvE3$_1NS_9allocatorIS6_EEFvvEEENS_22__allocator_destructorINS7_ISA_EEEEE7releaseB8ue170006Ev', symObjAddr: 0x14CD0, symBinAddr: 0x100018EA4, symSize: 0x44 }
  - { offsetInCU: 0x4AD68, offset: 0x61775, size: 0x8, addend: 0x0, symName: '__ZNSt3__110unique_ptrINS_10__function6__funcIZN5hf3fs17monitor_collector19MLWorkloadAnalytics4initEvE3$_1NS_9allocatorIS6_EEFvvEEENS_22__allocator_destructorINS7_ISA_EEEEED1B8ue170006Ev', symObjAddr: 0x14D14, symBinAddr: 0x100018EE8, symSize: 0x2C }
  - { offsetInCU: 0x4AD92, offset: 0x6179F, size: 0x8, addend: 0x0, symName: '__ZNKSt3__117__compressed_pairIZN5hf3fs17monitor_collector19MLWorkloadAnalytics4initEvE3$_1NS_9allocatorIS4_EEE6secondB8ue170006Ev', symObjAddr: 0x14D40, symBinAddr: 0x100018F14, symSize: 0x24 }
  - { offsetInCU: 0x4ADB8, offset: 0x617C5, size: 0x8, addend: 0x0, symName: '__ZNKSt3__122__compressed_pair_elemINS_9allocatorIZN5hf3fs17monitor_collector19MLWorkloadAnalytics4initEvE3$_1EELi1ELb1EE5__getB8ue170006Ev', symObjAddr: 0x14D64, symBinAddr: 0x100018F38, symSize: 0x14 }
  - { offsetInCU: 0x4ADE8, offset: 0x617F5, size: 0x8, addend: 0x0, symName: '__ZNSt3__116allocator_traitsINS_9allocatorINS_10__function6__funcIZN5hf3fs17monitor_collector19MLWorkloadAnalytics4initEvE3$_1NS1_IS7_EEFvvEEEEEE8max_sizeB8ue170006ISB_vEEmRKSB_', symObjAddr: 0x14D78, symBinAddr: 0x100018F4C, symSize: 0x24 }
  - { offsetInCU: 0x4AE16, offset: 0x61823, size: 0x8, addend: 0x0, symName: '__ZNKSt3__19allocatorINS_10__function6__funcIZN5hf3fs17monitor_collector19MLWorkloadAnalytics4initEvE3$_1NS0_IS6_EEFvvEEEE8max_sizeB8ue170006Ev', symObjAddr: 0x14D9C, symBinAddr: 0x100018F70, symSize: 0x14 }
  - { offsetInCU: 0x4AE3C, offset: 0x61849, size: 0x8, addend: 0x0, symName: '__ZNSt3__122__allocator_destructorINS_9allocatorINS_10__function6__funcIZN5hf3fs17monitor_collector19MLWorkloadAnalytics4initEvE3$_1NS1_IS7_EEFvvEEEEEEC2B8ue170006ERSB_m', symObjAddr: 0x14DB0, symBinAddr: 0x100018F84, symSize: 0x2C }
  - { offsetInCU: 0x4AE82, offset: 0x6188F, size: 0x8, addend: 0x0, symName: '__ZNSt3__110unique_ptrINS_10__function6__funcIZN5hf3fs17monitor_collector19MLWorkloadAnalytics4initEvE3$_1NS_9allocatorIS6_EEFvvEEENS_22__allocator_destructorINS7_ISA_EEEEEC2B8ue170006ILb1EvEEPSA_NS_16__dependent_typeINS_27__unique_ptr_deleter_sfinaeISD_EEXT_EE20__good_rval_ref_typeE', symObjAddr: 0x14DDC, symBinAddr: 0x100018FB0, symSize: 0x48 }
  - { offsetInCU: 0x4AED3, offset: 0x618E0, size: 0x8, addend: 0x0, symName: '__ZNSt3__117__compressed_pairIPNS_10__function6__funcIZN5hf3fs17monitor_collector19MLWorkloadAnalytics4initEvE3$_1NS_9allocatorIS6_EEFvvEEENS_22__allocator_destructorINS7_ISA_EEEEEC1B8ue170006IRSB_SE_EEOT_OT0_', symObjAddr: 0x14E24, symBinAddr: 0x100018FF8, symSize: 0x3C }
  - { offsetInCU: 0x4AF2B, offset: 0x61938, size: 0x8, addend: 0x0, symName: '__ZNSt3__117__compressed_pairIPNS_10__function6__funcIZN5hf3fs17monitor_collector19MLWorkloadAnalytics4initEvE3$_1NS_9allocatorIS6_EEFvvEEENS_22__allocator_destructorINS7_ISA_EEEEEC2B8ue170006IRSB_SE_EEOT_OT0_', symObjAddr: 0x14E60, symBinAddr: 0x100019034, symSize: 0x48 }
  - { offsetInCU: 0x4AF83, offset: 0x61990, size: 0x8, addend: 0x0, symName: '__ZNSt3__122__compressed_pair_elemIPNS_10__function6__funcIZN5hf3fs17monitor_collector19MLWorkloadAnalytics4initEvE3$_1NS_9allocatorIS6_EEFvvEEELi0ELb0EEC2B8ue170006IRSB_vEEOT_', symObjAddr: 0x14EA8, symBinAddr: 0x10001907C, symSize: 0x24 }
  - { offsetInCU: 0x4AFC5, offset: 0x619D2, size: 0x8, addend: 0x0, symName: '__ZNSt3__122__compressed_pair_elemINS_22__allocator_destructorINS_9allocatorINS_10__function6__funcIZN5hf3fs17monitor_collector19MLWorkloadAnalytics4initEvE3$_1NS2_IS8_EEFvvEEEEEEELi1ELb0EEC2B8ue170006ISD_vEEOT_', symObjAddr: 0x14ECC, symBinAddr: 0x1000190A0, symSize: 0x24 }
  - { offsetInCU: 0x4B007, offset: 0x61A14, size: 0x8, addend: 0x0, symName: '__ZNKSt3__117__compressed_pairIPNS_10__function6__funcIZN5hf3fs17monitor_collector19MLWorkloadAnalytics4initEvE3$_1NS_9allocatorIS6_EEFvvEEENS_22__allocator_destructorINS7_ISA_EEEEE5firstB8ue170006Ev', symObjAddr: 0x14EF0, symBinAddr: 0x1000190C4, symSize: 0x24 }
  - { offsetInCU: 0x4B02D, offset: 0x61A3A, size: 0x8, addend: 0x0, symName: '__ZNKSt3__122__compressed_pair_elemIPNS_10__function6__funcIZN5hf3fs17monitor_collector19MLWorkloadAnalytics4initEvE3$_1NS_9allocatorIS6_EEFvvEEELi0ELb0EE5__getB8ue170006Ev', symObjAddr: 0x14F14, symBinAddr: 0x1000190E8, symSize: 0x14 }
  - { offsetInCU: 0x4B053, offset: 0x61A60, size: 0x8, addend: 0x0, symName: '__ZNKSt3__117__compressed_pairIZN5hf3fs17monitor_collector19MLWorkloadAnalytics4initEvE3$_1NS_9allocatorIS4_EEE5firstB8ue170006Ev', symObjAddr: 0x14F28, symBinAddr: 0x1000190FC, symSize: 0x24 }
  - { offsetInCU: 0x4B079, offset: 0x61A86, size: 0x8, addend: 0x0, symName: '__ZNKSt3__122__compressed_pair_elemIZN5hf3fs17monitor_collector19MLWorkloadAnalytics4initEvE3$_1Li0ELb0EE5__getB8ue170006Ev', symObjAddr: 0x14F4C, symBinAddr: 0x100019120, symSize: 0x14 }
  - { offsetInCU: 0x4B09F, offset: 0x61AAC, size: 0x8, addend: 0x0, symName: '__ZNSt3__110__function6__funcIZN5hf3fs17monitor_collector19MLWorkloadAnalytics4initEvE3$_1NS_9allocatorIS5_EEFvvEEC2B8ue170006ERKS5_OS7_', symObjAddr: 0x14F60, symBinAddr: 0x100019134, symSize: 0x88 }
  - { offsetInCU: 0x4B0E7, offset: 0x61AF4, size: 0x8, addend: 0x0, symName: '__ZNSt3__110__function12__alloc_funcIZN5hf3fs17monitor_collector19MLWorkloadAnalytics4initEvE3$_1NS_9allocatorIS5_EEFvvEEC1B8ue170006ERKS5_OS7_', symObjAddr: 0x14FE8, symBinAddr: 0x1000191BC, symSize: 0x3C }
  - { offsetInCU: 0x4B12D, offset: 0x61B3A, size: 0x8, addend: 0x0, symName: '__ZNSt3__110__function12__alloc_funcIZN5hf3fs17monitor_collector19MLWorkloadAnalytics4initEvE3$_1NS_9allocatorIS5_EEFvvEEC2B8ue170006ERKS5_OS7_', symObjAddr: 0x15024, symBinAddr: 0x1000191F8, symSize: 0x5C }
  - { offsetInCU: 0x4B173, offset: 0x61B80, size: 0x8, addend: 0x0, symName: '__ZNSt3__117__compressed_pairIZN5hf3fs17monitor_collector19MLWorkloadAnalytics4initEvE3$_1NS_9allocatorIS4_EEEC1B8ue170006IJRKS4_EJOS6_EEENS_21piecewise_construct_tENS_5tupleIJDpT_EEENSD_IJDpT0_EEE', symObjAddr: 0x150AC, symBinAddr: 0x100019280, symSize: 0x3C }
  - { offsetInCU: 0x4B1DD, offset: 0x61BEA, size: 0x8, addend: 0x0, symName: '__ZNSt3__15tupleIJRKZN5hf3fs17monitor_collector19MLWorkloadAnalytics4initEvE3$_1EEC1B8ue170006INS_4_AndELi0EEES6_', symObjAddr: 0x150E8, symBinAddr: 0x1000192BC, symSize: 0x34 }
  - { offsetInCU: 0x4B226, offset: 0x61C33, size: 0x8, addend: 0x0, symName: '__ZNSt3__15tupleIJRKZN5hf3fs17monitor_collector19MLWorkloadAnalytics4initEvE3$_1EEC2B8ue170006INS_4_AndELi0EEES6_', symObjAddr: 0x1511C, symBinAddr: 0x1000192F0, symSize: 0x34 }
  - { offsetInCU: 0x4B26F, offset: 0x61C7C, size: 0x8, addend: 0x0, symName: '__ZNSt3__112__tuple_implINS_15__tuple_indicesIJLm0EEEEJRKZN5hf3fs17monitor_collector19MLWorkloadAnalytics4initEvE3$_1EEC1B8ue170006IJLm0EEJS8_EJEJEJS8_EEENS1_IJXspT_EEEENS_13__tuple_typesIJDpT0_EEENS1_IJXspT1_EEEENSC_IJDpT2_EEEDpOT3_', symObjAddr: 0x15150, symBinAddr: 0x100019324, symSize: 0x34 }
  - { offsetInCU: 0x4B304, offset: 0x61D11, size: 0x8, addend: 0x0, symName: '__ZNSt3__112__tuple_implINS_15__tuple_indicesIJLm0EEEEJRKZN5hf3fs17monitor_collector19MLWorkloadAnalytics4initEvE3$_1EEC2B8ue170006IJLm0EEJS8_EJEJEJS8_EEENS1_IJXspT_EEEENS_13__tuple_typesIJDpT0_EEENS1_IJXspT1_EEEENSC_IJDpT2_EEEDpOT3_', symObjAddr: 0x15184, symBinAddr: 0x100019358, symSize: 0x34 }
  - { offsetInCU: 0x4B399, offset: 0x61DA6, size: 0x8, addend: 0x0, symName: '__ZNSt3__112__tuple_leafILm0ERKZN5hf3fs17monitor_collector19MLWorkloadAnalytics4initEvE3$_1Lb0EEC2B8ue170006IS6_vEEOT_', symObjAddr: 0x151B8, symBinAddr: 0x10001938C, symSize: 0x20 }
  - { offsetInCU: 0x4B3DC, offset: 0x61DE9, size: 0x8, addend: 0x0, symName: '__ZNSt3__117__compressed_pairIZN5hf3fs17monitor_collector19MLWorkloadAnalytics4initEvE3$_1NS_9allocatorIS4_EEEC2B8ue170006IJRKS4_EJOS6_EEENS_21piecewise_construct_tENS_5tupleIJDpT_EEENSD_IJDpT0_EEE', symObjAddr: 0x151D8, symBinAddr: 0x1000193AC, symSize: 0x54 }
  - { offsetInCU: 0x4B446, offset: 0x61E53, size: 0x8, addend: 0x0, symName: '__ZNSt3__122__compressed_pair_elemIZN5hf3fs17monitor_collector19MLWorkloadAnalytics4initEvE3$_1Li0ELb0EEC2B8ue170006IJRKS4_EJLm0EEEENS_21piecewise_construct_tENS_5tupleIJDpT_EEENS_15__tuple_indicesIJXspT0_EEEE', symObjAddr: 0x1522C, symBinAddr: 0x100019400, symSize: 0x44 }
  - { offsetInCU: 0x4B4AB, offset: 0x61EB8, size: 0x8, addend: 0x0, symName: '__ZNSt3__112__tuple_leafILm0ERKZN5hf3fs17monitor_collector19MLWorkloadAnalytics4initEvE3$_1Lb0EE3getB8ue170006Ev', symObjAddr: 0x15294, symBinAddr: 0x100019468, symSize: 0x18 }
  - { offsetInCU: 0x4B4D1, offset: 0x61EDE, size: 0x8, addend: 0x0, symName: '__ZNSt3__117__compressed_pairIPNS_10__function6__funcIZN5hf3fs17monitor_collector19MLWorkloadAnalytics4initEvE3$_1NS_9allocatorIS6_EEFvvEEENS_22__allocator_destructorINS7_ISA_EEEEE5firstB8ue170006Ev', symObjAddr: 0x152AC, symBinAddr: 0x100019480, symSize: 0x24 }
  - { offsetInCU: 0x4B4F7, offset: 0x61F04, size: 0x8, addend: 0x0, symName: '__ZNSt3__122__compressed_pair_elemIPNS_10__function6__funcIZN5hf3fs17monitor_collector19MLWorkloadAnalytics4initEvE3$_1NS_9allocatorIS6_EEFvvEEELi0ELb0EE5__getB8ue170006Ev', symObjAddr: 0x152D0, symBinAddr: 0x1000194A4, symSize: 0x14 }
  - { offsetInCU: 0x4B51D, offset: 0x61F2A, size: 0x8, addend: 0x0, symName: '__ZNSt3__110unique_ptrINS_10__function6__funcIZN5hf3fs17monitor_collector19MLWorkloadAnalytics4initEvE3$_1NS_9allocatorIS6_EEFvvEEENS_22__allocator_destructorINS7_ISA_EEEEED2B8ue170006Ev', symObjAddr: 0x152E4, symBinAddr: 0x1000194B8, symSize: 0x30 }
  - { offsetInCU: 0x4B547, offset: 0x61F54, size: 0x8, addend: 0x0, symName: '__ZNSt3__110unique_ptrINS_10__function6__funcIZN5hf3fs17monitor_collector19MLWorkloadAnalytics4initEvE3$_1NS_9allocatorIS6_EEFvvEEENS_22__allocator_destructorINS7_ISA_EEEEE5resetB8ue170006EPSA_', symObjAddr: 0x15314, symBinAddr: 0x1000194E8, symSize: 0x78 }
  - { offsetInCU: 0x4B58B, offset: 0x61F98, size: 0x8, addend: 0x0, symName: '__ZNSt3__117__compressed_pairIPNS_10__function6__funcIZN5hf3fs17monitor_collector19MLWorkloadAnalytics4initEvE3$_1NS_9allocatorIS6_EEFvvEEENS_22__allocator_destructorINS7_ISA_EEEEE6secondB8ue170006Ev', symObjAddr: 0x1538C, symBinAddr: 0x100019560, symSize: 0x28 }
  - { offsetInCU: 0x4B5B1, offset: 0x61FBE, size: 0x8, addend: 0x0, symName: '__ZNSt3__122__allocator_destructorINS_9allocatorINS_10__function6__funcIZN5hf3fs17monitor_collector19MLWorkloadAnalytics4initEvE3$_1NS1_IS7_EEFvvEEEEEEclB8ue170006EPSA_', symObjAddr: 0x153B4, symBinAddr: 0x100019588, symSize: 0x34 }
  - { offsetInCU: 0x4B5E5, offset: 0x61FF2, size: 0x8, addend: 0x0, symName: '__ZNSt3__122__compressed_pair_elemINS_22__allocator_destructorINS_9allocatorINS_10__function6__funcIZN5hf3fs17monitor_collector19MLWorkloadAnalytics4initEvE3$_1NS2_IS8_EEFvvEEEEEEELi1ELb0EE5__getB8ue170006Ev', symObjAddr: 0x153E8, symBinAddr: 0x1000195BC, symSize: 0x14 }
  - { offsetInCU: 0x4B60B, offset: 0x62018, size: 0x8, addend: 0x0, symName: '__ZNSt3__116allocator_traitsINS_9allocatorINS_10__function6__funcIZN5hf3fs17monitor_collector19MLWorkloadAnalytics4initEvE3$_1NS1_IS7_EEFvvEEEEEE10deallocateB8ue170006ERSB_PSA_m', symObjAddr: 0x153FC, symBinAddr: 0x1000195D0, symSize: 0x34 }
  - { offsetInCU: 0x4B64D, offset: 0x6205A, size: 0x8, addend: 0x0, symName: '__ZNSt3__19allocatorINS_10__function6__funcIZN5hf3fs17monitor_collector19MLWorkloadAnalytics4initEvE3$_1NS0_IS6_EEFvvEEEE10deallocateB8ue170006EPS9_m', symObjAddr: 0x15430, symBinAddr: 0x100019604, symSize: 0x40 }
  - { offsetInCU: 0x4B68F, offset: 0x6209C, size: 0x8, addend: 0x0, symName: '__ZNSt3__110__function6__funcIZN5hf3fs17monitor_collector19MLWorkloadAnalytics4initEvE3$_1NS_9allocatorIS5_EEFvvEEC1B8ue170006ERKS5_RKS7_', symObjAddr: 0x15470, symBinAddr: 0x100019644, symSize: 0x3C }
  - { offsetInCU: 0x4B6D7, offset: 0x620E4, size: 0x8, addend: 0x0, symName: '__ZNSt3__110__function6__funcIZN5hf3fs17monitor_collector19MLWorkloadAnalytics4initEvE3$_1NS_9allocatorIS5_EEFvvEEC2B8ue170006ERKS5_RKS7_', symObjAddr: 0x154AC, symBinAddr: 0x100019680, symSize: 0x88 }
  - { offsetInCU: 0x4B71F, offset: 0x6212C, size: 0x8, addend: 0x0, symName: '__ZNSt3__110__function12__alloc_funcIZN5hf3fs17monitor_collector19MLWorkloadAnalytics4initEvE3$_1NS_9allocatorIS5_EEFvvEEC1B8ue170006ERKS5_RKS7_', symObjAddr: 0x15534, symBinAddr: 0x100019708, symSize: 0x3C }
  - { offsetInCU: 0x4B765, offset: 0x62172, size: 0x8, addend: 0x0, symName: '__ZNSt3__110__function12__alloc_funcIZN5hf3fs17monitor_collector19MLWorkloadAnalytics4initEvE3$_1NS_9allocatorIS5_EEFvvEEC2B8ue170006ERKS5_RKS7_', symObjAddr: 0x15570, symBinAddr: 0x100019744, symSize: 0x5C }
  - { offsetInCU: 0x4B7AB, offset: 0x621B8, size: 0x8, addend: 0x0, symName: '__ZNSt3__117__compressed_pairIZN5hf3fs17monitor_collector19MLWorkloadAnalytics4initEvE3$_1NS_9allocatorIS4_EEEC1B8ue170006IJRKS4_EJRKS6_EEENS_21piecewise_construct_tENS_5tupleIJDpT_EEENSE_IJDpT0_EEE', symObjAddr: 0x155F8, symBinAddr: 0x1000197CC, symSize: 0x3C }
  - { offsetInCU: 0x4B815, offset: 0x62222, size: 0x8, addend: 0x0, symName: '__ZNSt3__15tupleIJRKNS_9allocatorIZN5hf3fs17monitor_collector19MLWorkloadAnalytics4initEvE3$_1EEEEC1B8ue170006INS_4_AndELi0EEES8_', symObjAddr: 0x15634, symBinAddr: 0x100019808, symSize: 0x34 }
  - { offsetInCU: 0x4B85E, offset: 0x6226B, size: 0x8, addend: 0x0, symName: '__ZNSt3__15tupleIJRKNS_9allocatorIZN5hf3fs17monitor_collector19MLWorkloadAnalytics4initEvE3$_1EEEEC2B8ue170006INS_4_AndELi0EEES8_', symObjAddr: 0x15668, symBinAddr: 0x10001983C, symSize: 0x34 }
  - { offsetInCU: 0x4B8A7, offset: 0x622B4, size: 0x8, addend: 0x0, symName: '__ZNSt3__112__tuple_implINS_15__tuple_indicesIJLm0EEEEJRKNS_9allocatorIZN5hf3fs17monitor_collector19MLWorkloadAnalytics4initEvE3$_1EEEEC1B8ue170006IJLm0EEJSA_EJEJEJSA_EEENS1_IJXspT_EEEENS_13__tuple_typesIJDpT0_EEENS1_IJXspT1_EEEENSE_IJDpT2_EEEDpOT3_', symObjAddr: 0x1569C, symBinAddr: 0x100019870, symSize: 0x34 }
  - { offsetInCU: 0x4B93C, offset: 0x62349, size: 0x8, addend: 0x0, symName: '__ZNSt3__112__tuple_implINS_15__tuple_indicesIJLm0EEEEJRKNS_9allocatorIZN5hf3fs17monitor_collector19MLWorkloadAnalytics4initEvE3$_1EEEEC2B8ue170006IJLm0EEJSA_EJEJEJSA_EEENS1_IJXspT_EEEENS_13__tuple_typesIJDpT0_EEENS1_IJXspT1_EEEENSE_IJDpT2_EEEDpOT3_', symObjAddr: 0x156D0, symBinAddr: 0x1000198A4, symSize: 0x34 }
  - { offsetInCU: 0x4B9D1, offset: 0x623DE, size: 0x8, addend: 0x0, symName: '__ZNSt3__112__tuple_leafILm0ERKNS_9allocatorIZN5hf3fs17monitor_collector19MLWorkloadAnalytics4initEvE3$_1EELb0EEC2B8ue170006IS8_vEEOT_', symObjAddr: 0x15704, symBinAddr: 0x1000198D8, symSize: 0x20 }
  - { offsetInCU: 0x4BA14, offset: 0x62421, size: 0x8, addend: 0x0, symName: '__ZNSt3__117__compressed_pairIZN5hf3fs17monitor_collector19MLWorkloadAnalytics4initEvE3$_1NS_9allocatorIS4_EEEC2B8ue170006IJRKS4_EJRKS6_EEENS_21piecewise_construct_tENS_5tupleIJDpT_EEENSE_IJDpT0_EEE', symObjAddr: 0x15724, symBinAddr: 0x1000198F8, symSize: 0x54 }
  - { offsetInCU: 0x4BA7E, offset: 0x6248B, size: 0x8, addend: 0x0, symName: '__ZNSt3__122__compressed_pair_elemINS_9allocatorIZN5hf3fs17monitor_collector19MLWorkloadAnalytics4initEvE3$_1EELi1ELb1EEC2B8ue170006IJRKS6_EJLm0EEEENS_21piecewise_construct_tENS_5tupleIJDpT_EEENS_15__tuple_indicesIJXspT0_EEEE', symObjAddr: 0x15778, symBinAddr: 0x10001994C, symSize: 0x38 }
  - { offsetInCU: 0x4BAE3, offset: 0x624F0, size: 0x8, addend: 0x0, symName: '__ZNSt3__112__tuple_leafILm0ERKNS_9allocatorIZN5hf3fs17monitor_collector19MLWorkloadAnalytics4initEvE3$_1EELb0EE3getB8ue170006Ev', symObjAddr: 0x157D4, symBinAddr: 0x1000199A8, symSize: 0x18 }
  - { offsetInCU: 0x4BB09, offset: 0x62516, size: 0x8, addend: 0x0, symName: '__ZNSt3__110__function12__alloc_funcIZN5hf3fs17monitor_collector19MLWorkloadAnalytics4initEvE3$_1NS_9allocatorIS5_EEFvvEE7destroyB8ue170006Ev', symObjAddr: 0x157EC, symBinAddr: 0x1000199C0, symSize: 0x10 }
  - { offsetInCU: 0x4BB2F, offset: 0x6253C, size: 0x8, addend: 0x0, symName: '__ZNSt3__110__function12__alloc_funcIZN5hf3fs17monitor_collector19MLWorkloadAnalytics4initEvE3$_1NS_9allocatorIS5_EEFvvEEclB8ue170006Ev', symObjAddr: 0x157FC, symBinAddr: 0x1000199D0, symSize: 0x28 }
  - { offsetInCU: 0x4BB55, offset: 0x62562, size: 0x8, addend: 0x0, symName: '__ZNSt3__128__invoke_void_return_wrapperIvLb1EE6__callB8ue170006IJRZN5hf3fs17monitor_collector19MLWorkloadAnalytics4initEvE3$_1EEEvDpOT_', symObjAddr: 0x15824, symBinAddr: 0x1000199F8, symSize: 0x24 }
  - { offsetInCU: 0x4BB84, offset: 0x62591, size: 0x8, addend: 0x0, symName: '__ZNSt3__117__compressed_pairIZN5hf3fs17monitor_collector19MLWorkloadAnalytics4initEvE3$_1NS_9allocatorIS4_EEE5firstB8ue170006Ev', symObjAddr: 0x15848, symBinAddr: 0x100019A1C, symSize: 0x24 }
  - { offsetInCU: 0x4BBAF, offset: 0x625BC, size: 0x8, addend: 0x0, symName: '__ZZN5hf3fs17monitor_collector19MLWorkloadAnalytics4initEvENK3$_1clEv', symObjAddr: 0x15890, symBinAddr: 0x100019A64, symSize: 0x28 }
  - { offsetInCU: 0x4BBD9, offset: 0x625E6, size: 0x8, addend: 0x0, symName: '__ZNSt3__122__compressed_pair_elemIZN5hf3fs17monitor_collector19MLWorkloadAnalytics4initEvE3$_1Li0ELb0EE5__getB8ue170006Ev', symObjAddr: 0x158B8, symBinAddr: 0x100019A8C, symSize: 0x14 }
  - { offsetInCU: 0x4BBFF, offset: 0x6260C, size: 0x8, addend: 0x0, symName: __ZN5hf3fs16BackgroundRunnerC2ERKNSt3__112basic_stringIcNS1_11char_traitsIcEENS1_9allocatorIcEEEENS1_8functionIFvvEEENS1_6chrono8durationIxNS1_5ratioILl1ELl1000EEEEE, symObjAddr: 0x158CC, symBinAddr: 0x100019AA0, symSize: 0x50 }
  - { offsetInCU: 0x4BC54, offset: 0x62661, size: 0x8, addend: 0x0, symName: __ZNSt3__110unique_ptrIN5hf3fs16BackgroundRunnerENS_14default_deleteIS2_EEEC2B8ue170006ILb1EvEEPS2_, symObjAddr: 0x1591C, symBinAddr: 0x100019AF0, symSize: 0x44 }
  - { offsetInCU: 0x4BC97, offset: 0x626A4, size: 0x8, addend: 0x0, symName: __ZNSt3__117__compressed_pairIPN5hf3fs16BackgroundRunnerENS_14default_deleteIS2_EEEC1B8ue170006IRS3_NS_16__value_init_tagEEEOT_OT0_, symObjAddr: 0x15960, symBinAddr: 0x100019B34, symSize: 0x3C }
  - { offsetInCU: 0x4BCEF, offset: 0x626FC, size: 0x8, addend: 0x0, symName: __ZNSt3__117__compressed_pairIPN5hf3fs16BackgroundRunnerENS_14default_deleteIS2_EEEC2B8ue170006IRS3_NS_16__value_init_tagEEEOT_OT0_, symObjAddr: 0x1599C, symBinAddr: 0x100019B70, symSize: 0x40 }
  - { offsetInCU: 0x4BD47, offset: 0x62754, size: 0x8, addend: 0x0, symName: __ZNSt3__122__compressed_pair_elemIPN5hf3fs16BackgroundRunnerELi0ELb0EEC2B8ue170006IRS3_vEEOT_, symObjAddr: 0x159DC, symBinAddr: 0x100019BB0, symSize: 0x24 }
  - { offsetInCU: 0x4BD89, offset: 0x62796, size: 0x8, addend: 0x0, symName: __ZNSt3__110unique_ptrIN5hf3fs16BackgroundRunnerENS_14default_deleteIS2_EEE7releaseB8ue170006Ev, symObjAddr: 0x15A00, symBinAddr: 0x100019BD4, symSize: 0x44 }
  - { offsetInCU: 0x4BDBE, offset: 0x627CB, size: 0x8, addend: 0x0, symName: __ZNSt3__110unique_ptrIN5hf3fs16BackgroundRunnerENS_14default_deleteIS2_EEE11get_deleterB8ue170006Ev, symObjAddr: 0x15A44, symBinAddr: 0x100019C18, symSize: 0x24 }
  - { offsetInCU: 0x4BDE4, offset: 0x627F1, size: 0x8, addend: 0x0, symName: __ZNSt3__117__compressed_pairIPN5hf3fs16BackgroundRunnerENS_14default_deleteIS2_EEE6secondB8ue170006Ev, symObjAddr: 0x15A68, symBinAddr: 0x100019C3C, symSize: 0x24 }
  - { offsetInCU: 0x4BE0A, offset: 0x62817, size: 0x8, addend: 0x0, symName: __ZNSt3__117__compressed_pairIPN5hf3fs16BackgroundRunnerENS_14default_deleteIS2_EEE5firstB8ue170006Ev, symObjAddr: 0x15A8C, symBinAddr: 0x100019C60, symSize: 0x24 }
  - { offsetInCU: 0x4BE30, offset: 0x6283D, size: 0x8, addend: 0x0, symName: __ZNSt3__122__compressed_pair_elemIPN5hf3fs16BackgroundRunnerELi0ELb0EE5__getB8ue170006Ev, symObjAddr: 0x15AB0, symBinAddr: 0x100019C84, symSize: 0x14 }
  - { offsetInCU: 0x4BE56, offset: 0x62863, size: 0x8, addend: 0x0, symName: __ZNSt3__122__compressed_pair_elemINS_14default_deleteIN5hf3fs16BackgroundRunnerEEELi1ELb1EE5__getB8ue170006Ev, symObjAddr: 0x15AC4, symBinAddr: 0x100019C98, symSize: 0x14 }
  - { offsetInCU: 0x4BE7C, offset: 0x62889, size: 0x8, addend: 0x0, symName: '__ZNSt3__18functionIFvvEEC1IZN5hf3fs17monitor_collector19MLWorkloadAnalytics4initEvE3$_2vEET_', symObjAddr: 0x15AD8, symBinAddr: 0x100019CAC, symSize: 0x34 }
  - { offsetInCU: 0x4BEC1, offset: 0x628CE, size: 0x8, addend: 0x0, symName: '__ZNSt3__18functionIFvvEEC2IZN5hf3fs17monitor_collector19MLWorkloadAnalytics4initEvE3$_2vEET_', symObjAddr: 0x15B0C, symBinAddr: 0x100019CE0, symSize: 0x38 }
  - { offsetInCU: 0x4BF06, offset: 0x62913, size: 0x8, addend: 0x0, symName: '__ZNSt3__110__function12__value_funcIFvvEEC1B8ue170006IZN5hf3fs17monitor_collector19MLWorkloadAnalytics4initEvE3$_2vEEOT_', symObjAddr: 0x15B44, symBinAddr: 0x100019D18, symSize: 0x50 }
  - { offsetInCU: 0x4BF49, offset: 0x62956, size: 0x8, addend: 0x0, symName: '__ZNSt3__19allocatorIZN5hf3fs17monitor_collector19MLWorkloadAnalytics4initEvE3$_2EC1B8ue170006Ev', symObjAddr: 0x15B94, symBinAddr: 0x100019D68, symSize: 0x2C }
  - { offsetInCU: 0x4BF73, offset: 0x62980, size: 0x8, addend: 0x0, symName: '__ZNSt3__110__function12__value_funcIFvvEEC1B8ue170006IZN5hf3fs17monitor_collector19MLWorkloadAnalytics4initEvE3$_2NS_9allocatorIS8_EEEEOT_RKT0_', symObjAddr: 0x15BC0, symBinAddr: 0x100019D94, symSize: 0x3C }
  - { offsetInCU: 0x4BFCD, offset: 0x629DA, size: 0x8, addend: 0x0, symName: '__ZNSt3__19allocatorIZN5hf3fs17monitor_collector19MLWorkloadAnalytics4initEvE3$_2EC2B8ue170006Ev', symObjAddr: 0x15BFC, symBinAddr: 0x100019DD0, symSize: 0x2C }
  - { offsetInCU: 0x4BFF7, offset: 0x62A04, size: 0x8, addend: 0x0, symName: '__ZNSt3__116__non_trivial_ifILb1ENS_9allocatorIZN5hf3fs17monitor_collector19MLWorkloadAnalytics4initEvE3$_2EEEC2B8ue170006Ev', symObjAddr: 0x15C28, symBinAddr: 0x100019DFC, symSize: 0x14 }
  - { offsetInCU: 0x4C021, offset: 0x62A2E, size: 0x8, addend: 0x0, symName: '__ZNSt3__110__function12__value_funcIFvvEEC2B8ue170006IZN5hf3fs17monitor_collector19MLWorkloadAnalytics4initEvE3$_2NS_9allocatorIS8_EEEEOT_RKT0_', symObjAddr: 0x15C3C, symBinAddr: 0x100019E10, symSize: 0x94 }
  - { offsetInCU: 0x4C0C7, offset: 0x62AD4, size: 0x8, addend: 0x0, symName: '__ZNSt3__19allocatorINS_10__function6__funcIZN5hf3fs17monitor_collector19MLWorkloadAnalytics4initEvE3$_2NS0_IS6_EEFvvEEEEC1B8ue170006IS6_EERKNS0_IT_EE', symObjAddr: 0x15CE8, symBinAddr: 0x100019EBC, symSize: 0x34 }
  - { offsetInCU: 0x4C10A, offset: 0x62B17, size: 0x8, addend: 0x0, symName: '__ZNSt3__19allocatorIZN5hf3fs17monitor_collector19MLWorkloadAnalytics4initEvE3$_2EC1B8ue170006INS_10__function6__funcIS4_S5_FvvEEEEERKNS0_IT_EE', symObjAddr: 0x15D1C, symBinAddr: 0x100019EF0, symSize: 0x34 }
  - { offsetInCU: 0x4C148, offset: 0x62B55, size: 0x8, addend: 0x0, symName: '__ZNSt3__110__function6__funcIZN5hf3fs17monitor_collector19MLWorkloadAnalytics4initEvE3$_2NS_9allocatorIS5_EEFvvEEC1B8ue170006EOS5_OS7_', symObjAddr: 0x15D50, symBinAddr: 0x100019F24, symSize: 0x3C }
  - { offsetInCU: 0x4C190, offset: 0x62B9D, size: 0x8, addend: 0x0, symName: '__ZNSt3__19allocatorINS_10__function6__funcIZN5hf3fs17monitor_collector19MLWorkloadAnalytics4initEvE3$_2NS0_IS6_EEFvvEEEEC2B8ue170006IS6_EERKNS0_IT_EE', symObjAddr: 0x15D8C, symBinAddr: 0x100019F60, symSize: 0x30 }
  - { offsetInCU: 0x4C1CE, offset: 0x62BDB, size: 0x8, addend: 0x0, symName: '__ZNSt3__116__non_trivial_ifILb1ENS_9allocatorINS_10__function6__funcIZN5hf3fs17monitor_collector19MLWorkloadAnalytics4initEvE3$_2NS1_IS7_EEFvvEEEEEEC2B8ue170006Ev', symObjAddr: 0x15DBC, symBinAddr: 0x100019F90, symSize: 0x14 }
  - { offsetInCU: 0x4C1F8, offset: 0x62C05, size: 0x8, addend: 0x0, symName: '__ZNSt3__19allocatorIZN5hf3fs17monitor_collector19MLWorkloadAnalytics4initEvE3$_2EC2B8ue170006INS_10__function6__funcIS4_S5_FvvEEEEERKNS0_IT_EE', symObjAddr: 0x15DD0, symBinAddr: 0x100019FA4, symSize: 0x30 }
  - { offsetInCU: 0x4C236, offset: 0x62C43, size: 0x8, addend: 0x0, symName: '__ZNSt3__110__function6__funcIZN5hf3fs17monitor_collector19MLWorkloadAnalytics4initEvE3$_2NS_9allocatorIS5_EEFvvEEC2B8ue170006EOS5_OS7_', symObjAddr: 0x15E00, symBinAddr: 0x100019FD4, symSize: 0x88 }
  - { offsetInCU: 0x4C27E, offset: 0x62C8B, size: 0x8, addend: 0x0, symName: '__ZNSt3__110__function12__alloc_funcIZN5hf3fs17monitor_collector19MLWorkloadAnalytics4initEvE3$_2NS_9allocatorIS5_EEFvvEEC1B8ue170006EOS5_OS7_', symObjAddr: 0x15E88, symBinAddr: 0x10001A05C, symSize: 0x3C }
  - { offsetInCU: 0x4C2C4, offset: 0x62CD1, size: 0x8, addend: 0x0, symName: '__ZNSt3__110__function6__funcIZN5hf3fs17monitor_collector19MLWorkloadAnalytics4initEvE3$_2NS_9allocatorIS5_EEFvvEED1Ev', symObjAddr: 0x15EC4, symBinAddr: 0x10001A098, symSize: 0x2C }
  - { offsetInCU: 0x4C2F1, offset: 0x62CFE, size: 0x8, addend: 0x0, symName: '__ZNSt3__110__function6__funcIZN5hf3fs17monitor_collector19MLWorkloadAnalytics4initEvE3$_2NS_9allocatorIS5_EEFvvEED0Ev', symObjAddr: 0x15EF0, symBinAddr: 0x10001A0C4, symSize: 0x30 }
  - { offsetInCU: 0x4C31E, offset: 0x62D2B, size: 0x8, addend: 0x0, symName: '__ZNKSt3__110__function6__funcIZN5hf3fs17monitor_collector19MLWorkloadAnalytics4initEvE3$_2NS_9allocatorIS5_EEFvvEE7__cloneEv', symObjAddr: 0x15F20, symBinAddr: 0x10001A0F4, symSize: 0xFC }
  - { offsetInCU: 0x4C370, offset: 0x62D7D, size: 0x8, addend: 0x0, symName: '__ZNKSt3__110__function6__funcIZN5hf3fs17monitor_collector19MLWorkloadAnalytics4initEvE3$_2NS_9allocatorIS5_EEFvvEE7__cloneEPNS0_6__baseIS8_EE', symObjAddr: 0x1601C, symBinAddr: 0x10001A1F0, symSize: 0x58 }
  - { offsetInCU: 0x4C3A7, offset: 0x62DB4, size: 0x8, addend: 0x0, symName: '__ZNSt3__110__function6__funcIZN5hf3fs17monitor_collector19MLWorkloadAnalytics4initEvE3$_2NS_9allocatorIS5_EEFvvEE7destroyEv', symObjAddr: 0x16074, symBinAddr: 0x10001A248, symSize: 0x28 }
  - { offsetInCU: 0x4C3CF, offset: 0x62DDC, size: 0x8, addend: 0x0, symName: '__ZNSt3__110__function6__funcIZN5hf3fs17monitor_collector19MLWorkloadAnalytics4initEvE3$_2NS_9allocatorIS5_EEFvvEE18destroy_deallocateEv', symObjAddr: 0x1609C, symBinAddr: 0x10001A270, symSize: 0x58 }
  - { offsetInCU: 0x4C412, offset: 0x62E1F, size: 0x8, addend: 0x0, symName: '__ZNSt3__110__function6__funcIZN5hf3fs17monitor_collector19MLWorkloadAnalytics4initEvE3$_2NS_9allocatorIS5_EEFvvEEclEv', symObjAddr: 0x160F4, symBinAddr: 0x10001A2C8, symSize: 0x28 }
  - { offsetInCU: 0x4C43A, offset: 0x62E47, size: 0x8, addend: 0x0, symName: '__ZNKSt3__110__function6__funcIZN5hf3fs17monitor_collector19MLWorkloadAnalytics4initEvE3$_2NS_9allocatorIS5_EEFvvEE6targetERKSt9type_info', symObjAddr: 0x1611C, symBinAddr: 0x10001A2F0, symSize: 0x60 }
  - { offsetInCU: 0x4C471, offset: 0x62E7E, size: 0x8, addend: 0x0, symName: '__ZNKSt3__110__function6__funcIZN5hf3fs17monitor_collector19MLWorkloadAnalytics4initEvE3$_2NS_9allocatorIS5_EEFvvEE11target_typeEv', symObjAddr: 0x1617C, symBinAddr: 0x10001A350, symSize: 0x18 }
  - { offsetInCU: 0x4C499, offset: 0x62EA6, size: 0x8, addend: 0x0, symName: '__ZNSt3__110__function12__alloc_funcIZN5hf3fs17monitor_collector19MLWorkloadAnalytics4initEvE3$_2NS_9allocatorIS5_EEFvvEEC2B8ue170006EOS5_OS7_', symObjAddr: 0x16194, symBinAddr: 0x10001A368, symSize: 0x5C }
  - { offsetInCU: 0x4C4DF, offset: 0x62EEC, size: 0x8, addend: 0x0, symName: '__ZNSt3__117__compressed_pairIZN5hf3fs17monitor_collector19MLWorkloadAnalytics4initEvE3$_2NS_9allocatorIS4_EEEC1B8ue170006IJOS4_EJOS6_EEENS_21piecewise_construct_tENS_5tupleIJDpT_EEENSC_IJDpT0_EEE', symObjAddr: 0x16248, symBinAddr: 0x10001A41C, symSize: 0x3C }
  - { offsetInCU: 0x4C549, offset: 0x62F56, size: 0x8, addend: 0x0, symName: '__ZNSt3__15tupleIJOZN5hf3fs17monitor_collector19MLWorkloadAnalytics4initEvE3$_2EEC1B8ue170006IJS4_ELi0EEEDpOT_', symObjAddr: 0x16284, symBinAddr: 0x10001A458, symSize: 0x34 }
  - { offsetInCU: 0x4C593, offset: 0x62FA0, size: 0x8, addend: 0x0, symName: '__ZNSt3__15tupleIJOZN5hf3fs17monitor_collector19MLWorkloadAnalytics4initEvE3$_2EEC2B8ue170006IJS4_ELi0EEEDpOT_', symObjAddr: 0x162B8, symBinAddr: 0x10001A48C, symSize: 0x34 }
  - { offsetInCU: 0x4C5DD, offset: 0x62FEA, size: 0x8, addend: 0x0, symName: '__ZNSt3__112__tuple_implINS_15__tuple_indicesIJLm0EEEEJOZN5hf3fs17monitor_collector19MLWorkloadAnalytics4initEvE3$_2EEC1B8ue170006IJLm0EEJS7_EJEJEJS6_EEENS1_IJXspT_EEEENS_13__tuple_typesIJDpT0_EEENS1_IJXspT1_EEEENSB_IJDpT2_EEEDpOT3_', symObjAddr: 0x162EC, symBinAddr: 0x10001A4C0, symSize: 0x34 }
  - { offsetInCU: 0x4C672, offset: 0x6307F, size: 0x8, addend: 0x0, symName: '__ZNSt3__112__tuple_implINS_15__tuple_indicesIJLm0EEEEJOZN5hf3fs17monitor_collector19MLWorkloadAnalytics4initEvE3$_2EEC2B8ue170006IJLm0EEJS7_EJEJEJS6_EEENS1_IJXspT_EEEENS_13__tuple_typesIJDpT0_EEENS1_IJXspT1_EEEENSB_IJDpT2_EEEDpOT3_', symObjAddr: 0x16320, symBinAddr: 0x10001A4F4, symSize: 0x34 }
  - { offsetInCU: 0x4C707, offset: 0x63114, size: 0x8, addend: 0x0, symName: '__ZNSt3__112__tuple_leafILm0EOZN5hf3fs17monitor_collector19MLWorkloadAnalytics4initEvE3$_2Lb0EEC2B8ue170006IS4_vEEOT_', symObjAddr: 0x16354, symBinAddr: 0x10001A528, symSize: 0x20 }
  - { offsetInCU: 0x4C74A, offset: 0x63157, size: 0x8, addend: 0x0, symName: '__ZNSt3__15tupleIJONS_9allocatorIZN5hf3fs17monitor_collector19MLWorkloadAnalytics4initEvE3$_2EEEEC1B8ue170006IJS6_ELi0EEEDpOT_', symObjAddr: 0x16374, symBinAddr: 0x10001A548, symSize: 0x34 }
  - { offsetInCU: 0x4C794, offset: 0x631A1, size: 0x8, addend: 0x0, symName: '__ZNSt3__15tupleIJONS_9allocatorIZN5hf3fs17monitor_collector19MLWorkloadAnalytics4initEvE3$_2EEEEC2B8ue170006IJS6_ELi0EEEDpOT_', symObjAddr: 0x163A8, symBinAddr: 0x10001A57C, symSize: 0x34 }
  - { offsetInCU: 0x4C7DE, offset: 0x631EB, size: 0x8, addend: 0x0, symName: '__ZNSt3__112__tuple_implINS_15__tuple_indicesIJLm0EEEEJONS_9allocatorIZN5hf3fs17monitor_collector19MLWorkloadAnalytics4initEvE3$_2EEEEC1B8ue170006IJLm0EEJS9_EJEJEJS8_EEENS1_IJXspT_EEEENS_13__tuple_typesIJDpT0_EEENS1_IJXspT1_EEEENSD_IJDpT2_EEEDpOT3_', symObjAddr: 0x163DC, symBinAddr: 0x10001A5B0, symSize: 0x34 }
  - { offsetInCU: 0x4C873, offset: 0x63280, size: 0x8, addend: 0x0, symName: '__ZNSt3__112__tuple_implINS_15__tuple_indicesIJLm0EEEEJONS_9allocatorIZN5hf3fs17monitor_collector19MLWorkloadAnalytics4initEvE3$_2EEEEC2B8ue170006IJLm0EEJS9_EJEJEJS8_EEENS1_IJXspT_EEEENS_13__tuple_typesIJDpT0_EEENS1_IJXspT1_EEEENSD_IJDpT2_EEEDpOT3_', symObjAddr: 0x16410, symBinAddr: 0x10001A5E4, symSize: 0x34 }
  - { offsetInCU: 0x4C908, offset: 0x63315, size: 0x8, addend: 0x0, symName: '__ZNSt3__112__tuple_leafILm0EONS_9allocatorIZN5hf3fs17monitor_collector19MLWorkloadAnalytics4initEvE3$_2EELb0EEC2B8ue170006IS6_vEEOT_', symObjAddr: 0x16444, symBinAddr: 0x10001A618, symSize: 0x20 }
  - { offsetInCU: 0x4C94B, offset: 0x63358, size: 0x8, addend: 0x0, symName: '__ZNSt3__117__compressed_pairIZN5hf3fs17monitor_collector19MLWorkloadAnalytics4initEvE3$_2NS_9allocatorIS4_EEEC2B8ue170006IJOS4_EJOS6_EEENS_21piecewise_construct_tENS_5tupleIJDpT_EEENSC_IJDpT0_EEE', symObjAddr: 0x16464, symBinAddr: 0x10001A638, symSize: 0x54 }
  - { offsetInCU: 0x4C9B5, offset: 0x633C2, size: 0x8, addend: 0x0, symName: '__ZNSt3__122__compressed_pair_elemIZN5hf3fs17monitor_collector19MLWorkloadAnalytics4initEvE3$_2Li0ELb0EEC2B8ue170006IJOS4_EJLm0EEEENS_21piecewise_construct_tENS_5tupleIJDpT_EEENS_15__tuple_indicesIJXspT0_EEEE', symObjAddr: 0x164B8, symBinAddr: 0x10001A68C, symSize: 0x44 }
  - { offsetInCU: 0x4CA1A, offset: 0x63427, size: 0x8, addend: 0x0, symName: '__ZNSt3__122__compressed_pair_elemINS_9allocatorIZN5hf3fs17monitor_collector19MLWorkloadAnalytics4initEvE3$_2EELi1ELb1EEC2B8ue170006IJOS6_EJLm0EEEENS_21piecewise_construct_tENS_5tupleIJDpT_EEENS_15__tuple_indicesIJXspT0_EEEE', symObjAddr: 0x164FC, symBinAddr: 0x10001A6D0, symSize: 0x38 }
  - { offsetInCU: 0x4CA7F, offset: 0x6348C, size: 0x8, addend: 0x0, symName: '__ZNSt3__112__tuple_leafILm0EOZN5hf3fs17monitor_collector19MLWorkloadAnalytics4initEvE3$_2Lb0EE3getB8ue170006Ev', symObjAddr: 0x16558, symBinAddr: 0x10001A72C, symSize: 0x18 }
  - { offsetInCU: 0x4CAA5, offset: 0x634B2, size: 0x8, addend: 0x0, symName: '__ZNSt3__112__tuple_leafILm0EONS_9allocatorIZN5hf3fs17monitor_collector19MLWorkloadAnalytics4initEvE3$_2EELb0EE3getB8ue170006Ev', symObjAddr: 0x16594, symBinAddr: 0x10001A768, symSize: 0x18 }
  - { offsetInCU: 0x4CACB, offset: 0x634D8, size: 0x8, addend: 0x0, symName: '__ZNSt3__110__function6__funcIZN5hf3fs17monitor_collector19MLWorkloadAnalytics4initEvE3$_2NS_9allocatorIS5_EEFvvEED2Ev', symObjAddr: 0x165AC, symBinAddr: 0x10001A780, symSize: 0x2C }
  - { offsetInCU: 0x4CAF8, offset: 0x63505, size: 0x8, addend: 0x0, symName: '__ZNKSt3__110__function12__alloc_funcIZN5hf3fs17monitor_collector19MLWorkloadAnalytics4initEvE3$_2NS_9allocatorIS5_EEFvvEE15__get_allocatorB8ue170006Ev', symObjAddr: 0x165D8, symBinAddr: 0x10001A7AC, symSize: 0x24 }
  - { offsetInCU: 0x4CB1E, offset: 0x6352B, size: 0x8, addend: 0x0, symName: '__ZNSt3__19allocatorINS_10__function6__funcIZN5hf3fs17monitor_collector19MLWorkloadAnalytics4initEvE3$_2NS0_IS6_EEFvvEEEE8allocateB8ue170006Em', symObjAddr: 0x165FC, symBinAddr: 0x10001A7D0, symSize: 0x58 }
  - { offsetInCU: 0x4CB61, offset: 0x6356E, size: 0x8, addend: 0x0, symName: '__ZNSt3__122__allocator_destructorINS_9allocatorINS_10__function6__funcIZN5hf3fs17monitor_collector19MLWorkloadAnalytics4initEvE3$_2NS1_IS7_EEFvvEEEEEEC1B8ue170006ERSB_m', symObjAddr: 0x16654, symBinAddr: 0x10001A828, symSize: 0x3C }
  - { offsetInCU: 0x4CC35, offset: 0x63642, size: 0x8, addend: 0x0, symName: '__ZNSt3__110unique_ptrINS_10__function6__funcIZN5hf3fs17monitor_collector19MLWorkloadAnalytics4initEvE3$_2NS_9allocatorIS6_EEFvvEEENS_22__allocator_destructorINS7_ISA_EEEEEC1B8ue170006ILb1EvEEPSA_NS_16__dependent_typeINS_27__unique_ptr_deleter_sfinaeISD_EEXT_EE20__good_rval_ref_typeE', symObjAddr: 0x16690, symBinAddr: 0x10001A864, symSize: 0x3C }
  - { offsetInCU: 0x4CC86, offset: 0x63693, size: 0x8, addend: 0x0, symName: '__ZNKSt3__110unique_ptrINS_10__function6__funcIZN5hf3fs17monitor_collector19MLWorkloadAnalytics4initEvE3$_2NS_9allocatorIS6_EEFvvEEENS_22__allocator_destructorINS7_ISA_EEEEE3getB8ue170006Ev', symObjAddr: 0x166CC, symBinAddr: 0x10001A8A0, symSize: 0x28 }
  - { offsetInCU: 0x4CCAC, offset: 0x636B9, size: 0x8, addend: 0x0, symName: '__ZNKSt3__110__function12__alloc_funcIZN5hf3fs17monitor_collector19MLWorkloadAnalytics4initEvE3$_2NS_9allocatorIS5_EEFvvEE8__targetB8ue170006Ev', symObjAddr: 0x166F4, symBinAddr: 0x10001A8C8, symSize: 0x24 }
  - { offsetInCU: 0x4CCD2, offset: 0x636DF, size: 0x8, addend: 0x0, symName: '__ZNSt3__110__function6__funcIZN5hf3fs17monitor_collector19MLWorkloadAnalytics4initEvE3$_2NS_9allocatorIS5_EEFvvEEC1B8ue170006ERKS5_OS7_', symObjAddr: 0x16718, symBinAddr: 0x10001A8EC, symSize: 0x3C }
  - { offsetInCU: 0x4CD1A, offset: 0x63727, size: 0x8, addend: 0x0, symName: '__ZNSt3__110unique_ptrINS_10__function6__funcIZN5hf3fs17monitor_collector19MLWorkloadAnalytics4initEvE3$_2NS_9allocatorIS6_EEFvvEEENS_22__allocator_destructorINS7_ISA_EEEEE7releaseB8ue170006Ev', symObjAddr: 0x16754, symBinAddr: 0x10001A928, symSize: 0x44 }
  - { offsetInCU: 0x4CD4F, offset: 0x6375C, size: 0x8, addend: 0x0, symName: '__ZNSt3__110unique_ptrINS_10__function6__funcIZN5hf3fs17monitor_collector19MLWorkloadAnalytics4initEvE3$_2NS_9allocatorIS6_EEFvvEEENS_22__allocator_destructorINS7_ISA_EEEEED1B8ue170006Ev', symObjAddr: 0x16798, symBinAddr: 0x10001A96C, symSize: 0x2C }
  - { offsetInCU: 0x4CD79, offset: 0x63786, size: 0x8, addend: 0x0, symName: '__ZNKSt3__117__compressed_pairIZN5hf3fs17monitor_collector19MLWorkloadAnalytics4initEvE3$_2NS_9allocatorIS4_EEE6secondB8ue170006Ev', symObjAddr: 0x167C4, symBinAddr: 0x10001A998, symSize: 0x24 }
  - { offsetInCU: 0x4CD9F, offset: 0x637AC, size: 0x8, addend: 0x0, symName: '__ZNKSt3__122__compressed_pair_elemINS_9allocatorIZN5hf3fs17monitor_collector19MLWorkloadAnalytics4initEvE3$_2EELi1ELb1EE5__getB8ue170006Ev', symObjAddr: 0x167E8, symBinAddr: 0x10001A9BC, symSize: 0x14 }
  - { offsetInCU: 0x4CDCF, offset: 0x637DC, size: 0x8, addend: 0x0, symName: '__ZNSt3__116allocator_traitsINS_9allocatorINS_10__function6__funcIZN5hf3fs17monitor_collector19MLWorkloadAnalytics4initEvE3$_2NS1_IS7_EEFvvEEEEEE8max_sizeB8ue170006ISB_vEEmRKSB_', symObjAddr: 0x167FC, symBinAddr: 0x10001A9D0, symSize: 0x24 }
  - { offsetInCU: 0x4CDFD, offset: 0x6380A, size: 0x8, addend: 0x0, symName: '__ZNKSt3__19allocatorINS_10__function6__funcIZN5hf3fs17monitor_collector19MLWorkloadAnalytics4initEvE3$_2NS0_IS6_EEFvvEEEE8max_sizeB8ue170006Ev', symObjAddr: 0x16820, symBinAddr: 0x10001A9F4, symSize: 0x14 }
  - { offsetInCU: 0x4CE23, offset: 0x63830, size: 0x8, addend: 0x0, symName: '__ZNSt3__122__allocator_destructorINS_9allocatorINS_10__function6__funcIZN5hf3fs17monitor_collector19MLWorkloadAnalytics4initEvE3$_2NS1_IS7_EEFvvEEEEEEC2B8ue170006ERSB_m', symObjAddr: 0x16834, symBinAddr: 0x10001AA08, symSize: 0x2C }
  - { offsetInCU: 0x4CE69, offset: 0x63876, size: 0x8, addend: 0x0, symName: '__ZNSt3__110unique_ptrINS_10__function6__funcIZN5hf3fs17monitor_collector19MLWorkloadAnalytics4initEvE3$_2NS_9allocatorIS6_EEFvvEEENS_22__allocator_destructorINS7_ISA_EEEEEC2B8ue170006ILb1EvEEPSA_NS_16__dependent_typeINS_27__unique_ptr_deleter_sfinaeISD_EEXT_EE20__good_rval_ref_typeE', symObjAddr: 0x16860, symBinAddr: 0x10001AA34, symSize: 0x48 }
  - { offsetInCU: 0x4CEBA, offset: 0x638C7, size: 0x8, addend: 0x0, symName: '__ZNSt3__117__compressed_pairIPNS_10__function6__funcIZN5hf3fs17monitor_collector19MLWorkloadAnalytics4initEvE3$_2NS_9allocatorIS6_EEFvvEEENS_22__allocator_destructorINS7_ISA_EEEEEC1B8ue170006IRSB_SE_EEOT_OT0_', symObjAddr: 0x168A8, symBinAddr: 0x10001AA7C, symSize: 0x3C }
  - { offsetInCU: 0x4CF12, offset: 0x6391F, size: 0x8, addend: 0x0, symName: '__ZNSt3__117__compressed_pairIPNS_10__function6__funcIZN5hf3fs17monitor_collector19MLWorkloadAnalytics4initEvE3$_2NS_9allocatorIS6_EEFvvEEENS_22__allocator_destructorINS7_ISA_EEEEEC2B8ue170006IRSB_SE_EEOT_OT0_', symObjAddr: 0x168E4, symBinAddr: 0x10001AAB8, symSize: 0x48 }
  - { offsetInCU: 0x4CF6A, offset: 0x63977, size: 0x8, addend: 0x0, symName: '__ZNSt3__122__compressed_pair_elemIPNS_10__function6__funcIZN5hf3fs17monitor_collector19MLWorkloadAnalytics4initEvE3$_2NS_9allocatorIS6_EEFvvEEELi0ELb0EEC2B8ue170006IRSB_vEEOT_', symObjAddr: 0x1692C, symBinAddr: 0x10001AB00, symSize: 0x24 }
  - { offsetInCU: 0x4CFAC, offset: 0x639B9, size: 0x8, addend: 0x0, symName: '__ZNSt3__122__compressed_pair_elemINS_22__allocator_destructorINS_9allocatorINS_10__function6__funcIZN5hf3fs17monitor_collector19MLWorkloadAnalytics4initEvE3$_2NS2_IS8_EEFvvEEEEEEELi1ELb0EEC2B8ue170006ISD_vEEOT_', symObjAddr: 0x16950, symBinAddr: 0x10001AB24, symSize: 0x24 }
  - { offsetInCU: 0x4CFEE, offset: 0x639FB, size: 0x8, addend: 0x0, symName: '__ZNKSt3__117__compressed_pairIPNS_10__function6__funcIZN5hf3fs17monitor_collector19MLWorkloadAnalytics4initEvE3$_2NS_9allocatorIS6_EEFvvEEENS_22__allocator_destructorINS7_ISA_EEEEE5firstB8ue170006Ev', symObjAddr: 0x16974, symBinAddr: 0x10001AB48, symSize: 0x24 }
  - { offsetInCU: 0x4D014, offset: 0x63A21, size: 0x8, addend: 0x0, symName: '__ZNKSt3__122__compressed_pair_elemIPNS_10__function6__funcIZN5hf3fs17monitor_collector19MLWorkloadAnalytics4initEvE3$_2NS_9allocatorIS6_EEFvvEEELi0ELb0EE5__getB8ue170006Ev', symObjAddr: 0x16998, symBinAddr: 0x10001AB6C, symSize: 0x14 }
  - { offsetInCU: 0x4D03A, offset: 0x63A47, size: 0x8, addend: 0x0, symName: '__ZNKSt3__117__compressed_pairIZN5hf3fs17monitor_collector19MLWorkloadAnalytics4initEvE3$_2NS_9allocatorIS4_EEE5firstB8ue170006Ev', symObjAddr: 0x169AC, symBinAddr: 0x10001AB80, symSize: 0x24 }
  - { offsetInCU: 0x4D060, offset: 0x63A6D, size: 0x8, addend: 0x0, symName: '__ZNKSt3__122__compressed_pair_elemIZN5hf3fs17monitor_collector19MLWorkloadAnalytics4initEvE3$_2Li0ELb0EE5__getB8ue170006Ev', symObjAddr: 0x169D0, symBinAddr: 0x10001ABA4, symSize: 0x14 }
  - { offsetInCU: 0x4D086, offset: 0x63A93, size: 0x8, addend: 0x0, symName: '__ZNSt3__110__function6__funcIZN5hf3fs17monitor_collector19MLWorkloadAnalytics4initEvE3$_2NS_9allocatorIS5_EEFvvEEC2B8ue170006ERKS5_OS7_', symObjAddr: 0x169E4, symBinAddr: 0x10001ABB8, symSize: 0x88 }
  - { offsetInCU: 0x4D0CE, offset: 0x63ADB, size: 0x8, addend: 0x0, symName: '__ZNSt3__110__function12__alloc_funcIZN5hf3fs17monitor_collector19MLWorkloadAnalytics4initEvE3$_2NS_9allocatorIS5_EEFvvEEC1B8ue170006ERKS5_OS7_', symObjAddr: 0x16A6C, symBinAddr: 0x10001AC40, symSize: 0x3C }
  - { offsetInCU: 0x4D114, offset: 0x63B21, size: 0x8, addend: 0x0, symName: '__ZNSt3__110__function12__alloc_funcIZN5hf3fs17monitor_collector19MLWorkloadAnalytics4initEvE3$_2NS_9allocatorIS5_EEFvvEEC2B8ue170006ERKS5_OS7_', symObjAddr: 0x16AA8, symBinAddr: 0x10001AC7C, symSize: 0x5C }
  - { offsetInCU: 0x4D15A, offset: 0x63B67, size: 0x8, addend: 0x0, symName: '__ZNSt3__117__compressed_pairIZN5hf3fs17monitor_collector19MLWorkloadAnalytics4initEvE3$_2NS_9allocatorIS4_EEEC1B8ue170006IJRKS4_EJOS6_EEENS_21piecewise_construct_tENS_5tupleIJDpT_EEENSD_IJDpT0_EEE', symObjAddr: 0x16B30, symBinAddr: 0x10001AD04, symSize: 0x3C }
  - { offsetInCU: 0x4D1C4, offset: 0x63BD1, size: 0x8, addend: 0x0, symName: '__ZNSt3__15tupleIJRKZN5hf3fs17monitor_collector19MLWorkloadAnalytics4initEvE3$_2EEC1B8ue170006INS_4_AndELi0EEES6_', symObjAddr: 0x16B6C, symBinAddr: 0x10001AD40, symSize: 0x34 }
  - { offsetInCU: 0x4D20D, offset: 0x63C1A, size: 0x8, addend: 0x0, symName: '__ZNSt3__15tupleIJRKZN5hf3fs17monitor_collector19MLWorkloadAnalytics4initEvE3$_2EEC2B8ue170006INS_4_AndELi0EEES6_', symObjAddr: 0x16BA0, symBinAddr: 0x10001AD74, symSize: 0x34 }
  - { offsetInCU: 0x4D256, offset: 0x63C63, size: 0x8, addend: 0x0, symName: '__ZNSt3__112__tuple_implINS_15__tuple_indicesIJLm0EEEEJRKZN5hf3fs17monitor_collector19MLWorkloadAnalytics4initEvE3$_2EEC1B8ue170006IJLm0EEJS8_EJEJEJS8_EEENS1_IJXspT_EEEENS_13__tuple_typesIJDpT0_EEENS1_IJXspT1_EEEENSC_IJDpT2_EEEDpOT3_', symObjAddr: 0x16BD4, symBinAddr: 0x10001ADA8, symSize: 0x34 }
  - { offsetInCU: 0x4D2EB, offset: 0x63CF8, size: 0x8, addend: 0x0, symName: '__ZNSt3__112__tuple_implINS_15__tuple_indicesIJLm0EEEEJRKZN5hf3fs17monitor_collector19MLWorkloadAnalytics4initEvE3$_2EEC2B8ue170006IJLm0EEJS8_EJEJEJS8_EEENS1_IJXspT_EEEENS_13__tuple_typesIJDpT0_EEENS1_IJXspT1_EEEENSC_IJDpT2_EEEDpOT3_', symObjAddr: 0x16C08, symBinAddr: 0x10001ADDC, symSize: 0x34 }
  - { offsetInCU: 0x4D380, offset: 0x63D8D, size: 0x8, addend: 0x0, symName: '__ZNSt3__112__tuple_leafILm0ERKZN5hf3fs17monitor_collector19MLWorkloadAnalytics4initEvE3$_2Lb0EEC2B8ue170006IS6_vEEOT_', symObjAddr: 0x16C3C, symBinAddr: 0x10001AE10, symSize: 0x20 }
  - { offsetInCU: 0x4D3C3, offset: 0x63DD0, size: 0x8, addend: 0x0, symName: '__ZNSt3__117__compressed_pairIZN5hf3fs17monitor_collector19MLWorkloadAnalytics4initEvE3$_2NS_9allocatorIS4_EEEC2B8ue170006IJRKS4_EJOS6_EEENS_21piecewise_construct_tENS_5tupleIJDpT_EEENSD_IJDpT0_EEE', symObjAddr: 0x16C5C, symBinAddr: 0x10001AE30, symSize: 0x54 }
  - { offsetInCU: 0x4D42D, offset: 0x63E3A, size: 0x8, addend: 0x0, symName: '__ZNSt3__122__compressed_pair_elemIZN5hf3fs17monitor_collector19MLWorkloadAnalytics4initEvE3$_2Li0ELb0EEC2B8ue170006IJRKS4_EJLm0EEEENS_21piecewise_construct_tENS_5tupleIJDpT_EEENS_15__tuple_indicesIJXspT0_EEEE', symObjAddr: 0x16CB0, symBinAddr: 0x10001AE84, symSize: 0x44 }
  - { offsetInCU: 0x4D492, offset: 0x63E9F, size: 0x8, addend: 0x0, symName: '__ZNSt3__112__tuple_leafILm0ERKZN5hf3fs17monitor_collector19MLWorkloadAnalytics4initEvE3$_2Lb0EE3getB8ue170006Ev', symObjAddr: 0x16D18, symBinAddr: 0x10001AEEC, symSize: 0x18 }
  - { offsetInCU: 0x4D4B8, offset: 0x63EC5, size: 0x8, addend: 0x0, symName: '__ZNSt3__117__compressed_pairIPNS_10__function6__funcIZN5hf3fs17monitor_collector19MLWorkloadAnalytics4initEvE3$_2NS_9allocatorIS6_EEFvvEEENS_22__allocator_destructorINS7_ISA_EEEEE5firstB8ue170006Ev', symObjAddr: 0x16D30, symBinAddr: 0x10001AF04, symSize: 0x24 }
  - { offsetInCU: 0x4D4DE, offset: 0x63EEB, size: 0x8, addend: 0x0, symName: '__ZNSt3__122__compressed_pair_elemIPNS_10__function6__funcIZN5hf3fs17monitor_collector19MLWorkloadAnalytics4initEvE3$_2NS_9allocatorIS6_EEFvvEEELi0ELb0EE5__getB8ue170006Ev', symObjAddr: 0x16D54, symBinAddr: 0x10001AF28, symSize: 0x14 }
  - { offsetInCU: 0x4D504, offset: 0x63F11, size: 0x8, addend: 0x0, symName: '__ZNSt3__110unique_ptrINS_10__function6__funcIZN5hf3fs17monitor_collector19MLWorkloadAnalytics4initEvE3$_2NS_9allocatorIS6_EEFvvEEENS_22__allocator_destructorINS7_ISA_EEEEED2B8ue170006Ev', symObjAddr: 0x16D68, symBinAddr: 0x10001AF3C, symSize: 0x30 }
  - { offsetInCU: 0x4D52E, offset: 0x63F3B, size: 0x8, addend: 0x0, symName: '__ZNSt3__110unique_ptrINS_10__function6__funcIZN5hf3fs17monitor_collector19MLWorkloadAnalytics4initEvE3$_2NS_9allocatorIS6_EEFvvEEENS_22__allocator_destructorINS7_ISA_EEEEE5resetB8ue170006EPSA_', symObjAddr: 0x16D98, symBinAddr: 0x10001AF6C, symSize: 0x78 }
  - { offsetInCU: 0x4D572, offset: 0x63F7F, size: 0x8, addend: 0x0, symName: '__ZNSt3__117__compressed_pairIPNS_10__function6__funcIZN5hf3fs17monitor_collector19MLWorkloadAnalytics4initEvE3$_2NS_9allocatorIS6_EEFvvEEENS_22__allocator_destructorINS7_ISA_EEEEE6secondB8ue170006Ev', symObjAddr: 0x16E10, symBinAddr: 0x10001AFE4, symSize: 0x28 }
  - { offsetInCU: 0x4D598, offset: 0x63FA5, size: 0x8, addend: 0x0, symName: '__ZNSt3__122__allocator_destructorINS_9allocatorINS_10__function6__funcIZN5hf3fs17monitor_collector19MLWorkloadAnalytics4initEvE3$_2NS1_IS7_EEFvvEEEEEEclB8ue170006EPSA_', symObjAddr: 0x16E38, symBinAddr: 0x10001B00C, symSize: 0x34 }
  - { offsetInCU: 0x4D5CC, offset: 0x63FD9, size: 0x8, addend: 0x0, symName: '__ZNSt3__122__compressed_pair_elemINS_22__allocator_destructorINS_9allocatorINS_10__function6__funcIZN5hf3fs17monitor_collector19MLWorkloadAnalytics4initEvE3$_2NS2_IS8_EEFvvEEEEEEELi1ELb0EE5__getB8ue170006Ev', symObjAddr: 0x16E6C, symBinAddr: 0x10001B040, symSize: 0x14 }
  - { offsetInCU: 0x4D5F2, offset: 0x63FFF, size: 0x8, addend: 0x0, symName: '__ZNSt3__116allocator_traitsINS_9allocatorINS_10__function6__funcIZN5hf3fs17monitor_collector19MLWorkloadAnalytics4initEvE3$_2NS1_IS7_EEFvvEEEEEE10deallocateB8ue170006ERSB_PSA_m', symObjAddr: 0x16E80, symBinAddr: 0x10001B054, symSize: 0x34 }
  - { offsetInCU: 0x4D634, offset: 0x64041, size: 0x8, addend: 0x0, symName: '__ZNSt3__19allocatorINS_10__function6__funcIZN5hf3fs17monitor_collector19MLWorkloadAnalytics4initEvE3$_2NS0_IS6_EEFvvEEEE10deallocateB8ue170006EPS9_m', symObjAddr: 0x16EB4, symBinAddr: 0x10001B088, symSize: 0x40 }
  - { offsetInCU: 0x4D676, offset: 0x64083, size: 0x8, addend: 0x0, symName: '__ZNSt3__110__function6__funcIZN5hf3fs17monitor_collector19MLWorkloadAnalytics4initEvE3$_2NS_9allocatorIS5_EEFvvEEC1B8ue170006ERKS5_RKS7_', symObjAddr: 0x16EF4, symBinAddr: 0x10001B0C8, symSize: 0x3C }
  - { offsetInCU: 0x4D6BE, offset: 0x640CB, size: 0x8, addend: 0x0, symName: '__ZNSt3__110__function6__funcIZN5hf3fs17monitor_collector19MLWorkloadAnalytics4initEvE3$_2NS_9allocatorIS5_EEFvvEEC2B8ue170006ERKS5_RKS7_', symObjAddr: 0x16F30, symBinAddr: 0x10001B104, symSize: 0x88 }
  - { offsetInCU: 0x4D706, offset: 0x64113, size: 0x8, addend: 0x0, symName: '__ZNSt3__110__function12__alloc_funcIZN5hf3fs17monitor_collector19MLWorkloadAnalytics4initEvE3$_2NS_9allocatorIS5_EEFvvEEC1B8ue170006ERKS5_RKS7_', symObjAddr: 0x16FB8, symBinAddr: 0x10001B18C, symSize: 0x3C }
  - { offsetInCU: 0x4D74C, offset: 0x64159, size: 0x8, addend: 0x0, symName: '__ZNSt3__110__function12__alloc_funcIZN5hf3fs17monitor_collector19MLWorkloadAnalytics4initEvE3$_2NS_9allocatorIS5_EEFvvEEC2B8ue170006ERKS5_RKS7_', symObjAddr: 0x16FF4, symBinAddr: 0x10001B1C8, symSize: 0x5C }
  - { offsetInCU: 0x4D792, offset: 0x6419F, size: 0x8, addend: 0x0, symName: '__ZNSt3__117__compressed_pairIZN5hf3fs17monitor_collector19MLWorkloadAnalytics4initEvE3$_2NS_9allocatorIS4_EEEC1B8ue170006IJRKS4_EJRKS6_EEENS_21piecewise_construct_tENS_5tupleIJDpT_EEENSE_IJDpT0_EEE', symObjAddr: 0x1707C, symBinAddr: 0x10001B250, symSize: 0x3C }
  - { offsetInCU: 0x4D7FC, offset: 0x64209, size: 0x8, addend: 0x0, symName: '__ZNSt3__15tupleIJRKNS_9allocatorIZN5hf3fs17monitor_collector19MLWorkloadAnalytics4initEvE3$_2EEEEC1B8ue170006INS_4_AndELi0EEES8_', symObjAddr: 0x170B8, symBinAddr: 0x10001B28C, symSize: 0x34 }
  - { offsetInCU: 0x4D845, offset: 0x64252, size: 0x8, addend: 0x0, symName: '__ZNSt3__15tupleIJRKNS_9allocatorIZN5hf3fs17monitor_collector19MLWorkloadAnalytics4initEvE3$_2EEEEC2B8ue170006INS_4_AndELi0EEES8_', symObjAddr: 0x170EC, symBinAddr: 0x10001B2C0, symSize: 0x34 }
  - { offsetInCU: 0x4D88E, offset: 0x6429B, size: 0x8, addend: 0x0, symName: '__ZNSt3__112__tuple_implINS_15__tuple_indicesIJLm0EEEEJRKNS_9allocatorIZN5hf3fs17monitor_collector19MLWorkloadAnalytics4initEvE3$_2EEEEC1B8ue170006IJLm0EEJSA_EJEJEJSA_EEENS1_IJXspT_EEEENS_13__tuple_typesIJDpT0_EEENS1_IJXspT1_EEEENSE_IJDpT2_EEEDpOT3_', symObjAddr: 0x17120, symBinAddr: 0x10001B2F4, symSize: 0x34 }
  - { offsetInCU: 0x4D923, offset: 0x64330, size: 0x8, addend: 0x0, symName: '__ZNSt3__112__tuple_implINS_15__tuple_indicesIJLm0EEEEJRKNS_9allocatorIZN5hf3fs17monitor_collector19MLWorkloadAnalytics4initEvE3$_2EEEEC2B8ue170006IJLm0EEJSA_EJEJEJSA_EEENS1_IJXspT_EEEENS_13__tuple_typesIJDpT0_EEENS1_IJXspT1_EEEENSE_IJDpT2_EEEDpOT3_', symObjAddr: 0x17154, symBinAddr: 0x10001B328, symSize: 0x34 }
  - { offsetInCU: 0x4D9B8, offset: 0x643C5, size: 0x8, addend: 0x0, symName: '__ZNSt3__112__tuple_leafILm0ERKNS_9allocatorIZN5hf3fs17monitor_collector19MLWorkloadAnalytics4initEvE3$_2EELb0EEC2B8ue170006IS8_vEEOT_', symObjAddr: 0x17188, symBinAddr: 0x10001B35C, symSize: 0x20 }
  - { offsetInCU: 0x4D9FB, offset: 0x64408, size: 0x8, addend: 0x0, symName: '__ZNSt3__117__compressed_pairIZN5hf3fs17monitor_collector19MLWorkloadAnalytics4initEvE3$_2NS_9allocatorIS4_EEEC2B8ue170006IJRKS4_EJRKS6_EEENS_21piecewise_construct_tENS_5tupleIJDpT_EEENSE_IJDpT0_EEE', symObjAddr: 0x171A8, symBinAddr: 0x10001B37C, symSize: 0x54 }
  - { offsetInCU: 0x4DA65, offset: 0x64472, size: 0x8, addend: 0x0, symName: '__ZNSt3__122__compressed_pair_elemINS_9allocatorIZN5hf3fs17monitor_collector19MLWorkloadAnalytics4initEvE3$_2EELi1ELb1EEC2B8ue170006IJRKS6_EJLm0EEEENS_21piecewise_construct_tENS_5tupleIJDpT_EEENS_15__tuple_indicesIJXspT0_EEEE', symObjAddr: 0x171FC, symBinAddr: 0x10001B3D0, symSize: 0x38 }
  - { offsetInCU: 0x4DACA, offset: 0x644D7, size: 0x8, addend: 0x0, symName: '__ZNSt3__112__tuple_leafILm0ERKNS_9allocatorIZN5hf3fs17monitor_collector19MLWorkloadAnalytics4initEvE3$_2EELb0EE3getB8ue170006Ev', symObjAddr: 0x17258, symBinAddr: 0x10001B42C, symSize: 0x18 }
  - { offsetInCU: 0x4DAF0, offset: 0x644FD, size: 0x8, addend: 0x0, symName: '__ZNSt3__110__function12__alloc_funcIZN5hf3fs17monitor_collector19MLWorkloadAnalytics4initEvE3$_2NS_9allocatorIS5_EEFvvEE7destroyB8ue170006Ev', symObjAddr: 0x17270, symBinAddr: 0x10001B444, symSize: 0x10 }
  - { offsetInCU: 0x4DB16, offset: 0x64523, size: 0x8, addend: 0x0, symName: '__ZNSt3__110__function12__alloc_funcIZN5hf3fs17monitor_collector19MLWorkloadAnalytics4initEvE3$_2NS_9allocatorIS5_EEFvvEEclB8ue170006Ev', symObjAddr: 0x17280, symBinAddr: 0x10001B454, symSize: 0x28 }
  - { offsetInCU: 0x4DB3C, offset: 0x64549, size: 0x8, addend: 0x0, symName: '__ZNSt3__128__invoke_void_return_wrapperIvLb1EE6__callB8ue170006IJRZN5hf3fs17monitor_collector19MLWorkloadAnalytics4initEvE3$_2EEEvDpOT_', symObjAddr: 0x172A8, symBinAddr: 0x10001B47C, symSize: 0x24 }
  - { offsetInCU: 0x4DB6B, offset: 0x64578, size: 0x8, addend: 0x0, symName: '__ZNSt3__117__compressed_pairIZN5hf3fs17monitor_collector19MLWorkloadAnalytics4initEvE3$_2NS_9allocatorIS4_EEE5firstB8ue170006Ev', symObjAddr: 0x172CC, symBinAddr: 0x10001B4A0, symSize: 0x24 }
  - { offsetInCU: 0x4DB96, offset: 0x645A3, size: 0x8, addend: 0x0, symName: '__ZZN5hf3fs17monitor_collector19MLWorkloadAnalytics4initEvENK3$_2clEv', symObjAddr: 0x17314, symBinAddr: 0x10001B4E8, symSize: 0x28 }
  - { offsetInCU: 0x4DBC0, offset: 0x645CD, size: 0x8, addend: 0x0, symName: '__ZNSt3__122__compressed_pair_elemIZN5hf3fs17monitor_collector19MLWorkloadAnalytics4initEvE3$_2Li0ELb0EE5__getB8ue170006Ev', symObjAddr: 0x1733C, symBinAddr: 0x10001B510, symSize: 0x14 }
  - { offsetInCU: 0x4DBE6, offset: 0x645F3, size: 0x8, addend: 0x0, symName: __ZNKSt3__114default_deleteIN5hf3fs16BackgroundRunnerEEclB8ue170006EPS2_, symObjAddr: 0x17350, symBinAddr: 0x10001B524, symSize: 0x4C }
  - { offsetInCU: 0x4DC1A, offset: 0x64627, size: 0x8, addend: 0x0, symName: __ZN5hf3fs16BackgroundRunnerD1Ev, symObjAddr: 0x1739C, symBinAddr: 0x10001B570, symSize: 0x2C }
  - { offsetInCU: 0x4DC46, offset: 0x64653, size: 0x8, addend: 0x0, symName: __ZN5hf3fs16BackgroundRunnerD2Ev, symObjAddr: 0x173C8, symBinAddr: 0x10001B59C, symSize: 0x38 }
  - { offsetInCU: 0x4DC72, offset: 0x6467F, size: 0x8, addend: 0x0, symName: __ZNSt3__16vectorIN5hf3fs17monitor_collector15OperationRecordENS_9allocatorIS3_EEE11__make_iterB8ue170006EPS3_, symObjAddr: 0x17400, symBinAddr: 0x10001B5D4, symSize: 0x30 }
  - { offsetInCU: 0x4DCA7, offset: 0x646B4, size: 0x8, addend: 0x0, symName: __ZNSt3__111__wrap_iterIPN5hf3fs17monitor_collector15OperationRecordEEC1B8ue170006ES4_, symObjAddr: 0x17430, symBinAddr: 0x10001B604, symSize: 0x34 }
  - { offsetInCU: 0x4DCDF, offset: 0x646EC, size: 0x8, addend: 0x0, symName: __ZNSt3__111__wrap_iterIPN5hf3fs17monitor_collector15OperationRecordEEC2B8ue170006ES4_, symObjAddr: 0x17464, symBinAddr: 0x10001B638, symSize: 0x20 }
  - { offsetInCU: 0x4DD17, offset: 0x64724, size: 0x8, addend: 0x0, symName: __ZNSt3__113unordered_mapIyNS_6vectorIN5hf3fs17monitor_collector15OperationRecordENS_9allocatorIS4_EEEENS_4hashIyEENS_8equal_toIyEENS5_INS_4pairIKyS7_EEEEE4findB8ue170006ERSD_, symObjAddr: 0x17484, symBinAddr: 0x10001B658, symSize: 0x40 }
  - { offsetInCU: 0x4DD4C, offset: 0x64759, size: 0x8, addend: 0x0, symName: __ZNSt3__113unordered_mapIyNS_6vectorIN5hf3fs17monitor_collector15OperationRecordENS_9allocatorIS4_EEEENS_4hashIyEENS_8equal_toIyEENS5_INS_4pairIKyS7_EEEEE3endB8ue170006Ev, symObjAddr: 0x174C4, symBinAddr: 0x10001B698, symSize: 0x38 }
  - { offsetInCU: 0x4DD7C, offset: 0x64789, size: 0x8, addend: 0x0, symName: '__ZZN5hf3fs17monitor_collector19MLWorkloadAnalytics15recordOperationERKNS0_15OperationRecordEENK3$_3clERNSt3__16vectorIS2_NS6_9allocatorIS2_EEEE', symObjAddr: 0x174FC, symBinAddr: 0x10001B6D0, symSize: 0xD0 }
  - { offsetInCU: 0x4DDC2, offset: 0x647CF, size: 0x8, addend: 0x0, symName: __ZNKSt3__18functionIFNS_6vectorIN5hf3fs17monitor_collector15OperationRecordENS_9allocatorIS4_EEEEvEEclEv, symObjAddr: 0x175CC, symBinAddr: 0x10001B7A0, symSize: 0x2C }
  - { offsetInCU: 0x4DDEA, offset: 0x647F7, size: 0x8, addend: 0x0, symName: __ZNSt3__113unordered_mapIyNS_6vectorIN5hf3fs17monitor_collector15OperationRecordENS_9allocatorIS4_EEEENS_4hashIyEENS_8equal_toIyEENS5_INS_4pairIKyS7_EEEEEixERSD_, symObjAddr: 0x175F8, symBinAddr: 0x10001B7CC, symSize: 0x80 }
  - { offsetInCU: 0x4DE21, offset: 0x6482E, size: 0x8, addend: 0x0, symName: __ZNSt3__16vectorIN5hf3fs17monitor_collector15OperationRecordENS_9allocatorIS3_EEEaSB8ue170006EOS6_, symObjAddr: 0x17678, symBinAddr: 0x10001B84C, symSize: 0x34 }
  - { offsetInCU: 0x4DE58, offset: 0x64865, size: 0x8, addend: 0x0, symName: __ZNSt3__112__hash_tableINS_17__hash_value_typeIyNS_6vectorIN5hf3fs17monitor_collector15OperationRecordENS_9allocatorIS5_EEEEEENS_22__unordered_map_hasherIyS9_NS_4hashIyEENS_8equal_toIyEELb1EEENS_21__unordered_map_equalIyS9_SE_SC_Lb1EEENS6_IS9_EEE4findIyEENS_15__hash_iteratorIPNS_11__hash_nodeIS9_PvEEEERKT_, symObjAddr: 0x176AC, symBinAddr: 0x10001B880, symSize: 0x1B0 }
  - { offsetInCU: 0x4DEE2, offset: 0x648EF, size: 0x8, addend: 0x0, symName: __ZNSt3__119__hash_map_iteratorINS_15__hash_iteratorIPNS_11__hash_nodeINS_17__hash_value_typeIyNS_6vectorIN5hf3fs17monitor_collector15OperationRecordENS_9allocatorIS7_EEEEEEPvEEEEEC1B8ue170006ESF_, symObjAddr: 0x1785C, symBinAddr: 0x10001BA30, symSize: 0x34 }
  - { offsetInCU: 0x4DF1B, offset: 0x64928, size: 0x8, addend: 0x0, symName: __ZNSt3__112__hash_tableINS_17__hash_value_typeIyNS_6vectorIN5hf3fs17monitor_collector15OperationRecordENS_9allocatorIS5_EEEEEENS_22__unordered_map_hasherIyS9_NS_4hashIyEENS_8equal_toIyEELb1EEENS_21__unordered_map_equalIyS9_SE_SC_Lb1EEENS6_IS9_EEE13hash_functionB8ue170006Ev, symObjAddr: 0x17890, symBinAddr: 0x10001BA64, symSize: 0x28 }
  - { offsetInCU: 0x4DF41, offset: 0x6494E, size: 0x8, addend: 0x0, symName: __ZNKSt3__122__unordered_map_hasherIyNS_17__hash_value_typeIyNS_6vectorIN5hf3fs17monitor_collector15OperationRecordENS_9allocatorIS5_EEEEEENS_4hashIyEENS_8equal_toIyEELb1EEclB8ue170006ERKy, symObjAddr: 0x178B8, symBinAddr: 0x10001BA8C, symSize: 0x30 }
  - { offsetInCU: 0x4DF76, offset: 0x64983, size: 0x8, addend: 0x0, symName: __ZNKSt3__112__hash_tableINS_17__hash_value_typeIyNS_6vectorIN5hf3fs17monitor_collector15OperationRecordENS_9allocatorIS5_EEEEEENS_22__unordered_map_hasherIyS9_NS_4hashIyEENS_8equal_toIyEELb1EEENS_21__unordered_map_equalIyS9_SE_SC_Lb1EEENS6_IS9_EEE12bucket_countB8ue170006Ev, symObjAddr: 0x178E8, symBinAddr: 0x10001BABC, symSize: 0x28 }
  - { offsetInCU: 0x4DF9C, offset: 0x649A9, size: 0x8, addend: 0x0, symName: __ZNKSt3__110unique_ptrIA_PNS_16__hash_node_baseIPNS_11__hash_nodeINS_17__hash_value_typeIyNS_6vectorIN5hf3fs17monitor_collector15OperationRecordENS_9allocatorIS7_EEEEEEPvEEEENS_25__bucket_list_deallocatorINS8_ISG_EEEEEixB8ue170006Em, symObjAddr: 0x17910, symBinAddr: 0x10001BAE4, symSize: 0x34 }
  - { offsetInCU: 0x4DFD1, offset: 0x649DE, size: 0x8, addend: 0x0, symName: __ZNKSt3__116__hash_node_baseIPNS_11__hash_nodeINS_17__hash_value_typeIyNS_6vectorIN5hf3fs17monitor_collector15OperationRecordENS_9allocatorIS6_EEEEEEPvEEE6__hashB8ue170006Ev, symObjAddr: 0x17944, symBinAddr: 0x10001BB18, symSize: 0x18 }
  - { offsetInCU: 0x4DFF7, offset: 0x64A04, size: 0x8, addend: 0x0, symName: __ZNSt3__112__hash_tableINS_17__hash_value_typeIyNS_6vectorIN5hf3fs17monitor_collector15OperationRecordENS_9allocatorIS5_EEEEEENS_22__unordered_map_hasherIyS9_NS_4hashIyEENS_8equal_toIyEELb1EEENS_21__unordered_map_equalIyS9_SE_SC_Lb1EEENS6_IS9_EEE6key_eqB8ue170006Ev, symObjAddr: 0x1795C, symBinAddr: 0x10001BB30, symSize: 0x28 }
  - { offsetInCU: 0x4E01D, offset: 0x64A2A, size: 0x8, addend: 0x0, symName: __ZNKSt3__121__unordered_map_equalIyNS_17__hash_value_typeIyNS_6vectorIN5hf3fs17monitor_collector15OperationRecordENS_9allocatorIS5_EEEEEENS_8equal_toIyEENS_4hashIyEELb1EEclB8ue170006ERKS9_RKy, symObjAddr: 0x17984, symBinAddr: 0x10001BB58, symSize: 0x48 }
  - { offsetInCU: 0x4E061, offset: 0x64A6E, size: 0x8, addend: 0x0, symName: __ZNSt3__115__hash_iteratorIPNS_11__hash_nodeINS_17__hash_value_typeIyNS_6vectorIN5hf3fs17monitor_collector15OperationRecordENS_9allocatorIS6_EEEEEEPvEEEC1B8ue170006EPNS_16__hash_node_baseISD_EE, symObjAddr: 0x179CC, symBinAddr: 0x10001BBA0, symSize: 0x34 }
  - { offsetInCU: 0x4E09A, offset: 0x64AA7, size: 0x8, addend: 0x0, symName: __ZNSt3__112__hash_tableINS_17__hash_value_typeIyNS_6vectorIN5hf3fs17monitor_collector15OperationRecordENS_9allocatorIS5_EEEEEENS_22__unordered_map_hasherIyS9_NS_4hashIyEENS_8equal_toIyEELb1EEENS_21__unordered_map_equalIyS9_SE_SC_Lb1EEENS6_IS9_EEE3endEv, symObjAddr: 0x17A00, symBinAddr: 0x10001BBD4, symSize: 0x2C }
  - { offsetInCU: 0x4E0C2, offset: 0x64ACF, size: 0x8, addend: 0x0, symName: __ZNSt3__117__compressed_pairImNS_22__unordered_map_hasherIyNS_17__hash_value_typeIyNS_6vectorIN5hf3fs17monitor_collector15OperationRecordENS_9allocatorIS6_EEEEEENS_4hashIyEENS_8equal_toIyEELb1EEEE6secondB8ue170006Ev, symObjAddr: 0x17A2C, symBinAddr: 0x10001BC00, symSize: 0x24 }
  - { offsetInCU: 0x4E0E8, offset: 0x64AF5, size: 0x8, addend: 0x0, symName: __ZNSt3__122__compressed_pair_elemINS_22__unordered_map_hasherIyNS_17__hash_value_typeIyNS_6vectorIN5hf3fs17monitor_collector15OperationRecordENS_9allocatorIS6_EEEEEENS_4hashIyEENS_8equal_toIyEELb1EEELi1ELb1EE5__getB8ue170006Ev, symObjAddr: 0x17A50, symBinAddr: 0x10001BC24, symSize: 0x14 }
  - { offsetInCU: 0x4E10E, offset: 0x64B1B, size: 0x8, addend: 0x0, symName: __ZNKSt3__113__scalar_hashIyLm1EEclB8ue170006Ey, symObjAddr: 0x17A64, symBinAddr: 0x10001BC38, symSize: 0x20 }
  - { offsetInCU: 0x4E174, offset: 0x64B81, size: 0x8, addend: 0x0, symName: __ZNKSt3__110unique_ptrIA_PNS_16__hash_node_baseIPNS_11__hash_nodeINS_17__hash_value_typeIyNS_6vectorIN5hf3fs17monitor_collector15OperationRecordENS_9allocatorIS7_EEEEEEPvEEEENS_25__bucket_list_deallocatorINS8_ISG_EEEEE11get_deleterB8ue170006Ev, symObjAddr: 0x17A84, symBinAddr: 0x10001BC58, symSize: 0x24 }
  - { offsetInCU: 0x4E19A, offset: 0x64BA7, size: 0x8, addend: 0x0, symName: __ZNKSt3__125__bucket_list_deallocatorINS_9allocatorIPNS_16__hash_node_baseIPNS_11__hash_nodeINS_17__hash_value_typeIyNS_6vectorIN5hf3fs17monitor_collector15OperationRecordENS1_IS8_EEEEEEPvEEEEEEE4sizeB8ue170006Ev, symObjAddr: 0x17AA8, symBinAddr: 0x10001BC7C, symSize: 0x28 }
  - { offsetInCU: 0x4E1C0, offset: 0x64BCD, size: 0x8, addend: 0x0, symName: __ZNKSt3__117__compressed_pairIPPNS_16__hash_node_baseIPNS_11__hash_nodeINS_17__hash_value_typeIyNS_6vectorIN5hf3fs17monitor_collector15OperationRecordENS_9allocatorIS7_EEEEEEPvEEEENS_25__bucket_list_deallocatorINS8_ISG_EEEEE6secondB8ue170006Ev, symObjAddr: 0x17AD0, symBinAddr: 0x10001BCA4, symSize: 0x28 }
  - { offsetInCU: 0x4E1E6, offset: 0x64BF3, size: 0x8, addend: 0x0, symName: __ZNKSt3__122__compressed_pair_elemINS_25__bucket_list_deallocatorINS_9allocatorIPNS_16__hash_node_baseIPNS_11__hash_nodeINS_17__hash_value_typeIyNS_6vectorIN5hf3fs17monitor_collector15OperationRecordENS2_IS9_EEEEEEPvEEEEEEEELi1ELb0EE5__getB8ue170006Ev, symObjAddr: 0x17AF8, symBinAddr: 0x10001BCCC, symSize: 0x14 }
  - { offsetInCU: 0x4E20C, offset: 0x64C19, size: 0x8, addend: 0x0, symName: __ZNKSt3__117__compressed_pairImNS_9allocatorIPNS_16__hash_node_baseIPNS_11__hash_nodeINS_17__hash_value_typeIyNS_6vectorIN5hf3fs17monitor_collector15OperationRecordENS1_IS8_EEEEEEPvEEEEEEE5firstB8ue170006Ev, symObjAddr: 0x17B0C, symBinAddr: 0x10001BCE0, symSize: 0x24 }
  - { offsetInCU: 0x4E232, offset: 0x64C3F, size: 0x8, addend: 0x0, symName: __ZNKSt3__117__compressed_pairIPPNS_16__hash_node_baseIPNS_11__hash_nodeINS_17__hash_value_typeIyNS_6vectorIN5hf3fs17monitor_collector15OperationRecordENS_9allocatorIS7_EEEEEEPvEEEENS_25__bucket_list_deallocatorINS8_ISG_EEEEE5firstB8ue170006Ev, symObjAddr: 0x17B30, symBinAddr: 0x10001BD04, symSize: 0x24 }
  - { offsetInCU: 0x4E258, offset: 0x64C65, size: 0x8, addend: 0x0, symName: __ZNKSt3__122__compressed_pair_elemIPPNS_16__hash_node_baseIPNS_11__hash_nodeINS_17__hash_value_typeIyNS_6vectorIN5hf3fs17monitor_collector15OperationRecordENS_9allocatorIS7_EEEEEEPvEEEELi0ELb0EE5__getB8ue170006Ev, symObjAddr: 0x17B54, symBinAddr: 0x10001BD28, symSize: 0x14 }
  - { offsetInCU: 0x4E27E, offset: 0x64C8B, size: 0x8, addend: 0x0, symName: __ZNSt3__117__compressed_pairIfNS_21__unordered_map_equalIyNS_17__hash_value_typeIyNS_6vectorIN5hf3fs17monitor_collector15OperationRecordENS_9allocatorIS6_EEEEEENS_8equal_toIyEENS_4hashIyEELb1EEEE6secondB8ue170006Ev, symObjAddr: 0x17B68, symBinAddr: 0x10001BD3C, symSize: 0x24 }
  - { offsetInCU: 0x4E2A4, offset: 0x64CB1, size: 0x8, addend: 0x0, symName: __ZNSt3__122__compressed_pair_elemINS_21__unordered_map_equalIyNS_17__hash_value_typeIyNS_6vectorIN5hf3fs17monitor_collector15OperationRecordENS_9allocatorIS6_EEEEEENS_8equal_toIyEENS_4hashIyEELb1EEELi1ELb1EE5__getB8ue170006Ev, symObjAddr: 0x17B8C, symBinAddr: 0x10001BD60, symSize: 0x14 }
  - { offsetInCU: 0x4E2CA, offset: 0x64CD7, size: 0x8, addend: 0x0, symName: __ZNKSt3__18equal_toIyEclB8ue170006ERKyS3_, symObjAddr: 0x17BA0, symBinAddr: 0x10001BD74, symSize: 0x34 }
  - { offsetInCU: 0x4E30E, offset: 0x64D1B, size: 0x8, addend: 0x0, symName: __ZNKSt3__117__hash_value_typeIyNS_6vectorIN5hf3fs17monitor_collector15OperationRecordENS_9allocatorIS4_EEEEE11__get_valueB8ue170006Ev, symObjAddr: 0x17BD4, symBinAddr: 0x10001BDA8, symSize: 0x24 }
  - { offsetInCU: 0x4E334, offset: 0x64D41, size: 0x8, addend: 0x0, symName: __ZNSt3__115__hash_iteratorIPNS_11__hash_nodeINS_17__hash_value_typeIyNS_6vectorIN5hf3fs17monitor_collector15OperationRecordENS_9allocatorIS6_EEEEEEPvEEEC2B8ue170006EPNS_16__hash_node_baseISD_EE, symObjAddr: 0x17C30, symBinAddr: 0x10001BE04, symSize: 0x20 }
  - { offsetInCU: 0x4E36D, offset: 0x64D7A, size: 0x8, addend: 0x0, symName: __ZNSt3__119__hash_map_iteratorINS_15__hash_iteratorIPNS_11__hash_nodeINS_17__hash_value_typeIyNS_6vectorIN5hf3fs17monitor_collector15OperationRecordENS_9allocatorIS7_EEEEEEPvEEEEEC2B8ue170006ESF_, symObjAddr: 0x17C50, symBinAddr: 0x10001BE24, symSize: 0x20 }
  - { offsetInCU: 0x4E3A6, offset: 0x64DB3, size: 0x8, addend: 0x0, symName: __ZNSt3__16vectorIN5hf3fs17monitor_collector15OperationRecordENS_9allocatorIS3_EEE9push_backB8ue170006ERKS3_, symObjAddr: 0x17C70, symBinAddr: 0x10001BE44, symSize: 0x6C }
  - { offsetInCU: 0x4E3DD, offset: 0x64DEA, size: 0x8, addend: 0x0, symName: __ZNSt3__16vectorIN5hf3fs17monitor_collector15OperationRecordENS_9allocatorIS3_EEE5eraseENS_11__wrap_iterIPKS3_EESA_, symObjAddr: 0x17CDC, symBinAddr: 0x10001BEB0, symSize: 0xE0 }
  - { offsetInCU: 0x4E437, offset: 0x64E44, size: 0x8, addend: 0x0, symName: __ZNSt3__111__wrap_iterIPKN5hf3fs17monitor_collector15OperationRecordEEC1B8ue170006IPS3_EERKNS0_IT_EEPNS_9enable_ifIXsr14is_convertibleIS9_S5_EE5valueEvE4typeE, symObjAddr: 0x17DBC, symBinAddr: 0x10001BF90, symSize: 0x3C }
  - { offsetInCU: 0x4E483, offset: 0x64E90, size: 0x8, addend: 0x0, symName: __ZNKSt3__111__wrap_iterIPN5hf3fs17monitor_collector15OperationRecordEEplB8ue170006El, symObjAddr: 0x17DF8, symBinAddr: 0x10001BFCC, symSize: 0x3C }
  - { offsetInCU: 0x4E4C5, offset: 0x64ED2, size: 0x8, addend: 0x0, symName: __ZNSt3__16vectorIN5hf3fs17monitor_collector15OperationRecordENS_9allocatorIS3_EEE9__end_capB8ue170006Ev, symObjAddr: 0x17E34, symBinAddr: 0x10001C008, symSize: 0x28 }
  - { offsetInCU: 0x4E4EB, offset: 0x64EF8, size: 0x8, addend: 0x0, symName: __ZNSt3__16vectorIN5hf3fs17monitor_collector15OperationRecordENS_9allocatorIS3_EEE22__construct_one_at_endB8ue170006IJRKS3_EEEvDpOT_, symObjAddr: 0x17E5C, symBinAddr: 0x10001C030, symSize: 0x90 }
  - { offsetInCU: 0x4E53A, offset: 0x64F47, size: 0x8, addend: 0x0, symName: __ZNSt3__16vectorIN5hf3fs17monitor_collector15OperationRecordENS_9allocatorIS3_EEE21__push_back_slow_pathIRKS3_EEvOT_, symObjAddr: 0x17EEC, symBinAddr: 0x10001C0C0, symSize: 0xD8 }
  - { offsetInCU: 0x4E598, offset: 0x64FA5, size: 0x8, addend: 0x0, symName: __ZNSt3__117__compressed_pairIPN5hf3fs17monitor_collector15OperationRecordENS_9allocatorIS3_EEE5firstB8ue170006Ev, symObjAddr: 0x17FC4, symBinAddr: 0x10001C198, symSize: 0x24 }
  - { offsetInCU: 0x4E5BE, offset: 0x64FCB, size: 0x8, addend: 0x0, symName: __ZNSt3__122__compressed_pair_elemIPN5hf3fs17monitor_collector15OperationRecordELi0ELb0EE5__getB8ue170006Ev, symObjAddr: 0x17FE8, symBinAddr: 0x10001C1BC, symSize: 0x14 }
  - { offsetInCU: 0x4E5FD, offset: 0x6500A, size: 0x8, addend: 0x0, symName: __ZNSt3__16vectorIN5hf3fs17monitor_collector15OperationRecordENS_9allocatorIS3_EEE21_ConstructTransactionC1B8ue170006ERS6_m, symObjAddr: 0x17FFC, symBinAddr: 0x10001C1D0, symSize: 0x3C }
  - { offsetInCU: 0x4E645, offset: 0x65052, size: 0x8, addend: 0x0, symName: __ZNSt3__116allocator_traitsINS_9allocatorIN5hf3fs17monitor_collector15OperationRecordEEEE9constructB8ue170006IS4_JRKS4_EvEEvRS5_PT_DpOT0_, symObjAddr: 0x18038, symBinAddr: 0x10001C20C, symSize: 0x34 }
  - { offsetInCU: 0x4E69C, offset: 0x650A9, size: 0x8, addend: 0x0, symName: __ZNSt3__16vectorIN5hf3fs17monitor_collector15OperationRecordENS_9allocatorIS3_EEE21_ConstructTransactionD1B8ue170006Ev, symObjAddr: 0x1806C, symBinAddr: 0x10001C240, symSize: 0x2C }
  - { offsetInCU: 0x4E6C6, offset: 0x650D3, size: 0x8, addend: 0x0, symName: __ZNSt3__16vectorIN5hf3fs17monitor_collector15OperationRecordENS_9allocatorIS3_EEE21_ConstructTransactionC2B8ue170006ERS6_m, symObjAddr: 0x18098, symBinAddr: 0x10001C26C, symSize: 0x4C }
  - { offsetInCU: 0x4E70E, offset: 0x6511B, size: 0x8, addend: 0x0, symName: __ZNSt3__19allocatorIN5hf3fs17monitor_collector15OperationRecordEE9constructB8ue170006IS3_JRKS3_EEEvPT_DpOT0_, symObjAddr: 0x180E4, symBinAddr: 0x10001C2B8, symSize: 0x30 }
  - { offsetInCU: 0x4E764, offset: 0x65171, size: 0x8, addend: 0x0, symName: __ZN5hf3fs17monitor_collector15OperationRecordC1ERKS1_, symObjAddr: 0x18114, symBinAddr: 0x10001C2E8, symSize: 0x34 }
  - { offsetInCU: 0x4E79A, offset: 0x651A7, size: 0x8, addend: 0x0, symName: __ZN5hf3fs17monitor_collector15OperationRecordC2ERKS1_, symObjAddr: 0x18148, symBinAddr: 0x10001C31C, symSize: 0xA8 }
  - { offsetInCU: 0x4E7D0, offset: 0x651DD, size: 0x8, addend: 0x0, symName: __ZNSt3__16vectorIN5hf3fs17monitor_collector15OperationRecordENS_9allocatorIS3_EEE21_ConstructTransactionD2B8ue170006Ev, symObjAddr: 0x181F0, symBinAddr: 0x10001C3C4, symSize: 0x20 }
  - { offsetInCU: 0x4E7FA, offset: 0x65207, size: 0x8, addend: 0x0, symName: __ZNKSt3__16vectorIN5hf3fs17monitor_collector15OperationRecordENS_9allocatorIS3_EEE11__recommendB8ue170006Em, symObjAddr: 0x18210, symBinAddr: 0x10001C3E4, symSize: 0xB4 }
  - { offsetInCU: 0x4E84F, offset: 0x6525C, size: 0x8, addend: 0x0, symName: __ZNSt3__114__split_bufferIN5hf3fs17monitor_collector15OperationRecordERNS_9allocatorIS3_EEEC1EmmS6_, symObjAddr: 0x182C4, symBinAddr: 0x10001C498, symSize: 0x44 }
  - { offsetInCU: 0x4E8A5, offset: 0x652B2, size: 0x8, addend: 0x0, symName: __ZNSt3__114__split_bufferIN5hf3fs17monitor_collector15OperationRecordERNS_9allocatorIS3_EEED1Ev, symObjAddr: 0x18418, symBinAddr: 0x10001C5EC, symSize: 0x2C }
  - { offsetInCU: 0x4E8D1, offset: 0x652DE, size: 0x8, addend: 0x0, symName: __ZNKSt3__16vectorIN5hf3fs17monitor_collector15OperationRecordENS_9allocatorIS3_EEE8max_sizeEv, symObjAddr: 0x18444, symBinAddr: 0x10001C618, symSize: 0x60 }
  - { offsetInCU: 0x4E8F9, offset: 0x65306, size: 0x8, addend: 0x0, symName: __ZNKSt3__16vectorIN5hf3fs17monitor_collector15OperationRecordENS_9allocatorIS3_EEE20__throw_length_errorB8ue170006Ev, symObjAddr: 0x184A4, symBinAddr: 0x10001C678, symSize: 0x1C }
  - { offsetInCU: 0x4E929, offset: 0x65336, size: 0x8, addend: 0x0, symName: __ZNSt3__116allocator_traitsINS_9allocatorIN5hf3fs17monitor_collector15OperationRecordEEEE8max_sizeB8ue170006IS5_vEEmRKS5_, symObjAddr: 0x184C0, symBinAddr: 0x10001C694, symSize: 0x24 }
  - { offsetInCU: 0x4E957, offset: 0x65364, size: 0x8, addend: 0x0, symName: __ZNKSt3__16vectorIN5hf3fs17monitor_collector15OperationRecordENS_9allocatorIS3_EEE7__allocB8ue170006Ev, symObjAddr: 0x184E4, symBinAddr: 0x10001C6B8, symSize: 0x28 }
  - { offsetInCU: 0x4E97D, offset: 0x6538A, size: 0x8, addend: 0x0, symName: __ZNKSt3__19allocatorIN5hf3fs17monitor_collector15OperationRecordEE8max_sizeB8ue170006Ev, symObjAddr: 0x1850C, symBinAddr: 0x10001C6E0, symSize: 0x18 }
  - { offsetInCU: 0x4E9A3, offset: 0x653B0, size: 0x8, addend: 0x0, symName: __ZNKSt3__117__compressed_pairIPN5hf3fs17monitor_collector15OperationRecordENS_9allocatorIS3_EEE6secondB8ue170006Ev, symObjAddr: 0x18524, symBinAddr: 0x10001C6F8, symSize: 0x24 }
  - { offsetInCU: 0x4E9C9, offset: 0x653D6, size: 0x8, addend: 0x0, symName: __ZNKSt3__122__compressed_pair_elemINS_9allocatorIN5hf3fs17monitor_collector15OperationRecordEEELi1ELb1EE5__getB8ue170006Ev, symObjAddr: 0x18548, symBinAddr: 0x10001C71C, symSize: 0x14 }
  - { offsetInCU: 0x4E9EF, offset: 0x653FC, size: 0x8, addend: 0x0, symName: __ZNSt3__114__split_bufferIN5hf3fs17monitor_collector15OperationRecordERNS_9allocatorIS3_EEEC2EmmS6_, symObjAddr: 0x1855C, symBinAddr: 0x10001C730, symSize: 0xE0 }
  - { offsetInCU: 0x4EA62, offset: 0x6546F, size: 0x8, addend: 0x0, symName: __ZNSt3__117__compressed_pairIPN5hf3fs17monitor_collector15OperationRecordERNS_9allocatorIS3_EEEC1B8ue170006IDnS7_EEOT_OT0_, symObjAddr: 0x1863C, symBinAddr: 0x10001C810, symSize: 0x3C }
  - { offsetInCU: 0x4EABA, offset: 0x654C7, size: 0x8, addend: 0x0, symName: __ZNSt3__114__split_bufferIN5hf3fs17monitor_collector15OperationRecordERNS_9allocatorIS3_EEE7__allocB8ue170006Ev, symObjAddr: 0x186B8, symBinAddr: 0x10001C88C, symSize: 0x28 }
  - { offsetInCU: 0x4EAE0, offset: 0x654ED, size: 0x8, addend: 0x0, symName: __ZNSt3__114__split_bufferIN5hf3fs17monitor_collector15OperationRecordERNS_9allocatorIS3_EEE9__end_capB8ue170006Ev, symObjAddr: 0x186E0, symBinAddr: 0x10001C8B4, symSize: 0x28 }
  - { offsetInCU: 0x4EB06, offset: 0x65513, size: 0x8, addend: 0x0, symName: __ZNSt3__117__compressed_pairIPN5hf3fs17monitor_collector15OperationRecordERNS_9allocatorIS3_EEEC2B8ue170006IDnS7_EEOT_OT0_, symObjAddr: 0x18708, symBinAddr: 0x10001C8DC, symSize: 0x48 }
  - { offsetInCU: 0x4EB5E, offset: 0x6556B, size: 0x8, addend: 0x0, symName: __ZNSt3__122__compressed_pair_elemIPN5hf3fs17monitor_collector15OperationRecordELi0ELb0EEC2B8ue170006IDnvEEOT_, symObjAddr: 0x18750, symBinAddr: 0x10001C924, symSize: 0x1C }
  - { offsetInCU: 0x4EBA0, offset: 0x655AD, size: 0x8, addend: 0x0, symName: __ZNSt3__122__compressed_pair_elemIRNS_9allocatorIN5hf3fs17monitor_collector15OperationRecordEEELi1ELb0EEC2B8ue170006IS6_vEEOT_, symObjAddr: 0x1876C, symBinAddr: 0x10001C940, symSize: 0x20 }
  - { offsetInCU: 0x4EBE2, offset: 0x655EF, size: 0x8, addend: 0x0, symName: __ZNSt3__19allocatorIN5hf3fs17monitor_collector15OperationRecordEE8allocateB8ue170006Em, symObjAddr: 0x1878C, symBinAddr: 0x10001C960, symSize: 0x5C }
  - { offsetInCU: 0x4EC16, offset: 0x65623, size: 0x8, addend: 0x0, symName: __ZNSt3__117__compressed_pairIPN5hf3fs17monitor_collector15OperationRecordERNS_9allocatorIS3_EEE6secondB8ue170006Ev, symObjAddr: 0x187E8, symBinAddr: 0x10001C9BC, symSize: 0x28 }
  - { offsetInCU: 0x4EC3C, offset: 0x65649, size: 0x8, addend: 0x0, symName: __ZNSt3__122__compressed_pair_elemIRNS_9allocatorIN5hf3fs17monitor_collector15OperationRecordEEELi1ELb0EE5__getB8ue170006Ev, symObjAddr: 0x18810, symBinAddr: 0x10001C9E4, symSize: 0x18 }
  - { offsetInCU: 0x4EC62, offset: 0x6566F, size: 0x8, addend: 0x0, symName: __ZNSt3__117__compressed_pairIPN5hf3fs17monitor_collector15OperationRecordERNS_9allocatorIS3_EEE5firstB8ue170006Ev, symObjAddr: 0x18828, symBinAddr: 0x10001C9FC, symSize: 0x24 }
  - { offsetInCU: 0x4EC88, offset: 0x65695, size: 0x8, addend: 0x0, symName: __ZNSt3__116reverse_iteratorIPN5hf3fs17monitor_collector15OperationRecordEEC1B8ue170006ES4_, symObjAddr: 0x18978, symBinAddr: 0x10001CB4C, symSize: 0x34 }
  - { offsetInCU: 0x4ECC0, offset: 0x656CD, size: 0x8, addend: 0x0, symName: __ZNKSt3__116reverse_iteratorIPN5hf3fs17monitor_collector15OperationRecordEE4baseB8ue170006Ev, symObjAddr: 0x189AC, symBinAddr: 0x10001CB80, symSize: 0x18 }
  - { offsetInCU: 0x4ECE6, offset: 0x656F3, size: 0x8, addend: 0x0, symName: __ZNKSt3__16vectorIN5hf3fs17monitor_collector15OperationRecordENS_9allocatorIS3_EEE14__annotate_newB8ue170006Em, symObjAddr: 0x18A00, symBinAddr: 0x10001CBD4, symSize: 0xC8 }
  - { offsetInCU: 0x4ED1B, offset: 0x65728, size: 0x8, addend: 0x0, symName: __ZNSt3__129_AllocatorDestroyRangeReverseINS_9allocatorIN5hf3fs17monitor_collector15OperationRecordEEENS_16reverse_iteratorIPS4_EEEC1B8ue170006ERS5_RS8_SB_, symObjAddr: 0x18B14, symBinAddr: 0x10001CCE8, symSize: 0x44 }
  - { offsetInCU: 0x4ED78, offset: 0x65785, size: 0x8, addend: 0x0, symName: __ZNSt3__116allocator_traitsINS_9allocatorIN5hf3fs17monitor_collector15OperationRecordEEEE9constructB8ue170006IS4_JS4_EvEEvRS5_PT_DpOT0_, symObjAddr: 0x18BA0, symBinAddr: 0x10001CD74, symSize: 0x34 }
  - { offsetInCU: 0x4EDCF, offset: 0x657DC, size: 0x8, addend: 0x0, symName: __ZNKSt3__116reverse_iteratorIPN5hf3fs17monitor_collector15OperationRecordEEdeB8ue170006Ev, symObjAddr: 0x18BF8, symBinAddr: 0x10001CDCC, symSize: 0x28 }
  - { offsetInCU: 0x4EE03, offset: 0x65810, size: 0x8, addend: 0x0, symName: __ZNSt3__116reverse_iteratorIPN5hf3fs17monitor_collector15OperationRecordEEppB8ue170006Ev, symObjAddr: 0x18C20, symBinAddr: 0x10001CDF4, symSize: 0x20 }
  - { offsetInCU: 0x4EE29, offset: 0x65836, size: 0x8, addend: 0x0, symName: __ZNSt3__128__exception_guard_exceptionsINS_29_AllocatorDestroyRangeReverseINS_9allocatorIN5hf3fs17monitor_collector15OperationRecordEEENS_16reverse_iteratorIPS5_EEEEE10__completeB8ue170006Ev, symObjAddr: 0x18C40, symBinAddr: 0x10001CE14, symSize: 0x1C }
  - { offsetInCU: 0x4EE4F, offset: 0x6585C, size: 0x8, addend: 0x0, symName: __ZNSt3__128__exception_guard_exceptionsINS_29_AllocatorDestroyRangeReverseINS_9allocatorIN5hf3fs17monitor_collector15OperationRecordEEENS_16reverse_iteratorIPS5_EEEEED1B8ue170006Ev, symObjAddr: 0x18C5C, symBinAddr: 0x10001CE30, symSize: 0x2C }
  - { offsetInCU: 0x4EE79, offset: 0x65886, size: 0x8, addend: 0x0, symName: __ZNSt3__128__exception_guard_exceptionsINS_29_AllocatorDestroyRangeReverseINS_9allocatorIN5hf3fs17monitor_collector15OperationRecordEEENS_16reverse_iteratorIPS5_EEEEEC1B8ue170006ESA_, symObjAddr: 0x18C88, symBinAddr: 0x10001CE5C, symSize: 0x34 }
  - { offsetInCU: 0x4EEB2, offset: 0x658BF, size: 0x8, addend: 0x0, symName: __ZNSt3__128__exception_guard_exceptionsINS_29_AllocatorDestroyRangeReverseINS_9allocatorIN5hf3fs17monitor_collector15OperationRecordEEENS_16reverse_iteratorIPS5_EEEEEC2B8ue170006ESA_, symObjAddr: 0x18CBC, symBinAddr: 0x10001CE90, symSize: 0x30 }
  - { offsetInCU: 0x4EEEB, offset: 0x658F8, size: 0x8, addend: 0x0, symName: __ZNSt3__129_AllocatorDestroyRangeReverseINS_9allocatorIN5hf3fs17monitor_collector15OperationRecordEEENS_16reverse_iteratorIPS4_EEEC2B8ue170006ERS5_RS8_SB_, symObjAddr: 0x18CEC, symBinAddr: 0x10001CEC0, symSize: 0x38 }
  - { offsetInCU: 0x4EF42, offset: 0x6594F, size: 0x8, addend: 0x0, symName: __ZNSt3__19allocatorIN5hf3fs17monitor_collector15OperationRecordEE9constructB8ue170006IS3_JS3_EEEvPT_DpOT0_, symObjAddr: 0x18D24, symBinAddr: 0x10001CEF8, symSize: 0x30 }
  - { offsetInCU: 0x4EF98, offset: 0x659A5, size: 0x8, addend: 0x0, symName: __ZN5hf3fs17monitor_collector15OperationRecordC1EOS1_, symObjAddr: 0x18D54, symBinAddr: 0x10001CF28, symSize: 0x34 }
  - { offsetInCU: 0x4EFCE, offset: 0x659DB, size: 0x8, addend: 0x0, symName: __ZN5hf3fs17monitor_collector15OperationRecordC2EOS1_, symObjAddr: 0x18D88, symBinAddr: 0x10001CF5C, symSize: 0x7C }
  - { offsetInCU: 0x4F009, offset: 0x65A16, size: 0x8, addend: 0x0, symName: __ZNSt3__119__to_address_helperINS_16reverse_iteratorIPN5hf3fs17monitor_collector15OperationRecordEEEvE6__callB8ue170006ERKS6_, symObjAddr: 0x18E04, symBinAddr: 0x10001CFD8, symSize: 0x38 }
  - { offsetInCU: 0x4F02C, offset: 0x65A39, size: 0x8, addend: 0x0, symName: __ZNKSt3__116reverse_iteratorIPN5hf3fs17monitor_collector15OperationRecordEEptB8ue170006Ev, symObjAddr: 0x18E3C, symBinAddr: 0x10001D010, symSize: 0x24 }
  - { offsetInCU: 0x4F052, offset: 0x65A5F, size: 0x8, addend: 0x0, symName: __ZNSt3__128__exception_guard_exceptionsINS_29_AllocatorDestroyRangeReverseINS_9allocatorIN5hf3fs17monitor_collector15OperationRecordEEENS_16reverse_iteratorIPS5_EEEEED2B8ue170006Ev, symObjAddr: 0x18E60, symBinAddr: 0x10001D034, symSize: 0x50 }
  - { offsetInCU: 0x4F07C, offset: 0x65A89, size: 0x8, addend: 0x0, symName: __ZNKSt3__129_AllocatorDestroyRangeReverseINS_9allocatorIN5hf3fs17monitor_collector15OperationRecordEEENS_16reverse_iteratorIPS4_EEEclB8ue170006Ev, symObjAddr: 0x18EB0, symBinAddr: 0x10001D084, symSize: 0xB4 }
  - { offsetInCU: 0x4F0A3, offset: 0x65AB0, size: 0x8, addend: 0x0, symName: __ZNSt3__116reverse_iteratorINS0_IPN5hf3fs17monitor_collector15OperationRecordEEEEC1B8ue170006ES5_, symObjAddr: 0x18FD4, symBinAddr: 0x10001D1A8, symSize: 0x3C }
  - { offsetInCU: 0x4F0DB, offset: 0x65AE8, size: 0x8, addend: 0x0, symName: __ZNSt3__116reverse_iteratorINS0_IPN5hf3fs17monitor_collector15OperationRecordEEEEppB8ue170006Ev, symObjAddr: 0x19094, symBinAddr: 0x10001D268, symSize: 0x30 }
  - { offsetInCU: 0x4F101, offset: 0x65B0E, size: 0x8, addend: 0x0, symName: __ZNKSt3__116reverse_iteratorINS0_IPN5hf3fs17monitor_collector15OperationRecordEEEE4baseB8ue170006Ev, symObjAddr: 0x190C4, symBinAddr: 0x10001D298, symSize: 0x24 }
  - { offsetInCU: 0x4F12C, offset: 0x65B39, size: 0x8, addend: 0x0, symName: __ZNSt3__119__to_address_helperINS_16reverse_iteratorINS1_IPN5hf3fs17monitor_collector15OperationRecordEEEEEvE6__callB8ue170006ERKS7_, symObjAddr: 0x190E8, symBinAddr: 0x10001D2BC, symSize: 0x38 }
  - { offsetInCU: 0x4F14F, offset: 0x65B5C, size: 0x8, addend: 0x0, symName: __ZNKSt3__116reverse_iteratorINS0_IPN5hf3fs17monitor_collector15OperationRecordEEEEptB8ue170006Ev, symObjAddr: 0x19120, symBinAddr: 0x10001D2F4, symSize: 0x24 }
  - { offsetInCU: 0x4F175, offset: 0x65B82, size: 0x8, addend: 0x0, symName: __ZNKSt3__116reverse_iteratorINS0_IPN5hf3fs17monitor_collector15OperationRecordEEEEdeB8ue170006Ev, symObjAddr: 0x19144, symBinAddr: 0x10001D318, symSize: 0x34 }
  - { offsetInCU: 0x4F1A9, offset: 0x65BB6, size: 0x8, addend: 0x0, symName: __ZNSt3__116reverse_iteratorIPN5hf3fs17monitor_collector15OperationRecordEEmmB8ue170006Ev, symObjAddr: 0x19178, symBinAddr: 0x10001D34C, symSize: 0x20 }
  - { offsetInCU: 0x4F1CF, offset: 0x65BDC, size: 0x8, addend: 0x0, symName: __ZNSt3__116reverse_iteratorINS0_IPN5hf3fs17monitor_collector15OperationRecordEEEEC2B8ue170006ES5_, symObjAddr: 0x19198, symBinAddr: 0x10001D36C, symSize: 0x2C }
  - { offsetInCU: 0x4F207, offset: 0x65C14, size: 0x8, addend: 0x0, symName: __ZNSt3__116reverse_iteratorIPN5hf3fs17monitor_collector15OperationRecordEEC2B8ue170006ES4_, symObjAddr: 0x191C4, symBinAddr: 0x10001D398, symSize: 0x28 }
  - { offsetInCU: 0x4F23F, offset: 0x65C4C, size: 0x8, addend: 0x0, symName: __ZNSt3__114__split_bufferIN5hf3fs17monitor_collector15OperationRecordERNS_9allocatorIS3_EEED2Ev, symObjAddr: 0x191EC, symBinAddr: 0x10001D3C0, symSize: 0x8C }
  - { offsetInCU: 0x4F26B, offset: 0x65C78, size: 0x8, addend: 0x0, symName: __ZNSt3__114__split_bufferIN5hf3fs17monitor_collector15OperationRecordERNS_9allocatorIS3_EEE5clearB8ue170006Ev, symObjAddr: 0x19278, symBinAddr: 0x10001D44C, symSize: 0x28 }
  - { offsetInCU: 0x4F291, offset: 0x65C9E, size: 0x8, addend: 0x0, symName: __ZNKSt3__114__split_bufferIN5hf3fs17monitor_collector15OperationRecordERNS_9allocatorIS3_EEE8capacityB8ue170006Ev, symObjAddr: 0x192A0, symBinAddr: 0x10001D474, symSize: 0x40 }
  - { offsetInCU: 0x4F2B7, offset: 0x65CC4, size: 0x8, addend: 0x0, symName: __ZNSt3__114__split_bufferIN5hf3fs17monitor_collector15OperationRecordERNS_9allocatorIS3_EEE17__destruct_at_endB8ue170006EPS3_, symObjAddr: 0x192E0, symBinAddr: 0x10001D4B4, symSize: 0x2C }
  - { offsetInCU: 0x4F2EB, offset: 0x65CF8, size: 0x8, addend: 0x0, symName: __ZNSt3__114__split_bufferIN5hf3fs17monitor_collector15OperationRecordERNS_9allocatorIS3_EEE17__destruct_at_endB8ue170006EPS3_NS_17integral_constantIbLb0EEE, symObjAddr: 0x1930C, symBinAddr: 0x10001D4E0, symSize: 0x80 }
  - { offsetInCU: 0x4F32C, offset: 0x65D39, size: 0x8, addend: 0x0, symName: __ZNKSt3__114__split_bufferIN5hf3fs17monitor_collector15OperationRecordERNS_9allocatorIS3_EEE9__end_capB8ue170006Ev, symObjAddr: 0x1938C, symBinAddr: 0x10001D560, symSize: 0x28 }
  - { offsetInCU: 0x4F352, offset: 0x65D5F, size: 0x8, addend: 0x0, symName: __ZNKSt3__117__compressed_pairIPN5hf3fs17monitor_collector15OperationRecordERNS_9allocatorIS3_EEE5firstB8ue170006Ev, symObjAddr: 0x193B4, symBinAddr: 0x10001D588, symSize: 0x24 }
  - { offsetInCU: 0x4F378, offset: 0x65D85, size: 0x8, addend: 0x0, symName: __ZNSt3__16vectorIN5hf3fs17monitor_collector15OperationRecordENS_9allocatorIS3_EEE17__destruct_at_endB8ue170006EPS3_, symObjAddr: 0x19420, symBinAddr: 0x10001D5F4, symSize: 0x4C }
  - { offsetInCU: 0x4F3BC, offset: 0x65DC9, size: 0x8, addend: 0x0, symName: __ZNKSt3__16vectorIN5hf3fs17monitor_collector15OperationRecordENS_9allocatorIS3_EEE17__annotate_shrinkB8ue170006Em, symObjAddr: 0x194F4, symBinAddr: 0x10001D6C8, symSize: 0xD0 }
  - { offsetInCU: 0x4F415, offset: 0x65E22, size: 0x8, addend: 0x0, symName: __ZNKSt3__111__move_loopINS_17_ClassicAlgPolicyEEclB8ue170006IPN5hf3fs17monitor_collector15OperationRecordES7_S7_EENS_4pairIT_T1_EES9_T0_SA_, symObjAddr: 0x19760, symBinAddr: 0x10001D934, symSize: 0x90 }
  - { offsetInCU: 0x4F480, offset: 0x65E8D, size: 0x8, addend: 0x0, symName: __ZNSt3__18_IterOpsINS_17_ClassicAlgPolicyEE11__iter_moveB8ue170006IRPN5hf3fs17monitor_collector15OperationRecordEEENS_9enable_ifIXsr12is_referenceIDTdeclsr3stdE7declvalIRT_EEEEE5valueEDTclsr3stdE4movedeclsr3stdE7declvalISB_EEEEE4typeEOSA_, symObjAddr: 0x198B4, symBinAddr: 0x10001DA88, symSize: 0x28 }
  - { offsetInCU: 0x4F4AC, offset: 0x65EB9, size: 0x8, addend: 0x0, symName: __ZN5hf3fs17monitor_collector15OperationRecordaSEOS1_, symObjAddr: 0x198DC, symBinAddr: 0x10001DAB0, symSize: 0x7C }
  - { offsetInCU: 0x4F4DE, offset: 0x65EEB, size: 0x8, addend: 0x0, symName: __ZNSt3__18_IterOpsINS_17_ClassicAlgPolicyEE25__validate_iter_referenceB8ue170006IRPN5hf3fs17monitor_collector15OperationRecordEEEvv, symObjAddr: 0x19958, symBinAddr: 0x10001DB2C, symSize: 0x4 }
  - { offsetInCU: 0x4F4FC, offset: 0x65F09, size: 0x8, addend: 0x0, symName: __ZNSt3__118__unwrap_iter_implIPN5hf3fs17monitor_collector15OperationRecordELb1EE8__unwrapB8ue170006ES4_, symObjAddr: 0x1995C, symBinAddr: 0x10001DB30, symSize: 0x24 }
  - { offsetInCU: 0x4F525, offset: 0x65F32, size: 0x8, addend: 0x0, symName: __ZNSt3__14pairIPN5hf3fs17monitor_collector15OperationRecordES4_EC1B8ue170006IS4_S4_LPv0EEEOT_OT0_, symObjAddr: 0x19980, symBinAddr: 0x10001DB54, symSize: 0x3C }
  - { offsetInCU: 0x4F583, offset: 0x65F90, size: 0x8, addend: 0x0, symName: __ZNSt3__14pairIPN5hf3fs17monitor_collector15OperationRecordES4_EC2B8ue170006IS4_S4_LPv0EEEOT_OT0_, symObjAddr: 0x199BC, symBinAddr: 0x10001DB90, symSize: 0x34 }
  - { offsetInCU: 0x4F5E1, offset: 0x65FEE, size: 0x8, addend: 0x0, symName: __ZNSt3__118__unwrap_iter_implIPN5hf3fs17monitor_collector15OperationRecordELb1EE8__rewrapB8ue170006ES4_S4_, symObjAddr: 0x199F0, symBinAddr: 0x10001DBC4, symSize: 0x58 }
  - { offsetInCU: 0x4F612, offset: 0x6601F, size: 0x8, addend: 0x0, symName: __ZNSt3__111__wrap_iterIPKN5hf3fs17monitor_collector15OperationRecordEEC2B8ue170006IPS3_EERKNS0_IT_EEPNS_9enable_ifIXsr14is_convertibleIS9_S5_EE5valueEvE4typeE, symObjAddr: 0x19A48, symBinAddr: 0x10001DC1C, symSize: 0x40 }
  - { offsetInCU: 0x4F65E, offset: 0x6606B, size: 0x8, addend: 0x0, symName: __ZNSt3__111__wrap_iterIPN5hf3fs17monitor_collector15OperationRecordEEpLB8ue170006El, symObjAddr: 0x19A88, symBinAddr: 0x10001DC5C, symSize: 0x30 }
  - { offsetInCU: 0x4F692, offset: 0x6609F, size: 0x8, addend: 0x0, symName: __ZNKSt3__110__function12__value_funcIFNS_6vectorIN5hf3fs17monitor_collector15OperationRecordENS_9allocatorIS5_EEEEvEEclB8ue170006Ev, symObjAddr: 0x19AB8, symBinAddr: 0x10001DC8C, symSize: 0x5C }
  - { offsetInCU: 0x4F6BD, offset: 0x660CA, size: 0x8, addend: 0x0, symName: __ZNSt3__117bad_function_callC1Ev, symObjAddr: 0x19B4C, symBinAddr: 0x10001DD20, symSize: 0x2C }
  - { offsetInCU: 0x4F6E9, offset: 0x660F6, size: 0x8, addend: 0x0, symName: __ZNSt3__117bad_function_callD1Ev, symObjAddr: 0x19B78, symBinAddr: 0x10001DD4C, symSize: 0x2C }
  - { offsetInCU: 0x4F713, offset: 0x66120, size: 0x8, addend: 0x0, symName: __ZNSt3__117bad_function_callC2Ev, symObjAddr: 0x19BA4, symBinAddr: 0x10001DD78, symSize: 0x44 }
  - { offsetInCU: 0x4F73F, offset: 0x6614C, size: 0x8, addend: 0x0, symName: __ZNSt9exceptionC2B8ue170006Ev, symObjAddr: 0x19BE8, symBinAddr: 0x10001DDBC, symSize: 0x24 }
  - { offsetInCU: 0x4F769, offset: 0x66176, size: 0x8, addend: 0x0, symName: __ZNSt3__117bad_function_callD0Ev, symObjAddr: 0x19C0C, symBinAddr: 0x10001DDE0, symSize: 0x30 }
  - { offsetInCU: 0x4F793, offset: 0x661A0, size: 0x8, addend: 0x0, symName: __ZNSt3__117bad_function_callD2Ev, symObjAddr: 0x19C3C, symBinAddr: 0x10001DE10, symSize: 0x2C }
  - { offsetInCU: 0x4F7BD, offset: 0x661CA, size: 0x8, addend: 0x0, symName: __ZNSt3__112__hash_tableINS_17__hash_value_typeIyNS_6vectorIN5hf3fs17monitor_collector15OperationRecordENS_9allocatorIS5_EEEEEENS_22__unordered_map_hasherIyS9_NS_4hashIyEENS_8equal_toIyEELb1EEENS_21__unordered_map_equalIyS9_SE_SC_Lb1EEENS6_IS9_EEE25__emplace_unique_key_argsIyJRKNS_21piecewise_construct_tENS_5tupleIJRKyEEENSO_IJEEEEEENS_4pairINS_15__hash_iteratorIPNS_11__hash_nodeIS9_PvEEEEbEERKT_DpOT0_, symObjAddr: 0x19C68, symBinAddr: 0x10001DE3C, symSize: 0x4B0 }
  - { offsetInCU: 0x4F8C7, offset: 0x662D4, size: 0x8, addend: 0x0, symName: __ZNKSt3__115__hash_iteratorIPNS_11__hash_nodeINS_17__hash_value_typeIyNS_6vectorIN5hf3fs17monitor_collector15OperationRecordENS_9allocatorIS6_EEEEEEPvEEEptB8ue170006Ev, symObjAddr: 0x1A144, symBinAddr: 0x10001E318, symSize: 0x30 }
  - { offsetInCU: 0x4F8ED, offset: 0x662FA, size: 0x8, addend: 0x0, symName: __ZNSt3__112__hash_tableINS_17__hash_value_typeIyNS_6vectorIN5hf3fs17monitor_collector15OperationRecordENS_9allocatorIS5_EEEEEENS_22__unordered_map_hasherIyS9_NS_4hashIyEENS_8equal_toIyEELb1EEENS_21__unordered_map_equalIyS9_SE_SC_Lb1EEENS6_IS9_EEE21__construct_node_hashIRKNS_21piecewise_construct_tEJNS_5tupleIJRKyEEENSO_IJEEEEEENS_10unique_ptrINS_11__hash_nodeIS9_PvEENS_22__hash_node_destructorINS6_ISW_EEEEEEmOT_DpOT0_, symObjAddr: 0x1A174, symBinAddr: 0x10001E348, symSize: 0x150 }
  - { offsetInCU: 0x4F989, offset: 0x66396, size: 0x8, addend: 0x0, symName: __ZNSt3__112__hash_tableINS_17__hash_value_typeIyNS_6vectorIN5hf3fs17monitor_collector15OperationRecordENS_9allocatorIS5_EEEEEENS_22__unordered_map_hasherIyS9_NS_4hashIyEENS_8equal_toIyEELb1EEENS_21__unordered_map_equalIyS9_SE_SC_Lb1EEENS6_IS9_EEE4sizeB8ue170006Ev, symObjAddr: 0x1A2C4, symBinAddr: 0x10001E498, symSize: 0x28 }
  - { offsetInCU: 0x4F9AF, offset: 0x663BC, size: 0x8, addend: 0x0, symName: __ZNSt3__112__hash_tableINS_17__hash_value_typeIyNS_6vectorIN5hf3fs17monitor_collector15OperationRecordENS_9allocatorIS5_EEEEEENS_22__unordered_map_hasherIyS9_NS_4hashIyEENS_8equal_toIyEELb1EEENS_21__unordered_map_equalIyS9_SE_SC_Lb1EEENS6_IS9_EEE15max_load_factorB8ue170006Ev, symObjAddr: 0x1A2EC, symBinAddr: 0x10001E4C0, symSize: 0x28 }
  - { offsetInCU: 0x4F9D5, offset: 0x663E2, size: 0x8, addend: 0x0, symName: __ZNSt3__112__hash_tableINS_17__hash_value_typeIyNS_6vectorIN5hf3fs17monitor_collector15OperationRecordENS_9allocatorIS5_EEEEEENS_22__unordered_map_hasherIyS9_NS_4hashIyEENS_8equal_toIyEELb1EEENS_21__unordered_map_equalIyS9_SE_SC_Lb1EEENS6_IS9_EEE15__rehash_uniqueB8ue170006Em, symObjAddr: 0x1A314, symBinAddr: 0x10001E4E8, symSize: 0x2C }
  - { offsetInCU: 0x4FA0A, offset: 0x66417, size: 0x8, addend: 0x0, symName: __ZNSt3__116__hash_node_baseIPNS_11__hash_nodeINS_17__hash_value_typeIyNS_6vectorIN5hf3fs17monitor_collector15OperationRecordENS_9allocatorIS6_EEEEEEPvEEE5__ptrB8ue170006Ev, symObjAddr: 0x1A340, symBinAddr: 0x10001E514, symSize: 0x24 }
  - { offsetInCU: 0x4FA30, offset: 0x6643D, size: 0x8, addend: 0x0, symName: __ZNKSt3__110unique_ptrINS_11__hash_nodeINS_17__hash_value_typeIyNS_6vectorIN5hf3fs17monitor_collector15OperationRecordENS_9allocatorIS6_EEEEEEPvEENS_22__hash_node_destructorINS7_ISC_EEEEEptB8ue170006Ev, symObjAddr: 0x1A364, symBinAddr: 0x10001E538, symSize: 0x28 }
  - { offsetInCU: 0x4FA56, offset: 0x66463, size: 0x8, addend: 0x0, symName: __ZNKSt3__110unique_ptrINS_11__hash_nodeINS_17__hash_value_typeIyNS_6vectorIN5hf3fs17monitor_collector15OperationRecordENS_9allocatorIS6_EEEEEEPvEENS_22__hash_node_destructorINS7_ISC_EEEEE3getB8ue170006Ev, symObjAddr: 0x1A38C, symBinAddr: 0x10001E560, symSize: 0x28 }
  - { offsetInCU: 0x4FA7C, offset: 0x66489, size: 0x8, addend: 0x0, symName: __ZNSt3__110unique_ptrINS_11__hash_nodeINS_17__hash_value_typeIyNS_6vectorIN5hf3fs17monitor_collector15OperationRecordENS_9allocatorIS6_EEEEEEPvEENS_22__hash_node_destructorINS7_ISC_EEEEE7releaseB8ue170006Ev, symObjAddr: 0x1A3B4, symBinAddr: 0x10001E588, symSize: 0x44 }
  - { offsetInCU: 0x4FAB1, offset: 0x664BE, size: 0x8, addend: 0x0, symName: __ZNSt3__110unique_ptrINS_11__hash_nodeINS_17__hash_value_typeIyNS_6vectorIN5hf3fs17monitor_collector15OperationRecordENS_9allocatorIS6_EEEEEEPvEENS_22__hash_node_destructorINS7_ISC_EEEEED1B8ue170006Ev, symObjAddr: 0x1A3F8, symBinAddr: 0x10001E5CC, symSize: 0x2C }
  - { offsetInCU: 0x4FAE1, offset: 0x664EE, size: 0x8, addend: 0x0, symName: __ZNSt3__14pairINS_15__hash_iteratorIPNS_11__hash_nodeINS_17__hash_value_typeIyNS_6vectorIN5hf3fs17monitor_collector15OperationRecordENS_9allocatorIS7_EEEEEEPvEEEEbEC1B8ue170006ISF_RbLSC_0EEEOT_OT0_, symObjAddr: 0x1A424, symBinAddr: 0x10001E5F8, symSize: 0x3C }
  - { offsetInCU: 0x4FB3F, offset: 0x6654C, size: 0x8, addend: 0x0, symName: __ZNSt3__116allocator_traitsINS_9allocatorINS_11__hash_nodeINS_17__hash_value_typeIyNS_6vectorIN5hf3fs17monitor_collector15OperationRecordENS1_IS7_EEEEEEPvEEEEE8allocateB8ue170006ERSD_m, symObjAddr: 0x1A460, symBinAddr: 0x10001E634, symSize: 0x2C }
  - { offsetInCU: 0x4FB72, offset: 0x6657F, size: 0x8, addend: 0x0, symName: __ZNSt3__122__hash_node_destructorINS_9allocatorINS_11__hash_nodeINS_17__hash_value_typeIyNS_6vectorIN5hf3fs17monitor_collector15OperationRecordENS1_IS7_EEEEEEPvEEEEEC1B8ue170006ERSD_b, symObjAddr: 0x1A48C, symBinAddr: 0x10001E660, symSize: 0x48 }
  - { offsetInCU: 0x4FBC0, offset: 0x665CD, size: 0x8, addend: 0x0, symName: __ZNSt3__110unique_ptrINS_11__hash_nodeINS_17__hash_value_typeIyNS_6vectorIN5hf3fs17monitor_collector15OperationRecordENS_9allocatorIS6_EEEEEEPvEENS_22__hash_node_destructorINS7_ISC_EEEEEC1B8ue170006ILb1EvEEPSC_NS_16__dependent_typeINS_27__unique_ptr_deleter_sfinaeISF_EEXT_EE20__good_rval_ref_typeE, symObjAddr: 0x1A4D4, symBinAddr: 0x10001E6A8, symSize: 0x3C }
  - { offsetInCU: 0x4FC11, offset: 0x6661E, size: 0x8, addend: 0x0, symName: __ZNSt3__116allocator_traitsINS_9allocatorINS_11__hash_nodeINS_17__hash_value_typeIyNS_6vectorIN5hf3fs17monitor_collector15OperationRecordENS1_IS7_EEEEEEPvEEEEE9constructB8ue170006INS_4pairIKyS9_EEJRKNS_21piecewise_construct_tENS_5tupleIJRSH_EEENSM_IJEEEEvEEvRSD_PT_DpOT0_, symObjAddr: 0x1A510, symBinAddr: 0x10001E6E4, symSize: 0x44 }
  - { offsetInCU: 0x4FC90, offset: 0x6669D, size: 0x8, addend: 0x0, symName: __ZNSt3__110unique_ptrINS_11__hash_nodeINS_17__hash_value_typeIyNS_6vectorIN5hf3fs17monitor_collector15OperationRecordENS_9allocatorIS6_EEEEEEPvEENS_22__hash_node_destructorINS7_ISC_EEEEE11get_deleterB8ue170006Ev, symObjAddr: 0x1A554, symBinAddr: 0x10001E728, symSize: 0x24 }
  - { offsetInCU: 0x4FCB6, offset: 0x666C3, size: 0x8, addend: 0x0, symName: __ZNSt3__19allocatorINS_11__hash_nodeINS_17__hash_value_typeIyNS_6vectorIN5hf3fs17monitor_collector15OperationRecordENS0_IS6_EEEEEEPvEEE8allocateB8ue170006Em, symObjAddr: 0x1A578, symBinAddr: 0x10001E74C, symSize: 0x5C }
  - { offsetInCU: 0x4FCF4, offset: 0x66701, size: 0x8, addend: 0x0, symName: __ZNSt3__116allocator_traitsINS_9allocatorINS_11__hash_nodeINS_17__hash_value_typeIyNS_6vectorIN5hf3fs17monitor_collector15OperationRecordENS1_IS7_EEEEEEPvEEEEE8max_sizeB8ue170006ISD_vEEmRKSD_, symObjAddr: 0x1A5D4, symBinAddr: 0x10001E7A8, symSize: 0x24 }
  - { offsetInCU: 0x4FD22, offset: 0x6672F, size: 0x8, addend: 0x0, symName: __ZNKSt3__19allocatorINS_11__hash_nodeINS_17__hash_value_typeIyNS_6vectorIN5hf3fs17monitor_collector15OperationRecordENS0_IS6_EEEEEEPvEEE8max_sizeB8ue170006Ev, symObjAddr: 0x1A5F8, symBinAddr: 0x10001E7CC, symSize: 0x18 }
  - { offsetInCU: 0x4FD48, offset: 0x66755, size: 0x8, addend: 0x0, symName: __ZNSt3__122__hash_node_destructorINS_9allocatorINS_11__hash_nodeINS_17__hash_value_typeIyNS_6vectorIN5hf3fs17monitor_collector15OperationRecordENS1_IS7_EEEEEEPvEEEEEC2B8ue170006ERSD_b, symObjAddr: 0x1A610, symBinAddr: 0x10001E7E4, symSize: 0x38 }
  - { offsetInCU: 0x4FD90, offset: 0x6679D, size: 0x8, addend: 0x0, symName: __ZNSt3__110unique_ptrINS_11__hash_nodeINS_17__hash_value_typeIyNS_6vectorIN5hf3fs17monitor_collector15OperationRecordENS_9allocatorIS6_EEEEEEPvEENS_22__hash_node_destructorINS7_ISC_EEEEEC2B8ue170006ILb1EvEEPSC_NS_16__dependent_typeINS_27__unique_ptr_deleter_sfinaeISF_EEXT_EE20__good_rval_ref_typeE, symObjAddr: 0x1A648, symBinAddr: 0x10001E81C, symSize: 0x48 }
  - { offsetInCU: 0x4FDE1, offset: 0x667EE, size: 0x8, addend: 0x0, symName: __ZNSt3__117__compressed_pairIPNS_11__hash_nodeINS_17__hash_value_typeIyNS_6vectorIN5hf3fs17monitor_collector15OperationRecordENS_9allocatorIS6_EEEEEEPvEENS_22__hash_node_destructorINS7_ISC_EEEEEC1B8ue170006IRSD_SG_EEOT_OT0_, symObjAddr: 0x1A690, symBinAddr: 0x10001E864, symSize: 0x3C }
  - { offsetInCU: 0x4FE39, offset: 0x66846, size: 0x8, addend: 0x0, symName: __ZNSt3__117__compressed_pairIPNS_11__hash_nodeINS_17__hash_value_typeIyNS_6vectorIN5hf3fs17monitor_collector15OperationRecordENS_9allocatorIS6_EEEEEEPvEENS_22__hash_node_destructorINS7_ISC_EEEEEC2B8ue170006IRSD_SG_EEOT_OT0_, symObjAddr: 0x1A6CC, symBinAddr: 0x10001E8A0, symSize: 0x48 }
  - { offsetInCU: 0x4FE91, offset: 0x6689E, size: 0x8, addend: 0x0, symName: __ZNSt3__122__compressed_pair_elemIPNS_11__hash_nodeINS_17__hash_value_typeIyNS_6vectorIN5hf3fs17monitor_collector15OperationRecordENS_9allocatorIS6_EEEEEEPvEELi0ELb0EEC2B8ue170006IRSD_vEEOT_, symObjAddr: 0x1A714, symBinAddr: 0x10001E8E8, symSize: 0x24 }
  - { offsetInCU: 0x4FED3, offset: 0x668E0, size: 0x8, addend: 0x0, symName: __ZNSt3__122__compressed_pair_elemINS_22__hash_node_destructorINS_9allocatorINS_11__hash_nodeINS_17__hash_value_typeIyNS_6vectorIN5hf3fs17monitor_collector15OperationRecordENS2_IS8_EEEEEEPvEEEEEELi1ELb0EEC2B8ue170006ISF_vEEOT_, symObjAddr: 0x1A738, symBinAddr: 0x10001E90C, symSize: 0x24 }
  - { offsetInCU: 0x4FF15, offset: 0x66922, size: 0x8, addend: 0x0, symName: __ZNSt3__19allocatorINS_11__hash_nodeINS_17__hash_value_typeIyNS_6vectorIN5hf3fs17monitor_collector15OperationRecordENS0_IS6_EEEEEEPvEEE9constructB8ue170006INS_4pairIKyS8_EEJRKNS_21piecewise_construct_tENS_5tupleIJRSF_EEENSK_IJEEEEEEvPT_DpOT0_, symObjAddr: 0x1A75C, symBinAddr: 0x10001E930, symSize: 0x44 }
  - { offsetInCU: 0x4FF91, offset: 0x6699E, size: 0x8, addend: 0x0, symName: __ZNSt3__14pairIKyNS_6vectorIN5hf3fs17monitor_collector15OperationRecordENS_9allocatorIS5_EEEEEC1B8ue170006IJRS1_EJEEENS_21piecewise_construct_tENS_5tupleIJDpT_EEENSD_IJDpT0_EEE, symObjAddr: 0x1A7A0, symBinAddr: 0x10001E974, symSize: 0x44 }
  - { offsetInCU: 0x4FFF8, offset: 0x66A05, size: 0x8, addend: 0x0, symName: __ZNSt3__14pairIKyNS_6vectorIN5hf3fs17monitor_collector15OperationRecordENS_9allocatorIS5_EEEEEC1B8ue170006IJRS1_EJEJLm0EEJEEENS_21piecewise_construct_tERNS_5tupleIJDpT_EEERNSD_IJDpT0_EEENS_15__tuple_indicesIJXspT1_EEEENSM_IJXspT2_EEEE, symObjAddr: 0x1A7E4, symBinAddr: 0x10001E9B8, symSize: 0x3C }
  - { offsetInCU: 0x50088, offset: 0x66A95, size: 0x8, addend: 0x0, symName: __ZNSt3__14pairIKyNS_6vectorIN5hf3fs17monitor_collector15OperationRecordENS_9allocatorIS5_EEEEEC2B8ue170006IJRS1_EJEJLm0EEJEEENS_21piecewise_construct_tERNS_5tupleIJDpT_EEERNSD_IJDpT0_EEENS_15__tuple_indicesIJXspT1_EEEENSM_IJXspT2_EEEE, symObjAddr: 0x1A820, symBinAddr: 0x10001E9F4, symSize: 0x4C }
  - { offsetInCU: 0x50118, offset: 0x66B25, size: 0x8, addend: 0x0, symName: __ZNSt3__16vectorIN5hf3fs17monitor_collector15OperationRecordENS_9allocatorIS3_EEEC1B8ue170006Ev, symObjAddr: 0x1A890, symBinAddr: 0x10001EA64, symSize: 0x2C }
  - { offsetInCU: 0x50142, offset: 0x66B4F, size: 0x8, addend: 0x0, symName: __ZNSt3__112__tuple_leafILm0ERKyLb0EE3getB8ue170006Ev, symObjAddr: 0x1A8BC, symBinAddr: 0x10001EA90, symSize: 0x18 }
  - { offsetInCU: 0x50168, offset: 0x66B75, size: 0x8, addend: 0x0, symName: __ZNSt3__16vectorIN5hf3fs17monitor_collector15OperationRecordENS_9allocatorIS3_EEEC2B8ue170006Ev, symObjAddr: 0x1A8D4, symBinAddr: 0x10001EAA8, symSize: 0x4C }
