---
triple:          'arm64-apple-darwin'
binary-path:     gtest_ml_workload_analytics
relocations:
  - { offsetInCU: 0x4C, offset: 0x4C, size: 0x8, addend: 0x0, symName: __ZN53MLWorkloadAnalyticsTest_DetectsSequentialPattern_Test10test_info_E, symObjAddr: 0xBE638, symBinAddr: 0x100080008, symSize: 0x0 }
  - { offsetInCU: 0x5AA, offset: 0x5AA, size: 0x8, addend: 0x0, symName: __ZN7testing8internal12TypeIdHelperI23MLWorkloadAnalyticsTestE6dummy_E, symObjAddr: 0x1035C, symBinAddr: 0x100080000, symSize: 0x0 }
  - { offsetInCU: 0x5FE, offset: 0x5FE, size: 0x8, addend: 0x0, symName: __ZN7testing8internal9GetTypeIdI23MLWorkloadAnalyticsTestEEPKvv, symObjAddr: 0x70, symBinAddr: 0x100002184, symSize: 0xC }
  - { offsetInCU: 0x702, offset: 0x702, size: 0x8, addend: 0x0, symName: __ZN7testing8internal11CmpHelperGTIyyEENS_15AssertionResultEPKcS4_RKT_RKT0_, symObjAddr: 0xCC0, symBinAddr: 0x100002DD4, symSize: 0x80 }
  - { offsetInCU: 0xB18, offset: 0xB18, size: 0x8, addend: 0x0, symName: __ZN7testing8internal11CmpHelperGEImjEENS_15AssertionResultEPKcS4_RKT_RKT0_, symObjAddr: 0x3D34, symBinAddr: 0x100005E48, symSize: 0x80 }
  - { offsetInCU: 0xB85, offset: 0xB85, size: 0x8, addend: 0x0, symName: __ZN7testing8internal19GetNotDefaultOrNullEPFvvES2_, symObjAddr: 0x9358, symBinAddr: 0x10000B46C, symSize: 0x48 }
  - { offsetInCU: 0xC4C, offset: 0xC4C, size: 0x8, addend: 0x0, symName: __ZN7testing8internal18CmpHelperOpFailureIyyEENS_15AssertionResultEPKcS4_RKT_RKT0_S4_, symObjAddr: 0x9598, symBinAddr: 0x10000B6AC, symSize: 0x1C4 }
  - { offsetInCU: 0xCC8, offset: 0xCC8, size: 0x8, addend: 0x0, symName: __ZN7testing8internal33FormatForComparisonFailureMessageIyyEENSt3__112basic_stringIcNS2_11char_traitsIcEENS2_9allocatorIcEEEERKT_RKT0_, symObjAddr: 0x996C, symBinAddr: 0x10000BA80, symSize: 0x30 }
  - { offsetInCU: 0xD73, offset: 0xD73, size: 0x8, addend: 0x0, symName: __ZN7testing8internal14UniversalPrintIyEEvRKT_PNSt3__113basic_ostreamIcNS5_11char_traitsIcEEEE, symObjAddr: 0xA368, symBinAddr: 0x10000C47C, symSize: 0x2C }
  - { offsetInCU: 0xDDF, offset: 0xDDF, size: 0x8, addend: 0x0, symName: __ZN7testing8internal7PrintToIyEEvRKT_PNSt3__113basic_ostreamIcNS5_11char_traitsIcEEEE, symObjAddr: 0xA3C0, symBinAddr: 0x10000C4D4, symSize: 0x2C }
  - { offsetInCU: 0xE21, offset: 0xE21, size: 0x8, addend: 0x0, symName: __ZN7testing8internal17PrintWithFallbackIyEEvRKT_PNSt3__113basic_ostreamIcNS5_11char_traitsIcEEEE, symObjAddr: 0xA3EC, symBinAddr: 0x10000C500, symSize: 0x2C }
  - { offsetInCU: 0xED3, offset: 0xED3, size: 0x8, addend: 0x0, symName: __ZN7testing8internal11CmpHelperEQIyjEENS_15AssertionResultEPKcS4_RKT_RKT0_, symObjAddr: 0xA5A8, symBinAddr: 0x10000C6BC, symSize: 0x78 }
  - { offsetInCU: 0xF40, offset: 0xF40, size: 0x8, addend: 0x0, symName: __ZN7testing8internal18CmpHelperEQFailureIyjEENS_15AssertionResultEPKcS4_RKT_RKT0_, symObjAddr: 0xA620, symBinAddr: 0x10000C734, symSize: 0xD4 }
  - { offsetInCU: 0xFAD, offset: 0xFAD, size: 0x8, addend: 0x0, symName: __ZN7testing8internal33FormatForComparisonFailureMessageIyjEENSt3__112basic_stringIcNS2_11char_traitsIcEENS2_9allocatorIcEEEERKT_RKT0_, symObjAddr: 0xA6F4, symBinAddr: 0x10000C808, symSize: 0x30 }
  - { offsetInCU: 0xFF8, offset: 0xFF8, size: 0x8, addend: 0x0, symName: __ZN7testing8internal33FormatForComparisonFailureMessageIjyEENSt3__112basic_stringIcNS2_11char_traitsIcEENS2_9allocatorIcEEEERKT_RKT0_, symObjAddr: 0xA724, symBinAddr: 0x10000C838, symSize: 0x30 }
  - { offsetInCU: 0x10D7, offset: 0x10D7, size: 0x8, addend: 0x0, symName: __ZN7testing8internal14UniversalPrintIjEEvRKT_PNSt3__113basic_ostreamIcNS5_11char_traitsIcEEEE, symObjAddr: 0xA8A0, symBinAddr: 0x10000C9B4, symSize: 0x2C }
  - { offsetInCU: 0x1143, offset: 0x1143, size: 0x8, addend: 0x0, symName: __ZN7testing8internal7PrintToIjEEvRKT_PNSt3__113basic_ostreamIcNS5_11char_traitsIcEEEE, symObjAddr: 0xA8F8, symBinAddr: 0x10000CA0C, symSize: 0x2C }
  - { offsetInCU: 0x1185, offset: 0x1185, size: 0x8, addend: 0x0, symName: __ZN7testing8internal17PrintWithFallbackIjEEvRKT_PNSt3__113basic_ostreamIcNS5_11char_traitsIcEEEE, symObjAddr: 0xA924, symBinAddr: 0x10000CA38, symSize: 0x2C }
  - { offsetInCU: 0x11C7, offset: 0x11C7, size: 0x8, addend: 0x0, symName: __ZN7testing8internal11CmpHelperEQIccEENS_15AssertionResultEPKcS4_RKT_RKT0_, symObjAddr: 0xA9C8, symBinAddr: 0x10000CADC, symSize: 0x78 }
  - { offsetInCU: 0x1234, offset: 0x1234, size: 0x8, addend: 0x0, symName: __ZN7testing8internal18CmpHelperEQFailureIccEENS_15AssertionResultEPKcS4_RKT_RKT0_, symObjAddr: 0xAA40, symBinAddr: 0x10000CB54, symSize: 0xD4 }
  - { offsetInCU: 0x12A1, offset: 0x12A1, size: 0x8, addend: 0x0, symName: __ZN7testing8internal33FormatForComparisonFailureMessageIccEENSt3__112basic_stringIcNS2_11char_traitsIcEENS2_9allocatorIcEEEERKT_RKT0_, symObjAddr: 0xAB14, symBinAddr: 0x10000CC28, symSize: 0x30 }
  - { offsetInCU: 0x134C, offset: 0x134C, size: 0x8, addend: 0x0, symName: __ZN7testing8internal14UniversalPrintIcEEvRKT_PNSt3__113basic_ostreamIcNS5_11char_traitsIcEEEE, symObjAddr: 0xAC64, symBinAddr: 0x10000CD78, symSize: 0x2C }
  - { offsetInCU: 0x13B8, offset: 0x13B8, size: 0x8, addend: 0x0, symName: __ZN7testing8internal7PrintToEcPNSt3__113basic_ostreamIcNS1_11char_traitsIcEEEE, symObjAddr: 0xACC0, symBinAddr: 0x10000CDD4, symSize: 0x2C }
  - { offsetInCU: 0x13F1, offset: 0x13F1, size: 0x8, addend: 0x0, symName: __ZN7testing8internal18CmpHelperOpFailureImjEENS_15AssertionResultEPKcS4_RKT_RKT0_S4_, symObjAddr: 0xB884, symBinAddr: 0x10000D998, symSize: 0x1C4 }
  - { offsetInCU: 0x146D, offset: 0x146D, size: 0x8, addend: 0x0, symName: __ZN7testing8internal33FormatForComparisonFailureMessageImjEENSt3__112basic_stringIcNS2_11char_traitsIcEENS2_9allocatorIcEEEERKT_RKT0_, symObjAddr: 0xBA48, symBinAddr: 0x10000DB5C, symSize: 0x30 }
  - { offsetInCU: 0x14B8, offset: 0x14B8, size: 0x8, addend: 0x0, symName: __ZN7testing8internal33FormatForComparisonFailureMessageIjmEENSt3__112basic_stringIcNS2_11char_traitsIcEENS2_9allocatorIcEEEERKT_RKT0_, symObjAddr: 0xBA78, symBinAddr: 0x10000DB8C, symSize: 0x30 }
  - { offsetInCU: 0x1563, offset: 0x1563, size: 0x8, addend: 0x0, symName: __ZN7testing8internal14UniversalPrintImEEvRKT_PNSt3__113basic_ostreamIcNS5_11char_traitsIcEEEE, symObjAddr: 0xBBC8, symBinAddr: 0x10000DCDC, symSize: 0x2C }
  - { offsetInCU: 0x15CF, offset: 0x15CF, size: 0x8, addend: 0x0, symName: __ZN7testing8internal7PrintToImEEvRKT_PNSt3__113basic_ostreamIcNS5_11char_traitsIcEEEE, symObjAddr: 0xBC20, symBinAddr: 0x10000DD34, symSize: 0x2C }
  - { offsetInCU: 0x1611, offset: 0x1611, size: 0x8, addend: 0x0, symName: __ZN7testing8internal17PrintWithFallbackImEEvRKT_PNSt3__113basic_ostreamIcNS5_11char_traitsIcEEEE, symObjAddr: 0xBC4C, symBinAddr: 0x10000DD60, symSize: 0x2C }
  - { offsetInCU: 0x2234, offset: 0x2234, size: 0x8, addend: 0x0, symName: __ZN7testing13PrintToStringIyEENSt3__112basic_stringIcNS1_11char_traitsIcEENS1_9allocatorIcEEEERKT_, symObjAddr: 0x9E7C, symBinAddr: 0x10000BF90, symSize: 0xC8 }
  - { offsetInCU: 0x2279, offset: 0x2279, size: 0x8, addend: 0x0, symName: __ZN7testing13PrintToStringIjEENSt3__112basic_stringIcNS1_11char_traitsIcEENS1_9allocatorIcEEEERKT_, symObjAddr: 0xA7AC, symBinAddr: 0x10000C8C0, symSize: 0xC8 }
  - { offsetInCU: 0x22BE, offset: 0x22BE, size: 0x8, addend: 0x0, symName: __ZN7testing13PrintToStringIcEENSt3__112basic_stringIcNS1_11char_traitsIcEENS1_9allocatorIcEEEERKT_, symObjAddr: 0xAB70, symBinAddr: 0x10000CC84, symSize: 0xC8 }
  - { offsetInCU: 0x2303, offset: 0x2303, size: 0x8, addend: 0x0, symName: __ZN7testing13PrintToStringImEENSt3__112basic_stringIcNS1_11char_traitsIcEENS1_9allocatorIcEEEERKT_, symObjAddr: 0xBAD4, symBinAddr: 0x10000DBE8, symSize: 0xC8 }
  - { offsetInCU: 0xFB42, offset: 0xFB42, size: 0x8, addend: 0x0, symName: __ZNSt3__16chrono13duration_castB8ue170006INS0_8durationIxNS_5ratioILl1ELl1000EEEEExNS3_ILl1ELl1000000EEEEENS_9enable_ifIXsr13__is_durationIT_EE5valueES8_E4typeERKNS2_IT0_T1_EE, symObjAddr: 0x7634, symBinAddr: 0x100009748, symSize: 0x30 }
  - { offsetInCU: 0xFCA9, offset: 0xFCA9, size: 0x8, addend: 0x0, symName: __ZNSt3__16chronogtB8ue170006IxNS_5ratioILl1ELl1000EEExS3_EEbRKNS0_8durationIT_T0_EERKNS4_IT1_T2_EE, symObjAddr: 0x8C7C, symBinAddr: 0x10000AD90, symSize: 0x30 }
  - { offsetInCU: 0xFD0A, offset: 0xFD0A, size: 0x8, addend: 0x0, symName: __ZNSt3__16chronoltB8ue170006IxNS_5ratioILl1ELl1000EEEeNS2_ILl1ELl1EEEEEbRKNS0_8durationIT_T0_EERKNS5_IT1_T2_EE, symObjAddr: 0x8CE8, symBinAddr: 0x10000ADFC, symSize: 0x34 }
  - { offsetInCU: 0xFD6B, offset: 0xFD6B, size: 0x8, addend: 0x0, symName: __ZNSt3__16chrono13duration_castB8ue170006INS0_8durationIxNS_5ratioILl1ELl1000000000EEEEExNS3_ILl1ELl1000EEEEENS_9enable_ifIXsr13__is_durationIT_EE5valueES8_E4typeERKNS2_IT0_T1_EE, symObjAddr: 0x8D1C, symBinAddr: 0x10000AE30, symSize: 0x30 }
  - { offsetInCU: 0xFDB2, offset: 0xFDB2, size: 0x8, addend: 0x0, symName: __ZNSt3__16chronoltB8ue170006IxNS_5ratioILl1ELl1000000000EEExNS2_ILl1ELl1000EEEEEbRKNS0_8durationIT_T0_EERKNS5_IT1_T2_EE, symObjAddr: 0x8D4C, symBinAddr: 0x10000AE60, symSize: 0x34 }
  - { offsetInCU: 0xFE13, offset: 0xFE13, size: 0x8, addend: 0x0, symName: __ZNSt3__16chronoltB8ue170006IxNS_5ratioILl1ELl1000EEExS3_EEbRKNS0_8durationIT_T0_EERKNS4_IT1_T2_EE, symObjAddr: 0x8DDC, symBinAddr: 0x10000AEF0, symSize: 0x34 }
  - { offsetInCU: 0xFEF1, offset: 0xFEF1, size: 0x8, addend: 0x0, symName: __ZNSt3__16chrono13duration_castB8ue170006INS0_8durationIeNS_5ratioILl1ELl1000EEEEExS4_EENS_9enable_ifIXsr13__is_durationIT_EE5valueES7_E4typeERKNS2_IT0_T1_EE, symObjAddr: 0x8FB4, symBinAddr: 0x10000B0C8, symSize: 0x30 }
  - { offsetInCU: 0xFF83, offset: 0xFF83, size: 0x8, addend: 0x0, symName: __ZNSt3__16chrono13duration_castB8ue170006INS0_8durationIeNS_5ratioILl1ELl1000EEEEEeNS3_ILl1ELl1EEEEENS_9enable_ifIXsr13__is_durationIT_EE5valueES8_E4typeERKNS2_IT0_T1_EE, symObjAddr: 0x90D4, symBinAddr: 0x10000B1E8, symSize: 0x30 }
  - { offsetInCU: 0x178FD, offset: 0x178FD, size: 0x8, addend: 0x0, symName: __ZNSt3__16copy_nB8ue170006IPKcmPcEENS_9enable_ifIXsr37__has_random_access_iterator_categoryIT_EE5valueET1_E4typeES5_T0_S6_, symObjAddr: 0x69BC, symBinAddr: 0x100008AD0, symSize: 0x44 }
  - { offsetInCU: 0x17A3D, offset: 0x17A3D, size: 0x8, addend: 0x0, symName: __ZNSt3__124__put_character_sequenceB8ue170006IcNS_11char_traitsIcEEEERNS_13basic_ostreamIT_T0_EES7_PKS4_m, symObjAddr: 0x8398, symBinAddr: 0x10000A4AC, symSize: 0x1EC }
  - { offsetInCU: 0x1928C, offset: 0x1928C, size: 0x8, addend: 0x0, symName: __ZNSt3__111this_thread9sleep_forB8ue170006IxNS_5ratioILl1ELl1000EEEEEvRKNS_6chrono8durationIT_T0_EE, symObjAddr: 0xA50, symBinAddr: 0x100002B64, symSize: 0xBC }
  - { offsetInCU: 0x19310, offset: 0x19310, size: 0x8, addend: 0x0, symName: __ZNSt3__1lsB8ue170006IcNS_11char_traitsIcEENS_9allocatorIcEEEERNS_13basic_ostreamIT_T0_EES9_RKNS_12basic_stringIS6_S7_T1_EE, symObjAddr: 0xDFC, symBinAddr: 0x100002F10, symSize: 0x4C }
  - { offsetInCU: 0x19368, offset: 0x19368, size: 0x8, addend: 0x0, symName: __ZNSt3__1lsB8ue170006INS_11char_traitsIcEEEERNS_13basic_ostreamIcT_EES6_PKc, symObjAddr: 0xE48, symBinAddr: 0x100002F5C, symSize: 0x48 }
  - { offsetInCU: 0x193AE, offset: 0x193AE, size: 0x8, addend: 0x0, symName: __ZNSt3__14endlB8ue170006IcNS_11char_traitsIcEEEERNS_13basic_ostreamIT_T0_EES7_, symObjAddr: 0xEBC, symBinAddr: 0x100002FD0, symSize: 0x58 }
  - { offsetInCU: 0x193EE, offset: 0x193EE, size: 0x8, addend: 0x0, symName: __ZNSt3__1neB8ue170006ERKNS_19__hash_map_iteratorINS_15__hash_iteratorIPNS_11__hash_nodeINS_17__hash_value_typeIyNS_10shared_ptrIN5hf3fs17monitor_collector13WorkloadStatsEEEEEPvEEEEEESG_, symObjAddr: 0x3DD8, symBinAddr: 0x100005EEC, symSize: 0x30 }
  - { offsetInCU: 0x1942B, offset: 0x1942B, size: 0x8, addend: 0x0, symName: __ZNSt3__1neB8ue170006INS_12basic_stringIcNS_11char_traitsIcEENS_9allocatorIcEEEENS_14default_deleteIS6_EEEEbRKNS_10unique_ptrIT_T0_EEDn, symObjAddr: 0x5268, symBinAddr: 0x10000737C, symSize: 0x2C }
  - { offsetInCU: 0x19476, offset: 0x19476, size: 0x8, addend: 0x0, symName: __ZNSt3__1plB8ue170006IcNS_11char_traitsIcEENS_9allocatorIcEEEENS_12basic_stringIT_T0_T1_EEOS9_PKS6_, symObjAddr: 0x5650, symBinAddr: 0x100007764, symSize: 0x40 }
  - { offsetInCU: 0x194CE, offset: 0x194CE, size: 0x8, addend: 0x0, symName: __ZNSt3__1plB8ue170006IcNS_11char_traitsIcEENS_9allocatorIcEEEENS_12basic_stringIT_T0_T1_EEPKS6_OS9_, symObjAddr: 0x5690, symBinAddr: 0x1000077A4, symSize: 0x44 }
  - { offsetInCU: 0x19526, offset: 0x19526, size: 0x8, addend: 0x0, symName: __ZNSt3__119__libcpp_deallocateB8ue170006EPvmm, symObjAddr: 0x5A20, symBinAddr: 0x100007B34, symSize: 0x60 }
  - { offsetInCU: 0x1958C, offset: 0x1958C, size: 0x8, addend: 0x0, symName: __ZNSt3__124__is_overaligned_for_newB8ue170006Em, symObjAddr: 0x5A80, symBinAddr: 0x100007B94, symSize: 0x20 }
  - { offsetInCU: 0x195BA, offset: 0x195BA, size: 0x8, addend: 0x0, symName: __ZNSt3__127__do_deallocate_handle_sizeB8ue170006IJSt11align_val_tEEEvPvmDpT_, symObjAddr: 0x5AA0, symBinAddr: 0x100007BB4, symSize: 0x30 }
  - { offsetInCU: 0x1960D, offset: 0x1960D, size: 0x8, addend: 0x0, symName: __ZNSt3__127__do_deallocate_handle_sizeB8ue170006IJEEEvPvmDpT_, symObjAddr: 0x5AD0, symBinAddr: 0x100007BE4, symSize: 0x28 }
  - { offsetInCU: 0x1964B, offset: 0x1964B, size: 0x8, addend: 0x0, symName: __ZNSt3__124__libcpp_operator_deleteB8ue170006IJPvSt11align_val_tEEEvDpT_, symObjAddr: 0x5AF8, symBinAddr: 0x100007C0C, symSize: 0x2C }
  - { offsetInCU: 0x19694, offset: 0x19694, size: 0x8, addend: 0x0, symName: __ZNSt3__124__libcpp_operator_deleteB8ue170006IJPvEEEvDpT_, symObjAddr: 0x5B24, symBinAddr: 0x100007C38, symSize: 0x24 }
  - { offsetInCU: 0x196FC, offset: 0x196FC, size: 0x8, addend: 0x0, symName: __ZNSt3__1plB8ue170006IcNS_11char_traitsIcEENS_9allocatorIcEEEENS_12basic_stringIT_T0_T1_EEOS9_RKS9_, symObjAddr: 0x5D60, symBinAddr: 0x100007E74, symSize: 0x40 }
  - { offsetInCU: 0x19754, offset: 0x19754, size: 0x8, addend: 0x0, symName: __ZNSt3__1plB8ue170006IcNS_11char_traitsIcEENS_9allocatorIcEEEENS_12basic_stringIT_T0_T1_EEOS9_SA_, symObjAddr: 0x5DA0, symBinAddr: 0x100007EB4, symSize: 0x40 }
  - { offsetInCU: 0x197AC, offset: 0x197AC, size: 0x8, addend: 0x0, symName: __ZNSt3__1plB8ue170006IcNS_11char_traitsIcEENS_9allocatorIcEEEENS_12basic_stringIT_T0_T1_EERKS9_PKS6_, symObjAddr: 0x5DE0, symBinAddr: 0x100007EF4, symSize: 0x11C }
  - { offsetInCU: 0x1984E, offset: 0x1984E, size: 0x8, addend: 0x0, symName: __ZNSt3__112__to_addressB8ue170006IKcEEPT_S3_, symObjAddr: 0x5FC4, symBinAddr: 0x1000080D8, symSize: 0x14 }
  - { offsetInCU: 0x198B7, offset: 0x198B7, size: 0x8, addend: 0x0, symName: __ZNSt3__112__to_addressB8ue170006IcEEPT_S2_, symObjAddr: 0x6190, symBinAddr: 0x1000082A4, symSize: 0x14 }
  - { offsetInCU: 0x198EC, offset: 0x198EC, size: 0x8, addend: 0x0, symName: __ZNSt3__118__constexpr_strlenB8ue170006EPKc, symObjAddr: 0x627C, symBinAddr: 0x100008390, symSize: 0x24 }
  - { offsetInCU: 0x19919, offset: 0x19919, size: 0x8, addend: 0x0, symName: __ZNSt3__120__throw_length_errorB8ue170006EPKc, symObjAddr: 0x6780, symBinAddr: 0x100008894, symSize: 0x64 }
  - { offsetInCU: 0x19943, offset: 0x19943, size: 0x8, addend: 0x0, symName: __ZNSt3__117__libcpp_allocateB8ue170006Emm, symObjAddr: 0x690C, symBinAddr: 0x100008A20, symSize: 0x60 }
  - { offsetInCU: 0x1999E, offset: 0x1999E, size: 0x8, addend: 0x0, symName: __ZNSt3__121__libcpp_operator_newB8ue170006IJmSt11align_val_tEEEPvDpT_, symObjAddr: 0x696C, symBinAddr: 0x100008A80, symSize: 0x2C }
  - { offsetInCU: 0x199EB, offset: 0x199EB, size: 0x8, addend: 0x0, symName: __ZNSt3__121__libcpp_operator_newB8ue170006IJmEEEPvDpT_, symObjAddr: 0x6998, symBinAddr: 0x100008AAC, symSize: 0x24 }
  - { offsetInCU: 0x19A24, offset: 0x19A24, size: 0x8, addend: 0x0, symName: __ZNSt3__14copyB8ue170006IPKcPcEET0_T_S5_S4_, symObjAddr: 0x6A00, symBinAddr: 0x100008B14, symSize: 0x40 }
  - { offsetInCU: 0x19A7E, offset: 0x19A7E, size: 0x8, addend: 0x0, symName: __ZNSt3__16__copyB8ue170006INS_17_ClassicAlgPolicyEPKcS3_PcEENS_4pairIT0_T2_EES6_T1_S7_, symObjAddr: 0x6A40, symBinAddr: 0x100008B54, symSize: 0x44 }
  - { offsetInCU: 0x19AEA, offset: 0x19AEA, size: 0x8, addend: 0x0, symName: __ZNSt3__123__dispatch_copy_or_moveB8ue170006INS_17_ClassicAlgPolicyENS_11__copy_loopIS1_EENS_14__copy_trivialEPKcS6_PcEENS_4pairIT2_T4_EES9_T3_SA_, symObjAddr: 0x6A84, symBinAddr: 0x100008B98, symSize: 0x44 }
  - { offsetInCU: 0x19B68, offset: 0x19B68, size: 0x8, addend: 0x0, symName: __ZNSt3__121__unwrap_and_dispatchB8ue170006INS_10__overloadINS_11__copy_loopINS_17_ClassicAlgPolicyEEENS_14__copy_trivialEEEPKcS8_PcLi0EEENS_4pairIT0_T2_EESB_T1_SC_, symObjAddr: 0x6AC8, symBinAddr: 0x100008BDC, symSize: 0xB4 }
  - { offsetInCU: 0x19BF6, offset: 0x19BF6, size: 0x8, addend: 0x0, symName: __ZNSt3__114__unwrap_rangeB8ue170006IPKcS2_EENS_4pairIT0_S4_EET_S6_, symObjAddr: 0x6B7C, symBinAddr: 0x100008C90, symSize: 0x60 }
  - { offsetInCU: 0x19D8B, offset: 0x19D8B, size: 0x8, addend: 0x0, symName: __ZNSt3__113__unwrap_iterB8ue170006IPcNS_18__unwrap_iter_implIS1_Lb1EEELi0EEEDTclsrT0_8__unwrapclsr3stdE7declvalIT_EEEES5_, symObjAddr: 0x6C24, symBinAddr: 0x100008D38, symSize: 0x24 }
  - { offsetInCU: 0x19DCF, offset: 0x19DCF, size: 0x8, addend: 0x0, symName: __ZNSt3__19make_pairB8ue170006IPKcPcEENS_4pairINS_18__unwrap_ref_decayIT_E4typeENS5_IT0_E4typeEEEOS6_OS9_, symObjAddr: 0x6C48, symBinAddr: 0x100008D5C, symSize: 0x38 }
  - { offsetInCU: 0x19E1E, offset: 0x19E1E, size: 0x8, addend: 0x0, symName: __ZNSt3__114__rewrap_rangeB8ue170006IPKcS2_EET_S3_T0_, symObjAddr: 0x6C80, symBinAddr: 0x100008D94, symSize: 0x2C }
  - { offsetInCU: 0x19E6A, offset: 0x19E6A, size: 0x8, addend: 0x0, symName: __ZNSt3__113__rewrap_iterB8ue170006IPcS1_NS_18__unwrap_iter_implIS1_Lb1EEEEET_S4_T0_, symObjAddr: 0x6CAC, symBinAddr: 0x100008DC0, symSize: 0x3C }
  - { offsetInCU: 0x19EBF, offset: 0x19EBF, size: 0x8, addend: 0x0, symName: __ZNSt3__19make_pairB8ue170006IPKcS2_EENS_4pairINS_18__unwrap_ref_decayIT_E4typeENS4_IT0_E4typeEEEOS5_OS8_, symObjAddr: 0x6CE8, symBinAddr: 0x100008DFC, symSize: 0x38 }
  - { offsetInCU: 0x19F0E, offset: 0x19F0E, size: 0x8, addend: 0x0, symName: __ZNSt3__113__unwrap_iterB8ue170006IPKcNS_18__unwrap_iter_implIS2_Lb1EEELi0EEEDTclsrT0_8__unwrapclsr3stdE7declvalIT_EEEES6_, symObjAddr: 0x6D20, symBinAddr: 0x100008E34, symSize: 0x24 }
  - { offsetInCU: 0x1A079, offset: 0x1A079, size: 0x8, addend: 0x0, symName: __ZNSt3__119__copy_trivial_implB8ue170006IKccEENS_4pairIPT_PT0_EES4_S4_S6_, symObjAddr: 0x6DD8, symBinAddr: 0x100008EEC, symSize: 0x78 }
  - { offsetInCU: 0x1A0E1, offset: 0x1A0E1, size: 0x8, addend: 0x0, symName: __ZNSt3__119__constexpr_memmoveB8ue170006IcKcLi0EEEPT_S3_PT0_NS_15__element_countE, symObjAddr: 0x6E50, symBinAddr: 0x100008F64, symSize: 0x64 }
  - { offsetInCU: 0x1A14F, offset: 0x1A14F, size: 0x8, addend: 0x0, symName: __ZNSt3__19make_pairB8ue170006IRPKcPcEENS_4pairINS_18__unwrap_ref_decayIT_E4typeENS6_IT0_E4typeEEEOS7_OSA_, symObjAddr: 0x6EB4, symBinAddr: 0x100008FC8, symSize: 0x38 }
  - { offsetInCU: 0x1A1F1, offset: 0x1A1F1, size: 0x8, addend: 0x0, symName: __ZNSt3__113__rewrap_iterB8ue170006IPKcS2_NS_18__unwrap_iter_implIS2_Lb1EEEEET_S5_T0_, symObjAddr: 0x6FF0, symBinAddr: 0x100009104, symSize: 0x3C }
  - { offsetInCU: 0x1A246, offset: 0x1A246, size: 0x8, addend: 0x0, symName: __ZNSt3__16fill_nB8ue170006IPcmcEET_S2_T0_RKT1_, symObjAddr: 0x70BC, symBinAddr: 0x1000091D0, symSize: 0x44 }
  - { offsetInCU: 0x1A2AA, offset: 0x1A2AA, size: 0x8, addend: 0x0, symName: __ZNSt3__18__fill_nB8ue170006IPcmcEET_S2_T0_RKT1_, symObjAddr: 0x7100, symBinAddr: 0x100009214, symSize: 0x64 }
  - { offsetInCU: 0x1A30E, offset: 0x1A30E, size: 0x8, addend: 0x0, symName: __ZNSt3__121__convert_to_integralB8ue170006Em, symObjAddr: 0x7164, symBinAddr: 0x100009278, symSize: 0x14 }
  - { offsetInCU: 0x1A33A, offset: 0x1A33A, size: 0x8, addend: 0x0, symName: __ZNSt3__111make_uniqueB8ue170006IN5hf3fs17monitor_collector19MLWorkloadAnalyticsEJRNS3_6ConfigEEEENS_11__unique_ifIT_E15__unique_singleEDpOT0_, symObjAddr: 0x7D18, symBinAddr: 0x100009E2C, symSize: 0x6C }
  - { offsetInCU: 0x1A37C, offset: 0x1A37C, size: 0x8, addend: 0x0, symName: __ZNSt3__116__pad_and_outputB8ue170006IcNS_11char_traitsIcEEEENS_19ostreambuf_iteratorIT_T0_EES6_PKS4_S8_S8_RNS_8ios_baseES4_, symObjAddr: 0x85A0, symBinAddr: 0x10000A6B4, symSize: 0x240 }
  - { offsetInCU: 0x1A44B, offset: 0x1A44B, size: 0x8, addend: 0x0, symName: __ZNSt3__19use_facetB8ue170006INS_5ctypeIcEEEERKT_RKNS_6localeE, symObjAddr: 0x8B54, symBinAddr: 0x10000AC68, symSize: 0x2C }
  - { offsetInCU: 0x1AB03, offset: 0x1AB03, size: 0x8, addend: 0x0, symName: __ZNSt3__134__libcpp_atomic_refcount_decrementB8ue170006IlEET_RS1_, symObjAddr: 0x94D4, symBinAddr: 0x10000B5E8, symSize: 0x30 }
  - { offsetInCU: 0x1AB38, offset: 0x1AB38, size: 0x8, addend: 0x0, symName: __ZNSt3__1eqB8ue170006INS_12basic_stringIcNS_11char_traitsIcEENS_9allocatorIcEEEENS_14default_deleteIS6_EEEEbRKNS_10unique_ptrIT_T0_EEDn, symObjAddr: 0x9B20, symBinAddr: 0x10000BC34, symSize: 0x30 }
  - { offsetInCU: 0x1AB83, offset: 0x1AB83, size: 0x8, addend: 0x0, symName: __ZNSt3__111make_uniqueB8ue170006INS_12basic_stringIcNS_11char_traitsIcEENS_9allocatorIcEEEEJEEENS_11__unique_ifIT_E15__unique_singleEDpOT0_, symObjAddr: 0x9B50, symBinAddr: 0x10000BC64, symSize: 0x3C }
  - { offsetInCU: 0x1ABB1, offset: 0x1ABB1, size: 0x8, addend: 0x0, symName: __ZNSt3__112__to_addressB8ue170006INS_10shared_ptrIN5hf3fs17monitor_collector13WorkloadStatsEEEEEPT_S7_, symObjAddr: 0xB048, symBinAddr: 0x10000D15C, symSize: 0x14 }
  - { offsetInCU: 0x1AC19, offset: 0x1AC19, size: 0x8, addend: 0x0, symName: __ZNSt3__17launderB8ue170006INS_4pairIKyNS_10shared_ptrIN5hf3fs17monitor_collector13WorkloadStatsEEEEEEEPT_SA_, symObjAddr: 0xB4FC, symBinAddr: 0x10000D610, symSize: 0x24 }
  - { offsetInCU: 0x1AC50, offset: 0x1AC50, size: 0x8, addend: 0x0, symName: __ZNSt3__19__launderB8ue170006INS_4pairIKyNS_10shared_ptrIN5hf3fs17monitor_collector13WorkloadStatsEEEEEEEPT_SA_, symObjAddr: 0xB520, symBinAddr: 0x10000D634, symSize: 0x14 }
  - { offsetInCU: 0x1AC88, offset: 0x1AC88, size: 0x8, addend: 0x0, symName: __ZNSt3__116__constrain_hashB8ue170006Emm, symObjAddr: 0xBF38, symBinAddr: 0x10000E04C, symSize: 0x98 }
  - { offsetInCU: 0x1ACC2, offset: 0x1ACC2, size: 0x8, addend: 0x0, symName: __ZNSt3__17launderB8ue170006IKNS_4pairIKyNS_10shared_ptrIN5hf3fs17monitor_collector13WorkloadStatsEEEEEEEPT_SB_, symObjAddr: 0xC2B8, symBinAddr: 0x10000E3CC, symSize: 0x24 }
  - { offsetInCU: 0x1ACF9, offset: 0x1ACF9, size: 0x8, addend: 0x0, symName: __ZNSt3__19__launderB8ue170006IKNS_4pairIKyNS_10shared_ptrIN5hf3fs17monitor_collector13WorkloadStatsEEEEEEEPT_SB_, symObjAddr: 0xC2DC, symBinAddr: 0x10000E3F0, symSize: 0x14 }
  - { offsetInCU: 0x1AD30, offset: 0x1AD30, size: 0x8, addend: 0x0, symName: __ZNSt3__1neB8ue170006ERKNS_15__hash_iteratorIPNS_11__hash_nodeINS_17__hash_value_typeIyNS_10shared_ptrIN5hf3fs17monitor_collector13WorkloadStatsEEEEEPvEEEESE_, symObjAddr: 0xC330, symBinAddr: 0x10000E444, symSize: 0x34 }
  - { offsetInCU: 0x1AD6D, offset: 0x1AD6D, size: 0x8, addend: 0x0, symName: __ZNSt3__1eqB8ue170006ERKNS_15__hash_iteratorIPNS_11__hash_nodeINS_17__hash_value_typeIyNS_10shared_ptrIN5hf3fs17monitor_collector13WorkloadStatsEEEEEPvEEEESE_, symObjAddr: 0xC364, symBinAddr: 0x10000E478, symSize: 0x30 }
  - { offsetInCU: 0x1ADE1, offset: 0x1ADE1, size: 0x8, addend: 0x0, symName: __ZNSt3__116forward_as_tupleB8ue170006IJyEEENS_5tupleIJDpOT_EEES4_, symObjAddr: 0xC84C, symBinAddr: 0x10000E960, symSize: 0x2C }
  - { offsetInCU: 0x1AE1A, offset: 0x1AE1A, size: 0x8, addend: 0x0, symName: __ZNSt3__116forward_as_tupleB8ue170006IJEEENS_5tupleIJDpOT_EEES4_, symObjAddr: 0xC878, symBinAddr: 0x10000E98C, symSize: 0x4 }
  - { offsetInCU: 0x1AE3E, offset: 0x1AE3E, size: 0x8, addend: 0x0, symName: __ZNSt3__13maxB8ue170006ImEERKT_S3_S3_, symObjAddr: 0xCA78, symBinAddr: 0x10000EB8C, symSize: 0x2C }
  - { offsetInCU: 0x1AE82, offset: 0x1AE82, size: 0x8, addend: 0x0, symName: __ZNSt3__116__is_hash_power2B8ue170006Em, symObjAddr: 0xCAA4, symBinAddr: 0x10000EBB8, symSize: 0x50 }
  - { offsetInCU: 0x1AED8, offset: 0x1AED8, size: 0x8, addend: 0x0, symName: __ZNSt3__13getB8ue170006ILm0EJOyEEERNS_13tuple_elementIXT_ENS_5tupleIJDpT0_EEEE4typeERS6_, symObjAddr: 0xD038, symBinAddr: 0x10000F14C, symSize: 0x24 }
  - { offsetInCU: 0x1AF1B, offset: 0x1AF1B, size: 0x8, addend: 0x0, symName: __ZNSt3__116__next_hash_pow2B8ue170006Em, symObjAddr: 0xD584, symBinAddr: 0x10000F698, symSize: 0x6C }
  - { offsetInCU: 0x1AF48, offset: 0x1AF48, size: 0x8, addend: 0x0, symName: __ZNSt3__112__libcpp_clzB8ue170006Em, symObjAddr: 0xD748, symBinAddr: 0x10000F85C, symSize: 0x1C }
  - { offsetInCU: 0x1AF74, offset: 0x1AF74, size: 0x8, addend: 0x0, symName: __ZNSt3__13maxB8ue170006ImNS_6__lessIvvEEEERKT_S5_S5_T0_, symObjAddr: 0xD764, symBinAddr: 0x10000F878, symSize: 0x54 }
  - { offsetInCU: 0x1B695, offset: 0x1B695, size: 0x8, addend: 0x0, symName: __ZSt28__throw_bad_array_new_lengthB8ue170006v, symObjAddr: 0x68D8, symBinAddr: 0x1000089EC, symSize: 0x34 }
  - { offsetInCU: 0x1D9F3, offset: 0x1D9F3, size: 0x8, addend: 0x0, symName: __ZN49MLWorkloadAnalyticsTest_DetectsRandomPattern_Test10test_info_E, symObjAddr: 0xBE640, symBinAddr: 0x100080010, symSize: 0x0 }
  - { offsetInCU: 0x1DADB, offset: 0x1DADB, size: 0x8, addend: 0x0, symName: __ZN52MLWorkloadAnalyticsTest_DetectsTrainingWorkload_Test10test_info_E, symObjAddr: 0xBE648, symBinAddr: 0x100080018, symSize: 0x0 }
  - { offsetInCU: 0x1DBC3, offset: 0x1DBC3, size: 0x8, addend: 0x0, symName: __ZN52MLWorkloadAnalyticsTest_DetectsPyTorchFramework_Test10test_info_E, symObjAddr: 0xBE650, symBinAddr: 0x100080020, symSize: 0x0 }
  - { offsetInCU: 0x1DCAB, offset: 0x1DCAB, size: 0x8, addend: 0x0, symName: __ZN55MLWorkloadAnalyticsTest_DetectsTensorFlowFramework_Test10test_info_E, symObjAddr: 0xBE658, symBinAddr: 0x100080028, symSize: 0x0 }
  - { offsetInCU: 0x1DD93, offset: 0x1DD93, size: 0x8, addend: 0x0, symName: __ZN44MLWorkloadAnalyticsTest_GeneratesReport_Test10test_info_E, symObjAddr: 0xBE660, symBinAddr: 0x100080030, symSize: 0x0 }
  - { offsetInCU: 0x1DE84, offset: 0x1DE84, size: 0x8, addend: 0x0, symName: __ZN50MLWorkloadAnalyticsTest_TracksHistoricalStats_Test10test_info_E, symObjAddr: 0xBE668, symBinAddr: 0x100080038, symSize: 0x0 }
  - { offsetInCU: 0x1DF75, offset: 0x1DF75, size: 0x8, addend: 0x0, symName: __ZN50MLWorkloadAnalyticsTest_CleansUpIdleWorkloads_Test10test_info_E, symObjAddr: 0xBE670, symBinAddr: 0x100080040, symSize: 0x0 }
  - { offsetInCU: 0x1E066, offset: 0x1E066, size: 0x8, addend: 0x0, symName: __ZN51MLWorkloadAnalyticsTest_HandlesMultipleClients_Test10test_info_E, symObjAddr: 0xBE678, symBinAddr: 0x100080048, symSize: 0x0 }
  - { offsetInCU: 0x1E7C5, offset: 0x1E7C5, size: 0x8, addend: 0x0, symName: __ZNKSt3__16chrono15__duration_castINS0_8durationIxNS_5ratioILl1ELl1000000EEEEENS2_IxNS3_ILl1ELl1000EEEEES6_Lb1ELb0EEclB8ue170006ERKS5_, symObjAddr: 0x769C, symBinAddr: 0x1000097B0, symSize: 0x48 }
  - { offsetInCU: 0x1E854, offset: 0x1E854, size: 0x8, addend: 0x0, symName: __ZNKSt3__16chrono13__duration_ltINS0_8durationIxNS_5ratioILl1ELl1000EEEEENS2_IeNS3_ILl1ELl1EEEEEEclB8ue170006ERKS5_RKS7_, symObjAddr: 0x8E64, symBinAddr: 0x10000AF78, symSize: 0x78 }
  - { offsetInCU: 0x1E8D4, offset: 0x1E8D4, size: 0x8, addend: 0x0, symName: __ZNKSt3__16chrono15__duration_castINS0_8durationIeNS_5ratioILl1ELl1EEEEENS2_IeNS3_ILl1ELl1000EEEEENS3_ILl1000ELl1EEELb0ELb1EEclB8ue170006ERKS5_, symObjAddr: 0x9104, symBinAddr: 0x10000B218, symSize: 0x4C }
  - { offsetInCU: 0x1E943, offset: 0x1E943, size: 0x8, addend: 0x0, symName: __ZNKSt3__16chrono15__duration_castINS0_8durationIxNS_5ratioILl1ELl1000EEEEENS2_IxNS3_ILl1ELl1000000000EEEEENS3_ILl1000000ELl1EEELb0ELb1EEclB8ue170006ERKS5_, symObjAddr: 0x9168, symBinAddr: 0x10000B27C, symSize: 0x4C }
  - { offsetInCU: 0x1E98C, offset: 0x1E98C, size: 0x8, addend: 0x0, symName: __ZNKSt3__16chrono13__duration_ltINS0_8durationIxNS_5ratioILl1ELl1000000000EEEEENS2_IxNS3_ILl1ELl1000EEEEEEclB8ue170006ERKS5_RKS7_, symObjAddr: 0x9218, symBinAddr: 0x10000B32C, symSize: 0x6C }
  - { offsetInCU: 0x20D71, offset: 0x20D71, size: 0x8, addend: 0x0, symName: __ZNSt3__112basic_stringIcNS_11char_traitsIcEENS_9allocatorIcEEEC1B8ue170006ILi0EEEPKc, symObjAddr: 0x0, symBinAddr: 0x100002114, symSize: 0x34 }
  - { offsetInCU: 0x20DB0, offset: 0x20DB0, size: 0x8, addend: 0x0, symName: __ZN7testing8internal12CodeLocationC1ENSt3__112basic_stringIcNS2_11char_traitsIcEENS2_9allocatorIcEEEEi, symObjAddr: 0x34, symBinAddr: 0x100002148, symSize: 0x3C }
  - { offsetInCU: 0x20DF9, offset: 0x20DF9, size: 0x8, addend: 0x0, symName: __ZN7testing8internal16SuiteApiResolverI23MLWorkloadAnalyticsTestE19GetSetUpCaseOrSuiteEPKci, symObjAddr: 0x7C, symBinAddr: 0x100002190, symSize: 0x184 }
  - { offsetInCU: 0x20E4A, offset: 0x20E4A, size: 0x8, addend: 0x0, symName: __ZN7testing8internal16SuiteApiResolverI23MLWorkloadAnalyticsTestE22GetTearDownCaseOrSuiteEPKci, symObjAddr: 0x200, symBinAddr: 0x100002314, symSize: 0x178 }
  - { offsetInCU: 0x20EA0, offset: 0x20EA0, size: 0x8, addend: 0x0, symName: __ZN7testing8internal15TestFactoryImplI53MLWorkloadAnalyticsTest_DetectsSequentialPattern_TestEC1Ev, symObjAddr: 0x378, symBinAddr: 0x10000248C, symSize: 0x2C }
  - { offsetInCU: 0x20ECD, offset: 0x20ECD, size: 0x8, addend: 0x0, symName: __ZN7testing8internal12CodeLocationD1Ev, symObjAddr: 0x3A4, symBinAddr: 0x1000024B8, symSize: 0x2C }
  - { offsetInCU: 0x20EFA, offset: 0x20EFA, size: 0x8, addend: 0x0, symName: __ZN53MLWorkloadAnalyticsTest_DetectsSequentialPattern_Test8TestBodyEv, symObjAddr: 0x3D0, symBinAddr: 0x1000024E4, symSize: 0x554 }
  - { offsetInCU: 0x20F7C, offset: 0x20F7C, size: 0x8, addend: 0x0, symName: __ZN23MLWorkloadAnalyticsTest24simulateSequentialAccessEyRKNSt3__112basic_stringIcNS0_11char_traitsIcEENS0_9allocatorIcEEEEi, symObjAddr: 0x924, symBinAddr: 0x100002A38, symSize: 0x12C }
  - { offsetInCU: 0x20FFF, offset: 0x20FFF, size: 0x8, addend: 0x0, symName: __ZNSt3__16chrono8durationIxNS_5ratioILl1ELl1000EEEEC1B8ue170006IiEERKT_PNS_9enable_ifIXaasr14is_convertibleIS8_xEE5valueooL_ZNS_17integral_constantIbLb0EE5valueEEntsr23treat_as_floating_pointIS6_EE5valueEvE4typeE, symObjAddr: 0xB0C, symBinAddr: 0x100002C20, symSize: 0x3C }
  - { offsetInCU: 0x2104B, offset: 0x2104B, size: 0x8, addend: 0x0, symName: __ZNKSt3__110unique_ptrIN5hf3fs17monitor_collector19MLWorkloadAnalyticsENS_14default_deleteIS3_EEEptB8ue170006Ev, symObjAddr: 0xB48, symBinAddr: 0x100002C5C, symSize: 0x28 }
  - { offsetInCU: 0x21071, offset: 0x21071, size: 0x8, addend: 0x0, symName: __ZN7testing15AssertionResultC1INSt3__110shared_ptrIN5hf3fs17monitor_collector13WorkloadStatsEEEEERKT_PNS2_9enable_ifIXntsr3std14is_convertibleIS8_S0_EE5valueEvE4typeE, symObjAddr: 0xB70, symBinAddr: 0x100002C84, symSize: 0x3C }
  - { offsetInCU: 0x210BD, offset: 0x210BD, size: 0x8, addend: 0x0, symName: __ZNK7testing15AssertionResultcvbEv, symObjAddr: 0xBAC, symBinAddr: 0x100002CC0, symSize: 0x1C }
  - { offsetInCU: 0x210FC, offset: 0x210FC, size: 0x8, addend: 0x0, symName: __ZN7testing7MessagelsIA27_cEERS0_RKT_, symObjAddr: 0xBC8, symBinAddr: 0x100002CDC, symSize: 0x3C }
  - { offsetInCU: 0x21166, offset: 0x21166, size: 0x8, addend: 0x0, symName: __ZN7testing7MessagelsIyEERS0_RKT_, symObjAddr: 0xC04, symBinAddr: 0x100002D18, symSize: 0x40 }
  - { offsetInCU: 0x211AA, offset: 0x211AA, size: 0x8, addend: 0x0, symName: __ZNKSt3__112basic_stringIcNS_11char_traitsIcEENS_9allocatorIcEEE5c_strB8ue170006Ev, symObjAddr: 0xC44, symBinAddr: 0x100002D58, symSize: 0x24 }
  - { offsetInCU: 0x211D0, offset: 0x211D0, size: 0x8, addend: 0x0, symName: __ZN7testing7MessageD1Ev, symObjAddr: 0xC68, symBinAddr: 0x100002D7C, symSize: 0x2C }
  - { offsetInCU: 0x211FC, offset: 0x211FC, size: 0x8, addend: 0x0, symName: __ZN7testing15AssertionResultD1Ev, symObjAddr: 0xC94, symBinAddr: 0x100002DA8, symSize: 0x2C }
  - { offsetInCU: 0x21228, offset: 0x21228, size: 0x8, addend: 0x0, symName: __ZNKSt3__110shared_ptrIN5hf3fs17monitor_collector13WorkloadStatsEEptB8ue170006Ev, symObjAddr: 0xD40, symBinAddr: 0x100002E54, symSize: 0x18 }
  - { offsetInCU: 0x21267, offset: 0x21267, size: 0x8, addend: 0x0, symName: __ZN7testing7MessagelsIA36_cEERS0_RKT_, symObjAddr: 0xD58, symBinAddr: 0x100002E6C, symSize: 0x3C }
  - { offsetInCU: 0x212AB, offset: 0x212AB, size: 0x8, addend: 0x0, symName: __ZNK7testing15AssertionResult15failure_messageEv, symObjAddr: 0xD94, symBinAddr: 0x100002EA8, symSize: 0x24 }
  - { offsetInCU: 0x212DC, offset: 0x212DC, size: 0x8, addend: 0x0, symName: __ZN7testing8internal8EqHelper7CompareIyjLPv0EEENS_15AssertionResultEPKcS6_RKT_RKT0_, symObjAddr: 0xDB8, symBinAddr: 0x100002ECC, symSize: 0x44 }
  - { offsetInCU: 0x21345, offset: 0x21345, size: 0x8, addend: 0x0, symName: __ZNSt3__113basic_ostreamIcNS_11char_traitsIcEEElsB8ue170006EPFRS3_S4_E, symObjAddr: 0xE90, symBinAddr: 0x100002FA4, symSize: 0x2C }
  - { offsetInCU: 0x21379, offset: 0x21379, size: 0x8, addend: 0x0, symName: __ZNSt3__110shared_ptrIN5hf3fs17monitor_collector13WorkloadStatsEED1B8ue170006Ev, symObjAddr: 0xF14, symBinAddr: 0x100003028, symSize: 0x2C }
  - { offsetInCU: 0x213A8, offset: 0x213A8, size: 0x8, addend: 0x0, symName: __ZN7testing8internal15TestFactoryImplI49MLWorkloadAnalyticsTest_DetectsRandomPattern_TestEC1Ev, symObjAddr: 0xF40, symBinAddr: 0x100003054, symSize: 0x2C }
  - { offsetInCU: 0x213D5, offset: 0x213D5, size: 0x8, addend: 0x0, symName: __ZN49MLWorkloadAnalyticsTest_DetectsRandomPattern_Test8TestBodyEv, symObjAddr: 0xF6C, symBinAddr: 0x100003080, symSize: 0x3D0 }
  - { offsetInCU: 0x21442, offset: 0x21442, size: 0x8, addend: 0x0, symName: __ZN23MLWorkloadAnalyticsTest20simulateRandomAccessEyRKNSt3__112basic_stringIcNS0_11char_traitsIcEENS0_9allocatorIcEEEEi, symObjAddr: 0x133C, symBinAddr: 0x100003450, symSize: 0x140 }
  - { offsetInCU: 0x214BF, offset: 0x214BF, size: 0x8, addend: 0x0, symName: __ZN7testing8internal15TestFactoryImplI52MLWorkloadAnalyticsTest_DetectsTrainingWorkload_TestEC1Ev, symObjAddr: 0x147C, symBinAddr: 0x100003590, symSize: 0x2C }
  - { offsetInCU: 0x214EC, offset: 0x214EC, size: 0x8, addend: 0x0, symName: __ZN52MLWorkloadAnalyticsTest_DetectsTrainingWorkload_Test8TestBodyEv, symObjAddr: 0x14A8, symBinAddr: 0x1000035BC, symSize: 0x498 }
  - { offsetInCU: 0x2156D, offset: 0x2156D, size: 0x8, addend: 0x0, symName: __ZN23MLWorkloadAnalyticsTest24simulateTrainingWorkloadEyii, symObjAddr: 0x1940, symBinAddr: 0x100003A54, symSize: 0x358 }
  - { offsetInCU: 0x2161E, offset: 0x2161E, size: 0x8, addend: 0x0, symName: __ZN7testing8internal15TestFactoryImplI52MLWorkloadAnalyticsTest_DetectsPyTorchFramework_TestEC1Ev, symObjAddr: 0x1C98, symBinAddr: 0x100003DAC, symSize: 0x2C }
  - { offsetInCU: 0x2164B, offset: 0x2164B, size: 0x8, addend: 0x0, symName: __ZN52MLWorkloadAnalyticsTest_DetectsPyTorchFramework_Test8TestBodyEv, symObjAddr: 0x1CC4, symBinAddr: 0x100003DD8, symSize: 0x494 }
  - { offsetInCU: 0x216CC, offset: 0x216CC, size: 0x8, addend: 0x0, symName: __ZN23MLWorkloadAnalyticsTest27simulateFrameworkOperationsEyN5hf3fs17monitor_collector13FrameworkTypeE, symObjAddr: 0x2158, symBinAddr: 0x10000426C, symSize: 0x444 }
  - { offsetInCU: 0x21772, offset: 0x21772, size: 0x8, addend: 0x0, symName: __ZN7testing8internal15TestFactoryImplI55MLWorkloadAnalyticsTest_DetectsTensorFlowFramework_TestEC1Ev, symObjAddr: 0x25AC, symBinAddr: 0x1000046C0, symSize: 0x2C }
  - { offsetInCU: 0x2179F, offset: 0x2179F, size: 0x8, addend: 0x0, symName: __ZN55MLWorkloadAnalyticsTest_DetectsTensorFlowFramework_Test8TestBodyEv, symObjAddr: 0x25D8, symBinAddr: 0x1000046EC, symSize: 0x494 }
  - { offsetInCU: 0x21829, offset: 0x21829, size: 0x8, addend: 0x0, symName: __ZN7testing8internal15TestFactoryImplI44MLWorkloadAnalyticsTest_GeneratesReport_TestEC1Ev, symObjAddr: 0x2A6C, symBinAddr: 0x100004B80, symSize: 0x2C }
  - { offsetInCU: 0x21856, offset: 0x21856, size: 0x8, addend: 0x0, symName: __ZN44MLWorkloadAnalyticsTest_GeneratesReport_Test8TestBodyEv, symObjAddr: 0x2A98, symBinAddr: 0x100004BAC, symSize: 0x468 }
  - { offsetInCU: 0x218CE, offset: 0x218CE, size: 0x8, addend: 0x0, symName: __ZNKSt3__112basic_stringIcNS_11char_traitsIcEENS_9allocatorIcEEE5emptyB8ue170006Ev, symObjAddr: 0x2F00, symBinAddr: 0x100005014, symSize: 0x30 }
  - { offsetInCU: 0x218FA, offset: 0x218FA, size: 0x8, addend: 0x0, symName: __ZN7testing15AssertionResultC1IbEERKT_PNSt3__19enable_ifIXntsr3std14is_convertibleIS2_S0_EE5valueEvE4typeE, symObjAddr: 0x2F30, symBinAddr: 0x100005044, symSize: 0x3C }
  - { offsetInCU: 0x21946, offset: 0x21946, size: 0x8, addend: 0x0, symName: __ZN7testing8internal8EqHelper7CompareIccLPv0EEENS_15AssertionResultEPKcS6_RKT_RKT0_, symObjAddr: 0x2F6C, symBinAddr: 0x100005080, symSize: 0x44 }
  - { offsetInCU: 0x219AF, offset: 0x219AF, size: 0x8, addend: 0x0, symName: __ZNSt3__112basic_stringIcNS_11char_traitsIcEENS_9allocatorIcEEE5frontB8ue170006Ev, symObjAddr: 0x2FB0, symBinAddr: 0x1000050C4, symSize: 0x24 }
  - { offsetInCU: 0x219D5, offset: 0x219D5, size: 0x8, addend: 0x0, symName: __ZNSt3__112basic_stringIcNS_11char_traitsIcEENS_9allocatorIcEEE4backB8ue170006Ev, symObjAddr: 0x2FD4, symBinAddr: 0x1000050E8, symSize: 0x48 }
  - { offsetInCU: 0x21A00, offset: 0x21A00, size: 0x8, addend: 0x0, symName: __ZN7testing8internal15TestFactoryImplI50MLWorkloadAnalyticsTest_TracksHistoricalStats_TestEC1Ev, symObjAddr: 0x301C, symBinAddr: 0x100005130, symSize: 0x2C }
  - { offsetInCU: 0x21A2D, offset: 0x21A2D, size: 0x8, addend: 0x0, symName: __ZN50MLWorkloadAnalyticsTest_TracksHistoricalStats_Test8TestBodyEv, symObjAddr: 0x3048, symBinAddr: 0x10000515C, symSize: 0xA8 }
  - { offsetInCU: 0x21A8F, offset: 0x21A8F, size: 0x8, addend: 0x0, symName: __ZN23MLWorkloadAnalyticsTest16getCurrentTimeMsEv, symObjAddr: 0x30F0, symBinAddr: 0x100005204, symSize: 0x50 }
  - { offsetInCU: 0x21AB5, offset: 0x21AB5, size: 0x8, addend: 0x0, symName: __ZNSt3__16vectorINS_10shared_ptrIN5hf3fs17monitor_collector13WorkloadStatsEEENS_9allocatorIS5_EEED1B8ue170006Ev, symObjAddr: 0x3140, symBinAddr: 0x100005254, symSize: 0x2C }
  - { offsetInCU: 0x21AE4, offset: 0x21AE4, size: 0x8, addend: 0x0, symName: __ZN7testing8internal15TestFactoryImplI50MLWorkloadAnalyticsTest_CleansUpIdleWorkloads_TestEC1Ev, symObjAddr: 0x316C, symBinAddr: 0x100005280, symSize: 0x2C }
  - { offsetInCU: 0x21B11, offset: 0x21B11, size: 0x8, addend: 0x0, symName: __ZN50MLWorkloadAnalyticsTest_CleansUpIdleWorkloads_Test8TestBodyEv, symObjAddr: 0x3198, symBinAddr: 0x1000052AC, symSize: 0x340 }
  - { offsetInCU: 0x21B72, offset: 0x21B72, size: 0x8, addend: 0x0, symName: __ZN5hf3fs17monitor_collector19MLWorkloadAnalytics6Config28set_workload_idle_timeout_msEy, symObjAddr: 0x34D8, symBinAddr: 0x1000055EC, symSize: 0x20 }
  - { offsetInCU: 0x21BAC, offset: 0x21BAC, size: 0x8, addend: 0x0, symName: __ZN7testing8internal15TestFactoryImplI51MLWorkloadAnalyticsTest_HandlesMultipleClients_TestEC1Ev, symObjAddr: 0x34F8, symBinAddr: 0x10000560C, symSize: 0x2C }
  - { offsetInCU: 0x21BD9, offset: 0x21BD9, size: 0x8, addend: 0x0, symName: __ZN51MLWorkloadAnalyticsTest_HandlesMultipleClients_Test8TestBodyEv, symObjAddr: 0x3524, symBinAddr: 0x100005638, symSize: 0x810 }
  - { offsetInCU: 0x21C7D, offset: 0x21C7D, size: 0x8, addend: 0x0, symName: __ZNKSt3__113unordered_mapIyNS_10shared_ptrIN5hf3fs17monitor_collector13WorkloadStatsEEENS_4hashIyEENS_8equal_toIyEENS_9allocatorINS_4pairIKyS5_EEEEE4sizeB8ue170006Ev, symObjAddr: 0x3DB4, symBinAddr: 0x100005EC8, symSize: 0x24 }
  - { offsetInCU: 0x21CA3, offset: 0x21CA3, size: 0x8, addend: 0x0, symName: __ZNSt3__113unordered_mapIyNS_10shared_ptrIN5hf3fs17monitor_collector13WorkloadStatsEEENS_4hashIyEENS_8equal_toIyEENS_9allocatorINS_4pairIKyS5_EEEEE4findB8ue170006ERSC_, symObjAddr: 0x3E08, symBinAddr: 0x100005F1C, symSize: 0x40 }
  - { offsetInCU: 0x21CD8, offset: 0x21CD8, size: 0x8, addend: 0x0, symName: __ZNSt3__113unordered_mapIyNS_10shared_ptrIN5hf3fs17monitor_collector13WorkloadStatsEEENS_4hashIyEENS_8equal_toIyEENS_9allocatorINS_4pairIKyS5_EEEEE3endB8ue170006Ev, symObjAddr: 0x3E48, symBinAddr: 0x100005F5C, symSize: 0x38 }
  - { offsetInCU: 0x21CFE, offset: 0x21CFE, size: 0x8, addend: 0x0, symName: __ZNSt3__113unordered_mapIyNS_10shared_ptrIN5hf3fs17monitor_collector13WorkloadStatsEEENS_4hashIyEENS_8equal_toIyEENS_9allocatorINS_4pairIKyS5_EEEEEixEOy, symObjAddr: 0x3E80, symBinAddr: 0x100005F94, symSize: 0x80 }
  - { offsetInCU: 0x21D35, offset: 0x21D35, size: 0x8, addend: 0x0, symName: __ZNSt3__113unordered_mapIyNS_10shared_ptrIN5hf3fs17monitor_collector13WorkloadStatsEEENS_4hashIyEENS_8equal_toIyEENS_9allocatorINS_4pairIKyS5_EEEEED1B8ue170006Ev, symObjAddr: 0x3F00, symBinAddr: 0x100006014, symSize: 0x2C }
  - { offsetInCU: 0x21D5F, offset: 0x21D5F, size: 0x8, addend: 0x0, symName: __ZN53MLWorkloadAnalyticsTest_DetectsSequentialPattern_TestD1Ev, symObjAddr: 0x3F2C, symBinAddr: 0x100006040, symSize: 0x2C }
  - { offsetInCU: 0x21D89, offset: 0x21D89, size: 0x8, addend: 0x0, symName: __ZN53MLWorkloadAnalyticsTest_DetectsSequentialPattern_TestD0Ev, symObjAddr: 0x3F58, symBinAddr: 0x10000606C, symSize: 0x30 }
  - { offsetInCU: 0x21DB3, offset: 0x21DB3, size: 0x8, addend: 0x0, symName: __ZN23MLWorkloadAnalyticsTest5SetUpEv, symObjAddr: 0x3F88, symBinAddr: 0x10000609C, symSize: 0x23C }
  - { offsetInCU: 0x21DFC, offset: 0x21DFC, size: 0x8, addend: 0x0, symName: __ZN23MLWorkloadAnalyticsTest8TearDownEv, symObjAddr: 0x41C4, symBinAddr: 0x1000062D8, symSize: 0x1DC }
  - { offsetInCU: 0x21E44, offset: 0x21E44, size: 0x8, addend: 0x0, symName: __ZN7testing4Test5SetupEv, symObjAddr: 0x43A0, symBinAddr: 0x1000064B4, symSize: 0x14 }
  - { offsetInCU: 0x21E6A, offset: 0x21E6A, size: 0x8, addend: 0x0, symName: __ZN49MLWorkloadAnalyticsTest_DetectsRandomPattern_TestD1Ev, symObjAddr: 0x43B4, symBinAddr: 0x1000064C8, symSize: 0x2C }
  - { offsetInCU: 0x21E94, offset: 0x21E94, size: 0x8, addend: 0x0, symName: __ZN49MLWorkloadAnalyticsTest_DetectsRandomPattern_TestD0Ev, symObjAddr: 0x43E0, symBinAddr: 0x1000064F4, symSize: 0x30 }
  - { offsetInCU: 0x21EBE, offset: 0x21EBE, size: 0x8, addend: 0x0, symName: __ZN52MLWorkloadAnalyticsTest_DetectsTrainingWorkload_TestD1Ev, symObjAddr: 0x4410, symBinAddr: 0x100006524, symSize: 0x2C }
  - { offsetInCU: 0x21EE8, offset: 0x21EE8, size: 0x8, addend: 0x0, symName: __ZN52MLWorkloadAnalyticsTest_DetectsTrainingWorkload_TestD0Ev, symObjAddr: 0x443C, symBinAddr: 0x100006550, symSize: 0x30 }
  - { offsetInCU: 0x21F12, offset: 0x21F12, size: 0x8, addend: 0x0, symName: __ZN52MLWorkloadAnalyticsTest_DetectsPyTorchFramework_TestD1Ev, symObjAddr: 0x446C, symBinAddr: 0x100006580, symSize: 0x2C }
  - { offsetInCU: 0x21F3C, offset: 0x21F3C, size: 0x8, addend: 0x0, symName: __ZN52MLWorkloadAnalyticsTest_DetectsPyTorchFramework_TestD0Ev, symObjAddr: 0x4498, symBinAddr: 0x1000065AC, symSize: 0x30 }
  - { offsetInCU: 0x21F66, offset: 0x21F66, size: 0x8, addend: 0x0, symName: __ZN55MLWorkloadAnalyticsTest_DetectsTensorFlowFramework_TestD1Ev, symObjAddr: 0x44C8, symBinAddr: 0x1000065DC, symSize: 0x2C }
  - { offsetInCU: 0x21F90, offset: 0x21F90, size: 0x8, addend: 0x0, symName: __ZN55MLWorkloadAnalyticsTest_DetectsTensorFlowFramework_TestD0Ev, symObjAddr: 0x44F4, symBinAddr: 0x100006608, symSize: 0x30 }
  - { offsetInCU: 0x21FBA, offset: 0x21FBA, size: 0x8, addend: 0x0, symName: __ZN44MLWorkloadAnalyticsTest_GeneratesReport_TestD1Ev, symObjAddr: 0x4524, symBinAddr: 0x100006638, symSize: 0x2C }
  - { offsetInCU: 0x21FE4, offset: 0x21FE4, size: 0x8, addend: 0x0, symName: __ZN44MLWorkloadAnalyticsTest_GeneratesReport_TestD0Ev, symObjAddr: 0x4550, symBinAddr: 0x100006664, symSize: 0x30 }
  - { offsetInCU: 0x2200E, offset: 0x2200E, size: 0x8, addend: 0x0, symName: __ZN50MLWorkloadAnalyticsTest_TracksHistoricalStats_TestD1Ev, symObjAddr: 0x4580, symBinAddr: 0x100006694, symSize: 0x2C }
  - { offsetInCU: 0x22038, offset: 0x22038, size: 0x8, addend: 0x0, symName: __ZN50MLWorkloadAnalyticsTest_TracksHistoricalStats_TestD0Ev, symObjAddr: 0x45AC, symBinAddr: 0x1000066C0, symSize: 0x30 }
  - { offsetInCU: 0x22062, offset: 0x22062, size: 0x8, addend: 0x0, symName: __ZN50MLWorkloadAnalyticsTest_CleansUpIdleWorkloads_TestD1Ev, symObjAddr: 0x45DC, symBinAddr: 0x1000066F0, symSize: 0x2C }
  - { offsetInCU: 0x2208C, offset: 0x2208C, size: 0x8, addend: 0x0, symName: __ZN50MLWorkloadAnalyticsTest_CleansUpIdleWorkloads_TestD0Ev, symObjAddr: 0x4608, symBinAddr: 0x10000671C, symSize: 0x30 }
  - { offsetInCU: 0x220B6, offset: 0x220B6, size: 0x8, addend: 0x0, symName: __ZN51MLWorkloadAnalyticsTest_HandlesMultipleClients_TestD1Ev, symObjAddr: 0x4638, symBinAddr: 0x10000674C, symSize: 0x2C }
  - { offsetInCU: 0x220E0, offset: 0x220E0, size: 0x8, addend: 0x0, symName: __ZN51MLWorkloadAnalyticsTest_HandlesMultipleClients_TestD0Ev, symObjAddr: 0x4664, symBinAddr: 0x100006778, symSize: 0x30 }
  - { offsetInCU: 0x2210A, offset: 0x2210A, size: 0x8, addend: 0x0, symName: __ZN7testing8internal12CodeLocationC2ENSt3__112basic_stringIcNS2_11char_traitsIcEENS2_9allocatorIcEEEEi, symObjAddr: 0x4694, symBinAddr: 0x1000067A8, symSize: 0x40 }
  - { offsetInCU: 0x22153, offset: 0x22153, size: 0x8, addend: 0x0, symName: __ZNSt3__112basic_stringIcNS_11char_traitsIcEENS_9allocatorIcEEEC1B8ue170006EOS5_, symObjAddr: 0x46D4, symBinAddr: 0x1000067E8, symSize: 0x34 }
  - { offsetInCU: 0x2218C, offset: 0x2218C, size: 0x8, addend: 0x0, symName: __ZNSt3__112basic_stringIcNS_11char_traitsIcEENS_9allocatorIcEEEC2B8ue170006EOS5_, symObjAddr: 0x4708, symBinAddr: 0x10000681C, symSize: 0x50 }
  - { offsetInCU: 0x221C5, offset: 0x221C5, size: 0x8, addend: 0x0, symName: __ZNSt3__112basic_stringIcNS_11char_traitsIcEENS_9allocatorIcEEE14__default_initB8ue170006Ev, symObjAddr: 0x4758, symBinAddr: 0x10000686C, symSize: 0x40 }
  - { offsetInCU: 0x221EB, offset: 0x221EB, size: 0x8, addend: 0x0, symName: __ZNSt3__117__compressed_pairINS_12basic_stringIcNS_11char_traitsIcEENS_9allocatorIcEEE5__repES5_E5firstB8ue170006Ev, symObjAddr: 0x47A4, symBinAddr: 0x1000068B8, symSize: 0x24 }
  - { offsetInCU: 0x22211, offset: 0x22211, size: 0x8, addend: 0x0, symName: __ZNSt3__122__compressed_pair_elemINS_12basic_stringIcNS_11char_traitsIcEENS_9allocatorIcEEE5__repELi0ELb0EE5__getB8ue170006Ev, symObjAddr: 0x47C8, symBinAddr: 0x1000068DC, symSize: 0x14 }
  - { offsetInCU: 0x22237, offset: 0x22237, size: 0x8, addend: 0x0, symName: __ZN7testing8internal15TestFactoryImplI53MLWorkloadAnalyticsTest_DetectsSequentialPattern_TestEC2Ev, symObjAddr: 0x47DC, symBinAddr: 0x1000068F0, symSize: 0x44 }
  - { offsetInCU: 0x22264, offset: 0x22264, size: 0x8, addend: 0x0, symName: __ZN7testing8internal15TestFactoryBaseC2Ev, symObjAddr: 0x4820, symBinAddr: 0x100006934, symSize: 0x24 }
  - { offsetInCU: 0x2228E, offset: 0x2228E, size: 0x8, addend: 0x0, symName: __ZN7testing8internal15TestFactoryImplI53MLWorkloadAnalyticsTest_DetectsSequentialPattern_TestED1Ev, symObjAddr: 0x4844, symBinAddr: 0x100006958, symSize: 0x2C }
  - { offsetInCU: 0x222BB, offset: 0x222BB, size: 0x8, addend: 0x0, symName: __ZN7testing8internal15TestFactoryImplI53MLWorkloadAnalyticsTest_DetectsSequentialPattern_TestED0Ev, symObjAddr: 0x4870, symBinAddr: 0x100006984, symSize: 0x30 }
  - { offsetInCU: 0x222E8, offset: 0x222E8, size: 0x8, addend: 0x0, symName: __ZN7testing8internal15TestFactoryImplI53MLWorkloadAnalyticsTest_DetectsSequentialPattern_TestE10CreateTestEv, symObjAddr: 0x48A0, symBinAddr: 0x1000069B4, symSize: 0x58 }
  - { offsetInCU: 0x2230E, offset: 0x2230E, size: 0x8, addend: 0x0, symName: __ZN7testing8internal15TestFactoryBaseD1Ev, symObjAddr: 0x48F8, symBinAddr: 0x100006A0C, symSize: 0x14 }
  - { offsetInCU: 0x22338, offset: 0x22338, size: 0x8, addend: 0x0, symName: __ZN7testing8internal15TestFactoryBaseD0Ev, symObjAddr: 0x490C, symBinAddr: 0x100006A20, symSize: 0xC }
  - { offsetInCU: 0x22362, offset: 0x22362, size: 0x8, addend: 0x0, symName: __ZN7testing8internal15TestFactoryImplI53MLWorkloadAnalyticsTest_DetectsSequentialPattern_TestED2Ev, symObjAddr: 0x4918, symBinAddr: 0x100006A2C, symSize: 0x2C }
  - { offsetInCU: 0x2238F, offset: 0x2238F, size: 0x8, addend: 0x0, symName: __ZN7testing8internal15TestFactoryBaseD2Ev, symObjAddr: 0x4944, symBinAddr: 0x100006A58, symSize: 0x14 }
  - { offsetInCU: 0x223B9, offset: 0x223B9, size: 0x8, addend: 0x0, symName: __ZN53MLWorkloadAnalyticsTest_DetectsSequentialPattern_TestC1Ev, symObjAddr: 0x4958, symBinAddr: 0x100006A6C, symSize: 0x2C }
  - { offsetInCU: 0x223E3, offset: 0x223E3, size: 0x8, addend: 0x0, symName: __ZN53MLWorkloadAnalyticsTest_DetectsSequentialPattern_TestC2Ev, symObjAddr: 0x4984, symBinAddr: 0x100006A98, symSize: 0x44 }
  - { offsetInCU: 0x2240D, offset: 0x2240D, size: 0x8, addend: 0x0, symName: __ZN23MLWorkloadAnalyticsTestC2Ev, symObjAddr: 0x49C8, symBinAddr: 0x100006ADC, symSize: 0x5C }
  - { offsetInCU: 0x22439, offset: 0x22439, size: 0x8, addend: 0x0, symName: __ZN5hf3fs17monitor_collector19MLWorkloadAnalytics6ConfigC1Ev, symObjAddr: 0x4A24, symBinAddr: 0x100006B38, symSize: 0x2C }
  - { offsetInCU: 0x22466, offset: 0x22466, size: 0x8, addend: 0x0, symName: __ZNSt3__110unique_ptrIN5hf3fs17monitor_collector19MLWorkloadAnalyticsENS_14default_deleteIS3_EEEC1B8ue170006ILb1EvEEv, symObjAddr: 0x4A50, symBinAddr: 0x100006B64, symSize: 0x2C }
  - { offsetInCU: 0x2249B, offset: 0x2249B, size: 0x8, addend: 0x0, symName: __ZN23MLWorkloadAnalyticsTestD1Ev, symObjAddr: 0x4A7C, symBinAddr: 0x100006B90, symSize: 0x14 }
  - { offsetInCU: 0x224C7, offset: 0x224C7, size: 0x8, addend: 0x0, symName: __ZN23MLWorkloadAnalyticsTestD0Ev, symObjAddr: 0x4A90, symBinAddr: 0x100006BA4, symSize: 0xC }
  - { offsetInCU: 0x224F3, offset: 0x224F3, size: 0x8, addend: 0x0, symName: __ZN5hf3fs17monitor_collector19MLWorkloadAnalytics6ConfigC2Ev, symObjAddr: 0x4A9C, symBinAddr: 0x100006BB0, symSize: 0x54 }
  - { offsetInCU: 0x22520, offset: 0x22520, size: 0x8, addend: 0x0, symName: __ZNSt3__110unique_ptrIN5hf3fs17monitor_collector19MLWorkloadAnalyticsENS_14default_deleteIS3_EEEC2B8ue170006ILb1EvEEv, symObjAddr: 0x4AF0, symBinAddr: 0x100006C04, symSize: 0x3C }
  - { offsetInCU: 0x2255B, offset: 0x2255B, size: 0x8, addend: 0x0, symName: __ZNSt3__117__compressed_pairIPN5hf3fs17monitor_collector19MLWorkloadAnalyticsENS_14default_deleteIS3_EEEC1B8ue170006INS_16__value_init_tagES9_EEOT_OT0_, symObjAddr: 0x4B2C, symBinAddr: 0x100006C40, symSize: 0x3C }
  - { offsetInCU: 0x225B3, offset: 0x225B3, size: 0x8, addend: 0x0, symName: __ZNSt3__117__compressed_pairIPN5hf3fs17monitor_collector19MLWorkloadAnalyticsENS_14default_deleteIS3_EEEC2B8ue170006INS_16__value_init_tagES9_EEOT_OT0_, symObjAddr: 0x4B68, symBinAddr: 0x100006C7C, symSize: 0x3C }
  - { offsetInCU: 0x2260B, offset: 0x2260B, size: 0x8, addend: 0x0, symName: __ZNSt3__122__compressed_pair_elemIPN5hf3fs17monitor_collector19MLWorkloadAnalyticsELi0ELb0EEC2B8ue170006ENS_16__value_init_tagE, symObjAddr: 0x4BA4, symBinAddr: 0x100006CB8, symSize: 0x18 }
  - { offsetInCU: 0x22640, offset: 0x22640, size: 0x8, addend: 0x0, symName: __ZNSt3__122__compressed_pair_elemINS_14default_deleteIN5hf3fs17monitor_collector19MLWorkloadAnalyticsEEELi1ELb1EEC2B8ue170006ENS_16__value_init_tagE, symObjAddr: 0x4BBC, symBinAddr: 0x100006CD0, symSize: 0x14 }
  - { offsetInCU: 0x22675, offset: 0x22675, size: 0x8, addend: 0x0, symName: __ZN7testing8internal12CodeLocationD2Ev, symObjAddr: 0x4BD0, symBinAddr: 0x100006CE4, symSize: 0x2C }
  - { offsetInCU: 0x226A7, offset: 0x226A7, size: 0x8, addend: 0x0, symName: __ZN5hf3fs17monitor_collector15OperationRecordC1Ev, symObjAddr: 0x4BFC, symBinAddr: 0x100006D10, symSize: 0x2C }
  - { offsetInCU: 0x226D4, offset: 0x226D4, size: 0x8, addend: 0x0, symName: __ZNSt3__112basic_stringIcNS_11char_traitsIcEENS_9allocatorIcEEEaSB8ue170006EPKc, symObjAddr: 0x4C28, symBinAddr: 0x100006D3C, symSize: 0x2C }
  - { offsetInCU: 0x22709, offset: 0x22709, size: 0x8, addend: 0x0, symName: __ZN5hf3fs17monitor_collector15OperationRecordD1Ev, symObjAddr: 0x4C54, symBinAddr: 0x100006D68, symSize: 0x2C }
  - { offsetInCU: 0x22736, offset: 0x22736, size: 0x8, addend: 0x0, symName: __ZN5hf3fs17monitor_collector15OperationRecordC2Ev, symObjAddr: 0x4C80, symBinAddr: 0x100006D94, symSize: 0x3C }
  - { offsetInCU: 0x22763, offset: 0x22763, size: 0x8, addend: 0x0, symName: __ZNSt3__112basic_stringIcNS_11char_traitsIcEENS_9allocatorIcEEEC1B8ue170006Ev, symObjAddr: 0x4CBC, symBinAddr: 0x100006DD0, symSize: 0x2C }
  - { offsetInCU: 0x2278D, offset: 0x2278D, size: 0x8, addend: 0x0, symName: __ZNSt3__112basic_stringIcNS_11char_traitsIcEENS_9allocatorIcEEEC2B8ue170006Ev, symObjAddr: 0x4CE8, symBinAddr: 0x100006DFC, symSize: 0x44 }
  - { offsetInCU: 0x227BD, offset: 0x227BD, size: 0x8, addend: 0x0, symName: __ZNSt3__117__compressed_pairINS_12basic_stringIcNS_11char_traitsIcEENS_9allocatorIcEEE5__repES5_EC1B8ue170006INS_18__default_init_tagESA_EEOT_OT0_, symObjAddr: 0x4D2C, symBinAddr: 0x100006E40, symSize: 0x3C }
  - { offsetInCU: 0x22815, offset: 0x22815, size: 0x8, addend: 0x0, symName: __ZNSt3__117__compressed_pairINS_12basic_stringIcNS_11char_traitsIcEENS_9allocatorIcEEE5__repES5_EC2B8ue170006INS_18__default_init_tagESA_EEOT_OT0_, symObjAddr: 0x4D68, symBinAddr: 0x100006E7C, symSize: 0x3C }
  - { offsetInCU: 0x2286D, offset: 0x2286D, size: 0x8, addend: 0x0, symName: __ZNSt3__122__compressed_pair_elemINS_12basic_stringIcNS_11char_traitsIcEENS_9allocatorIcEEE5__repELi0ELb0EEC2B8ue170006ENS_18__default_init_tagE, symObjAddr: 0x4DA4, symBinAddr: 0x100006EB8, symSize: 0x14 }
  - { offsetInCU: 0x228A2, offset: 0x228A2, size: 0x8, addend: 0x0, symName: __ZNSt3__122__compressed_pair_elemINS_9allocatorIcEELi1ELb1EEC2B8ue170006ENS_18__default_init_tagE, symObjAddr: 0x4DB8, symBinAddr: 0x100006ECC, symSize: 0x2C }
  - { offsetInCU: 0x228D7, offset: 0x228D7, size: 0x8, addend: 0x0, symName: __ZNSt3__19allocatorIcEC2B8ue170006Ev, symObjAddr: 0x4DE4, symBinAddr: 0x100006EF8, symSize: 0x2C }
  - { offsetInCU: 0x22901, offset: 0x22901, size: 0x8, addend: 0x0, symName: __ZNSt3__116__non_trivial_ifILb1ENS_9allocatorIcEEEC2B8ue170006Ev, symObjAddr: 0x4E10, symBinAddr: 0x100006F24, symSize: 0x14 }
  - { offsetInCU: 0x2292B, offset: 0x2292B, size: 0x8, addend: 0x0, symName: __ZN5hf3fs17monitor_collector15OperationRecordD2Ev, symObjAddr: 0x4E24, symBinAddr: 0x100006F38, symSize: 0x3C }
  - { offsetInCU: 0x22958, offset: 0x22958, size: 0x8, addend: 0x0, symName: __ZNSt3__16chrono8durationIxNS_5ratioILl1ELl1000EEEEC2B8ue170006IiEERKT_PNS_9enable_ifIXaasr14is_convertibleIS8_xEE5valueooL_ZNS_17integral_constantIbLb0EE5valueEEntsr23treat_as_floating_pointIS6_EE5valueEvE4typeE, symObjAddr: 0x4E60, symBinAddr: 0x100006F74, symSize: 0x28 }
  - { offsetInCU: 0x229A4, offset: 0x229A4, size: 0x8, addend: 0x0, symName: __ZN7testing7MessageD2Ev, symObjAddr: 0x4E88, symBinAddr: 0x100006F9C, symSize: 0x2C }
  - { offsetInCU: 0x229D0, offset: 0x229D0, size: 0x8, addend: 0x0, symName: __ZNSt3__110unique_ptrINS_18basic_stringstreamIcNS_11char_traitsIcEENS_9allocatorIcEEEENS_14default_deleteIS6_EEED1B8ue170006Ev, symObjAddr: 0x4EB4, symBinAddr: 0x100006FC8, symSize: 0x2C }
  - { offsetInCU: 0x229FA, offset: 0x229FA, size: 0x8, addend: 0x0, symName: __ZNSt3__110unique_ptrINS_18basic_stringstreamIcNS_11char_traitsIcEENS_9allocatorIcEEEENS_14default_deleteIS6_EEED2B8ue170006Ev, symObjAddr: 0x4EE0, symBinAddr: 0x100006FF4, symSize: 0x30 }
  - { offsetInCU: 0x22A24, offset: 0x22A24, size: 0x8, addend: 0x0, symName: __ZNSt3__110unique_ptrINS_18basic_stringstreamIcNS_11char_traitsIcEENS_9allocatorIcEEEENS_14default_deleteIS6_EEE5resetB8ue170006EPS6_, symObjAddr: 0x4F10, symBinAddr: 0x100007024, symSize: 0x78 }
  - { offsetInCU: 0x22A68, offset: 0x22A68, size: 0x8, addend: 0x0, symName: __ZNSt3__117__compressed_pairIPNS_18basic_stringstreamIcNS_11char_traitsIcEENS_9allocatorIcEEEENS_14default_deleteIS6_EEE5firstB8ue170006Ev, symObjAddr: 0x4F88, symBinAddr: 0x10000709C, symSize: 0x24 }
  - { offsetInCU: 0x22A8E, offset: 0x22A8E, size: 0x8, addend: 0x0, symName: __ZNSt3__117__compressed_pairIPNS_18basic_stringstreamIcNS_11char_traitsIcEENS_9allocatorIcEEEENS_14default_deleteIS6_EEE6secondB8ue170006Ev, symObjAddr: 0x4FAC, symBinAddr: 0x1000070C0, symSize: 0x24 }
  - { offsetInCU: 0x22AB4, offset: 0x22AB4, size: 0x8, addend: 0x0, symName: __ZNKSt3__114default_deleteINS_18basic_stringstreamIcNS_11char_traitsIcEENS_9allocatorIcEEEEEclB8ue170006EPS6_, symObjAddr: 0x4FD0, symBinAddr: 0x1000070E4, symSize: 0x4C }
  - { offsetInCU: 0x22AE8, offset: 0x22AE8, size: 0x8, addend: 0x0, symName: __ZNSt3__122__compressed_pair_elemIPNS_18basic_stringstreamIcNS_11char_traitsIcEENS_9allocatorIcEEEELi0ELb0EE5__getB8ue170006Ev, symObjAddr: 0x501C, symBinAddr: 0x100007130, symSize: 0x14 }
  - { offsetInCU: 0x22B0E, offset: 0x22B0E, size: 0x8, addend: 0x0, symName: __ZNSt3__122__compressed_pair_elemINS_14default_deleteINS_18basic_stringstreamIcNS_11char_traitsIcEENS_9allocatorIcEEEEEELi1ELb1EE5__getB8ue170006Ev, symObjAddr: 0x5030, symBinAddr: 0x100007144, symSize: 0x14 }
  - { offsetInCU: 0x22B34, offset: 0x22B34, size: 0x8, addend: 0x0, symName: __ZN7testing15AssertionResultD2Ev, symObjAddr: 0x5044, symBinAddr: 0x100007158, symSize: 0x30 }
  - { offsetInCU: 0x22B60, offset: 0x22B60, size: 0x8, addend: 0x0, symName: __ZNSt3__110unique_ptrINS_12basic_stringIcNS_11char_traitsIcEENS_9allocatorIcEEEENS_14default_deleteIS6_EEED1B8ue170006Ev, symObjAddr: 0x5074, symBinAddr: 0x100007188, symSize: 0x2C }
  - { offsetInCU: 0x22B8A, offset: 0x22B8A, size: 0x8, addend: 0x0, symName: __ZNSt3__110unique_ptrINS_12basic_stringIcNS_11char_traitsIcEENS_9allocatorIcEEEENS_14default_deleteIS6_EEED2B8ue170006Ev, symObjAddr: 0x50A0, symBinAddr: 0x1000071B4, symSize: 0x30 }
  - { offsetInCU: 0x22BB4, offset: 0x22BB4, size: 0x8, addend: 0x0, symName: __ZNSt3__110unique_ptrINS_12basic_stringIcNS_11char_traitsIcEENS_9allocatorIcEEEENS_14default_deleteIS6_EEE5resetB8ue170006EPS6_, symObjAddr: 0x50D0, symBinAddr: 0x1000071E4, symSize: 0x78 }
  - { offsetInCU: 0x22BF8, offset: 0x22BF8, size: 0x8, addend: 0x0, symName: __ZNSt3__117__compressed_pairIPNS_12basic_stringIcNS_11char_traitsIcEENS_9allocatorIcEEEENS_14default_deleteIS6_EEE5firstB8ue170006Ev, symObjAddr: 0x5148, symBinAddr: 0x10000725C, symSize: 0x24 }
  - { offsetInCU: 0x22C1E, offset: 0x22C1E, size: 0x8, addend: 0x0, symName: __ZNSt3__117__compressed_pairIPNS_12basic_stringIcNS_11char_traitsIcEENS_9allocatorIcEEEENS_14default_deleteIS6_EEE6secondB8ue170006Ev, symObjAddr: 0x516C, symBinAddr: 0x100007280, symSize: 0x24 }
  - { offsetInCU: 0x22C44, offset: 0x22C44, size: 0x8, addend: 0x0, symName: __ZNKSt3__114default_deleteINS_12basic_stringIcNS_11char_traitsIcEENS_9allocatorIcEEEEEclB8ue170006EPS6_, symObjAddr: 0x5190, symBinAddr: 0x1000072A4, symSize: 0x4C }
  - { offsetInCU: 0x22C78, offset: 0x22C78, size: 0x8, addend: 0x0, symName: __ZNSt3__122__compressed_pair_elemIPNS_12basic_stringIcNS_11char_traitsIcEENS_9allocatorIcEEEELi0ELb0EE5__getB8ue170006Ev, symObjAddr: 0x51DC, symBinAddr: 0x1000072F0, symSize: 0x14 }
  - { offsetInCU: 0x22C9E, offset: 0x22C9E, size: 0x8, addend: 0x0, symName: __ZNSt3__122__compressed_pair_elemINS_14default_deleteINS_12basic_stringIcNS_11char_traitsIcEENS_9allocatorIcEEEEEELi1ELb1EE5__getB8ue170006Ev, symObjAddr: 0x51F0, symBinAddr: 0x100007304, symSize: 0x14 }
  - { offsetInCU: 0x22CC4, offset: 0x22CC4, size: 0x8, addend: 0x0, symName: __ZNK7testing15AssertionResult7messageEv, symObjAddr: 0x5204, symBinAddr: 0x100007318, symSize: 0x64 }
  - { offsetInCU: 0x22CEA, offset: 0x22CEA, size: 0x8, addend: 0x0, symName: __ZNKSt3__110unique_ptrINS_12basic_stringIcNS_11char_traitsIcEENS_9allocatorIcEEEENS_14default_deleteIS6_EEEptB8ue170006Ev, symObjAddr: 0x5294, symBinAddr: 0x1000073A8, symSize: 0x28 }
  - { offsetInCU: 0x22D10, offset: 0x22D10, size: 0x8, addend: 0x0, symName: __ZNKSt3__110unique_ptrINS_12basic_stringIcNS_11char_traitsIcEENS_9allocatorIcEEEENS_14default_deleteIS6_EEEcvbB8ue170006Ev, symObjAddr: 0x52BC, symBinAddr: 0x1000073D0, symSize: 0x34 }
  - { offsetInCU: 0x22D36, offset: 0x22D36, size: 0x8, addend: 0x0, symName: __ZNKSt3__117__compressed_pairIPNS_12basic_stringIcNS_11char_traitsIcEENS_9allocatorIcEEEENS_14default_deleteIS6_EEE5firstB8ue170006Ev, symObjAddr: 0x52F0, symBinAddr: 0x100007404, symSize: 0x24 }
  - { offsetInCU: 0x22D5C, offset: 0x22D5C, size: 0x8, addend: 0x0, symName: __ZNKSt3__122__compressed_pair_elemIPNS_12basic_stringIcNS_11char_traitsIcEENS_9allocatorIcEEEELi0ELb0EE5__getB8ue170006Ev, symObjAddr: 0x5314, symBinAddr: 0x100007428, symSize: 0x14 }
  - { offsetInCU: 0x22D82, offset: 0x22D82, size: 0x8, addend: 0x0, symName: __ZN7testing8internal15TestFactoryImplI49MLWorkloadAnalyticsTest_DetectsRandomPattern_TestEC2Ev, symObjAddr: 0x5328, symBinAddr: 0x10000743C, symSize: 0x44 }
  - { offsetInCU: 0x22DAF, offset: 0x22DAF, size: 0x8, addend: 0x0, symName: __ZN7testing8internal15TestFactoryImplI49MLWorkloadAnalyticsTest_DetectsRandomPattern_TestED1Ev, symObjAddr: 0x536C, symBinAddr: 0x100007480, symSize: 0x2C }
  - { offsetInCU: 0x22DDC, offset: 0x22DDC, size: 0x8, addend: 0x0, symName: __ZN7testing8internal15TestFactoryImplI49MLWorkloadAnalyticsTest_DetectsRandomPattern_TestED0Ev, symObjAddr: 0x5398, symBinAddr: 0x1000074AC, symSize: 0x30 }
  - { offsetInCU: 0x22E09, offset: 0x22E09, size: 0x8, addend: 0x0, symName: __ZN7testing8internal15TestFactoryImplI49MLWorkloadAnalyticsTest_DetectsRandomPattern_TestE10CreateTestEv, symObjAddr: 0x53C8, symBinAddr: 0x1000074DC, symSize: 0x58 }
  - { offsetInCU: 0x22E2F, offset: 0x22E2F, size: 0x8, addend: 0x0, symName: __ZN7testing8internal15TestFactoryImplI49MLWorkloadAnalyticsTest_DetectsRandomPattern_TestED2Ev, symObjAddr: 0x5420, symBinAddr: 0x100007534, symSize: 0x2C }
  - { offsetInCU: 0x22E5C, offset: 0x22E5C, size: 0x8, addend: 0x0, symName: __ZN49MLWorkloadAnalyticsTest_DetectsRandomPattern_TestC1Ev, symObjAddr: 0x544C, symBinAddr: 0x100007560, symSize: 0x2C }
  - { offsetInCU: 0x22E86, offset: 0x22E86, size: 0x8, addend: 0x0, symName: __ZN49MLWorkloadAnalyticsTest_DetectsRandomPattern_TestC2Ev, symObjAddr: 0x5478, symBinAddr: 0x10000758C, symSize: 0x44 }
  - { offsetInCU: 0x22EB0, offset: 0x22EB0, size: 0x8, addend: 0x0, symName: __ZN7testing8internal15TestFactoryImplI52MLWorkloadAnalyticsTest_DetectsTrainingWorkload_TestEC2Ev, symObjAddr: 0x54BC, symBinAddr: 0x1000075D0, symSize: 0x44 }
  - { offsetInCU: 0x22EDD, offset: 0x22EDD, size: 0x8, addend: 0x0, symName: __ZN7testing8internal15TestFactoryImplI52MLWorkloadAnalyticsTest_DetectsTrainingWorkload_TestED1Ev, symObjAddr: 0x5500, symBinAddr: 0x100007614, symSize: 0x2C }
  - { offsetInCU: 0x22F0A, offset: 0x22F0A, size: 0x8, addend: 0x0, symName: __ZN7testing8internal15TestFactoryImplI52MLWorkloadAnalyticsTest_DetectsTrainingWorkload_TestED0Ev, symObjAddr: 0x552C, symBinAddr: 0x100007640, symSize: 0x30 }
  - { offsetInCU: 0x22F37, offset: 0x22F37, size: 0x8, addend: 0x0, symName: __ZN7testing8internal15TestFactoryImplI52MLWorkloadAnalyticsTest_DetectsTrainingWorkload_TestE10CreateTestEv, symObjAddr: 0x555C, symBinAddr: 0x100007670, symSize: 0x58 }
  - { offsetInCU: 0x22F5D, offset: 0x22F5D, size: 0x8, addend: 0x0, symName: __ZN7testing8internal15TestFactoryImplI52MLWorkloadAnalyticsTest_DetectsTrainingWorkload_TestED2Ev, symObjAddr: 0x55B4, symBinAddr: 0x1000076C8, symSize: 0x2C }
  - { offsetInCU: 0x22F8A, offset: 0x22F8A, size: 0x8, addend: 0x0, symName: __ZN52MLWorkloadAnalyticsTest_DetectsTrainingWorkload_TestC1Ev, symObjAddr: 0x55E0, symBinAddr: 0x1000076F4, symSize: 0x2C }
  - { offsetInCU: 0x22FB4, offset: 0x22FB4, size: 0x8, addend: 0x0, symName: __ZN52MLWorkloadAnalyticsTest_DetectsTrainingWorkload_TestC2Ev, symObjAddr: 0x560C, symBinAddr: 0x100007720, symSize: 0x44 }
  - { offsetInCU: 0x22FDE, offset: 0x22FDE, size: 0x8, addend: 0x0, symName: __ZNSt3__112basic_stringIcNS_11char_traitsIcEENS_9allocatorIcEEEaSB8ue170006EOS5_, symObjAddr: 0x56D4, symBinAddr: 0x1000077E8, symSize: 0x34 }
  - { offsetInCU: 0x23013, offset: 0x23013, size: 0x8, addend: 0x0, symName: __ZNSt3__112basic_stringIcNS_11char_traitsIcEENS_9allocatorIcEEE13__move_assignB8ue170006ERS5_NS_17integral_constantIbLb1EEE, symObjAddr: 0x5708, symBinAddr: 0x10000781C, symSize: 0xC8 }
  - { offsetInCU: 0x23055, offset: 0x23055, size: 0x8, addend: 0x0, symName: __ZNKSt3__112basic_stringIcNS_11char_traitsIcEENS_9allocatorIcEEE9__is_longB8ue170006Ev, symObjAddr: 0x57D0, symBinAddr: 0x1000078E4, symSize: 0x38 }
  - { offsetInCU: 0x2307B, offset: 0x2307B, size: 0x8, addend: 0x0, symName: __ZNSt3__116allocator_traitsINS_9allocatorIcEEE10deallocateB8ue170006ERS2_Pcm, symObjAddr: 0x5808, symBinAddr: 0x10000791C, symSize: 0x34 }
  - { offsetInCU: 0x230BD, offset: 0x230BD, size: 0x8, addend: 0x0, symName: __ZNSt3__112basic_stringIcNS_11char_traitsIcEENS_9allocatorIcEEE7__allocB8ue170006Ev, symObjAddr: 0x583C, symBinAddr: 0x100007950, symSize: 0x24 }
  - { offsetInCU: 0x230E3, offset: 0x230E3, size: 0x8, addend: 0x0, symName: __ZNSt3__112basic_stringIcNS_11char_traitsIcEENS_9allocatorIcEEE18__get_long_pointerB8ue170006Ev, symObjAddr: 0x5860, symBinAddr: 0x100007974, symSize: 0x28 }
  - { offsetInCU: 0x23109, offset: 0x23109, size: 0x8, addend: 0x0, symName: __ZNKSt3__112basic_stringIcNS_11char_traitsIcEENS_9allocatorIcEEE14__get_long_capB8ue170006Ev, symObjAddr: 0x5888, symBinAddr: 0x10000799C, symSize: 0x30 }
  - { offsetInCU: 0x2312F, offset: 0x2312F, size: 0x8, addend: 0x0, symName: __ZNSt3__112basic_stringIcNS_11char_traitsIcEENS_9allocatorIcEEE19__move_assign_allocB8ue170006ERS5_, symObjAddr: 0x58B8, symBinAddr: 0x1000079CC, symSize: 0x2C }
  - { offsetInCU: 0x23164, offset: 0x23164, size: 0x8, addend: 0x0, symName: __ZNSt3__112basic_stringIcNS_11char_traitsIcEENS_9allocatorIcEEE16__set_short_sizeB8ue170006Em, symObjAddr: 0x58E4, symBinAddr: 0x1000079F8, symSize: 0x78 }
  - { offsetInCU: 0x23199, offset: 0x23199, size: 0x8, addend: 0x0, symName: __ZNSt3__111char_traitsIcE6assignB8ue170006ERcRKc, symObjAddr: 0x595C, symBinAddr: 0x100007A70, symSize: 0x24 }
  - { offsetInCU: 0x231CA, offset: 0x231CA, size: 0x8, addend: 0x0, symName: __ZNSt3__112basic_stringIcNS_11char_traitsIcEENS_9allocatorIcEEE19__get_short_pointerB8ue170006Ev, symObjAddr: 0x5980, symBinAddr: 0x100007A94, symSize: 0x28 }
  - { offsetInCU: 0x231F0, offset: 0x231F0, size: 0x8, addend: 0x0, symName: __ZNKSt3__117__compressed_pairINS_12basic_stringIcNS_11char_traitsIcEENS_9allocatorIcEEE5__repES5_E5firstB8ue170006Ev, symObjAddr: 0x59A8, symBinAddr: 0x100007ABC, symSize: 0x24 }
  - { offsetInCU: 0x23216, offset: 0x23216, size: 0x8, addend: 0x0, symName: __ZNKSt3__122__compressed_pair_elemINS_12basic_stringIcNS_11char_traitsIcEENS_9allocatorIcEEE5__repELi0ELb0EE5__getB8ue170006Ev, symObjAddr: 0x59CC, symBinAddr: 0x100007AE0, symSize: 0x14 }
  - { offsetInCU: 0x2323C, offset: 0x2323C, size: 0x8, addend: 0x0, symName: __ZNSt3__19allocatorIcE10deallocateB8ue170006EPcm, symObjAddr: 0x59E0, symBinAddr: 0x100007AF4, symSize: 0x40 }
  - { offsetInCU: 0x2327E, offset: 0x2327E, size: 0x8, addend: 0x0, symName: __ZNSt3__117__compressed_pairINS_12basic_stringIcNS_11char_traitsIcEENS_9allocatorIcEEE5__repES5_E6secondB8ue170006Ev, symObjAddr: 0x5B48, symBinAddr: 0x100007C5C, symSize: 0x24 }
  - { offsetInCU: 0x232A4, offset: 0x232A4, size: 0x8, addend: 0x0, symName: __ZNSt3__122__compressed_pair_elemINS_9allocatorIcEELi1ELb1EE5__getB8ue170006Ev, symObjAddr: 0x5B6C, symBinAddr: 0x100007C80, symSize: 0x14 }
  - { offsetInCU: 0x232CA, offset: 0x232CA, size: 0x8, addend: 0x0, symName: __ZNSt3__112basic_stringIcNS_11char_traitsIcEENS_9allocatorIcEEE19__move_assign_allocB8ue170006ERS5_NS_17integral_constantIbLb1EEE, symObjAddr: 0x5B80, symBinAddr: 0x100007C94, symSize: 0x38 }
  - { offsetInCU: 0x2330A, offset: 0x2330A, size: 0x8, addend: 0x0, symName: __ZNSt3__114pointer_traitsIPcE10pointer_toB8ue170006ERc, symObjAddr: 0x5BB8, symBinAddr: 0x100007CCC, symSize: 0x14 }
  - { offsetInCU: 0x2332D, offset: 0x2332D, size: 0x8, addend: 0x0, symName: __ZN7testing8internal15TestFactoryImplI52MLWorkloadAnalyticsTest_DetectsPyTorchFramework_TestEC2Ev, symObjAddr: 0x5BCC, symBinAddr: 0x100007CE0, symSize: 0x44 }
  - { offsetInCU: 0x2335A, offset: 0x2335A, size: 0x8, addend: 0x0, symName: __ZN7testing8internal15TestFactoryImplI52MLWorkloadAnalyticsTest_DetectsPyTorchFramework_TestED1Ev, symObjAddr: 0x5C10, symBinAddr: 0x100007D24, symSize: 0x2C }
  - { offsetInCU: 0x23387, offset: 0x23387, size: 0x8, addend: 0x0, symName: __ZN7testing8internal15TestFactoryImplI52MLWorkloadAnalyticsTest_DetectsPyTorchFramework_TestED0Ev, symObjAddr: 0x5C3C, symBinAddr: 0x100007D50, symSize: 0x30 }
  - { offsetInCU: 0x233B4, offset: 0x233B4, size: 0x8, addend: 0x0, symName: __ZN7testing8internal15TestFactoryImplI52MLWorkloadAnalyticsTest_DetectsPyTorchFramework_TestE10CreateTestEv, symObjAddr: 0x5C6C, symBinAddr: 0x100007D80, symSize: 0x58 }
  - { offsetInCU: 0x233DA, offset: 0x233DA, size: 0x8, addend: 0x0, symName: __ZN7testing8internal15TestFactoryImplI52MLWorkloadAnalyticsTest_DetectsPyTorchFramework_TestED2Ev, symObjAddr: 0x5CC4, symBinAddr: 0x100007DD8, symSize: 0x2C }
  - { offsetInCU: 0x23407, offset: 0x23407, size: 0x8, addend: 0x0, symName: __ZN52MLWorkloadAnalyticsTest_DetectsPyTorchFramework_TestC1Ev, symObjAddr: 0x5CF0, symBinAddr: 0x100007E04, symSize: 0x2C }
  - { offsetInCU: 0x23431, offset: 0x23431, size: 0x8, addend: 0x0, symName: __ZN52MLWorkloadAnalyticsTest_DetectsPyTorchFramework_TestC2Ev, symObjAddr: 0x5D1C, symBinAddr: 0x100007E30, symSize: 0x44 }
  - { offsetInCU: 0x2345B, offset: 0x2345B, size: 0x8, addend: 0x0, symName: __ZNSt3__112basic_stringIcNS_11char_traitsIcEENS_9allocatorIcEEE6appendB8ue170006ERKS5_, symObjAddr: 0x5EFC, symBinAddr: 0x100008010, symSize: 0x4C }
  - { offsetInCU: 0x23490, offset: 0x23490, size: 0x8, addend: 0x0, symName: __ZNKSt3__112basic_stringIcNS_11char_traitsIcEENS_9allocatorIcEEE4dataB8ue170006Ev, symObjAddr: 0x5F48, symBinAddr: 0x10000805C, symSize: 0x28 }
  - { offsetInCU: 0x234B6, offset: 0x234B6, size: 0x8, addend: 0x0, symName: __ZNKSt3__112basic_stringIcNS_11char_traitsIcEENS_9allocatorIcEEE4sizeB8ue170006Ev, symObjAddr: 0x5F70, symBinAddr: 0x100008084, symSize: 0x54 }
  - { offsetInCU: 0x234DC, offset: 0x234DC, size: 0x8, addend: 0x0, symName: __ZNKSt3__112basic_stringIcNS_11char_traitsIcEENS_9allocatorIcEEE13__get_pointerB8ue170006Ev, symObjAddr: 0x5FD8, symBinAddr: 0x1000080EC, symSize: 0x54 }
  - { offsetInCU: 0x23502, offset: 0x23502, size: 0x8, addend: 0x0, symName: __ZNKSt3__112basic_stringIcNS_11char_traitsIcEENS_9allocatorIcEEE18__get_long_pointerB8ue170006Ev, symObjAddr: 0x602C, symBinAddr: 0x100008140, symSize: 0x28 }
  - { offsetInCU: 0x23528, offset: 0x23528, size: 0x8, addend: 0x0, symName: __ZNKSt3__112basic_stringIcNS_11char_traitsIcEENS_9allocatorIcEEE19__get_short_pointerB8ue170006Ev, symObjAddr: 0x6054, symBinAddr: 0x100008168, symSize: 0x28 }
  - { offsetInCU: 0x2354E, offset: 0x2354E, size: 0x8, addend: 0x0, symName: __ZNSt3__114pointer_traitsIPKcE10pointer_toB8ue170006ERS1_, symObjAddr: 0x607C, symBinAddr: 0x100008190, symSize: 0x14 }
  - { offsetInCU: 0x23571, offset: 0x23571, size: 0x8, addend: 0x0, symName: __ZNKSt3__112basic_stringIcNS_11char_traitsIcEENS_9allocatorIcEEE15__get_long_sizeB8ue170006Ev, symObjAddr: 0x6090, symBinAddr: 0x1000081A4, symSize: 0x28 }
  - { offsetInCU: 0x23597, offset: 0x23597, size: 0x8, addend: 0x0, symName: __ZNKSt3__112basic_stringIcNS_11char_traitsIcEENS_9allocatorIcEEE16__get_short_sizeB8ue170006Ev, symObjAddr: 0x60B8, symBinAddr: 0x1000081CC, symSize: 0x34 }
  - { offsetInCU: 0x235BD, offset: 0x235BD, size: 0x8, addend: 0x0, symName: __ZNSt3__111char_traitsIcE6lengthB8ue170006EPKc, symObjAddr: 0x60EC, symBinAddr: 0x100008200, symSize: 0x34 }
  - { offsetInCU: 0x235EB, offset: 0x235EB, size: 0x8, addend: 0x0, symName: __ZNSt3__116allocator_traitsINS_9allocatorIcEEE37select_on_container_copy_constructionB8ue170006IS2_vvEES2_RKS2_, symObjAddr: 0x6120, symBinAddr: 0x100008234, symSize: 0x10 }
  - { offsetInCU: 0x2361A, offset: 0x2361A, size: 0x8, addend: 0x0, symName: __ZNKSt3__112basic_stringIcNS_11char_traitsIcEENS_9allocatorIcEEE13get_allocatorB8ue170006Ev, symObjAddr: 0x6130, symBinAddr: 0x100008244, symSize: 0x24 }
  - { offsetInCU: 0x23640, offset: 0x23640, size: 0x8, addend: 0x0, symName: __ZNSt3__112basic_stringIcNS_11char_traitsIcEENS_9allocatorIcEEEC1B8ue170006ENS_24__uninitialized_size_tagEmRKS4_, symObjAddr: 0x6154, symBinAddr: 0x100008268, symSize: 0x3C }
  - { offsetInCU: 0x23693, offset: 0x23693, size: 0x8, addend: 0x0, symName: __ZNSt3__112basic_stringIcNS_11char_traitsIcEENS_9allocatorIcEEE13__get_pointerB8ue170006Ev, symObjAddr: 0x61A4, symBinAddr: 0x1000082B8, symSize: 0x54 }
  - { offsetInCU: 0x236B9, offset: 0x236B9, size: 0x8, addend: 0x0, symName: __ZNSt3__111char_traitsIcE4copyB8ue170006EPcPKcm, symObjAddr: 0x61F8, symBinAddr: 0x10000830C, symSize: 0x40 }
  - { offsetInCU: 0x236F8, offset: 0x236F8, size: 0x8, addend: 0x0, symName: __ZNSt3__111char_traitsIcE6assignB8ue170006EPcmc, symObjAddr: 0x6238, symBinAddr: 0x10000834C, symSize: 0x44 }
  - { offsetInCU: 0x23737, offset: 0x23737, size: 0x8, addend: 0x0, symName: __ZNKSt3__112basic_stringIcNS_11char_traitsIcEENS_9allocatorIcEEE7__allocB8ue170006Ev, symObjAddr: 0x62A0, symBinAddr: 0x1000083B4, symSize: 0x24 }
  - { offsetInCU: 0x2375D, offset: 0x2375D, size: 0x8, addend: 0x0, symName: __ZNKSt3__117__compressed_pairINS_12basic_stringIcNS_11char_traitsIcEENS_9allocatorIcEEE5__repES5_E6secondB8ue170006Ev, symObjAddr: 0x62C4, symBinAddr: 0x1000083D8, symSize: 0x24 }
  - { offsetInCU: 0x23783, offset: 0x23783, size: 0x8, addend: 0x0, symName: __ZNKSt3__122__compressed_pair_elemINS_9allocatorIcEELi1ELb1EE5__getB8ue170006Ev, symObjAddr: 0x62E8, symBinAddr: 0x1000083FC, symSize: 0x14 }
  - { offsetInCU: 0x237A9, offset: 0x237A9, size: 0x8, addend: 0x0, symName: __ZNSt3__112basic_stringIcNS_11char_traitsIcEENS_9allocatorIcEEEC2B8ue170006ENS_24__uninitialized_size_tagEmRKS4_, symObjAddr: 0x62FC, symBinAddr: 0x100008410, symSize: 0x110 }
  - { offsetInCU: 0x23829, offset: 0x23829, size: 0x8, addend: 0x0, symName: __ZNSt3__117__compressed_pairINS_12basic_stringIcNS_11char_traitsIcEENS_9allocatorIcEEE5__repES5_EC1B8ue170006INS_18__default_init_tagERKS5_EEOT_OT0_, symObjAddr: 0x640C, symBinAddr: 0x100008520, symSize: 0x3C }
  - { offsetInCU: 0x23881, offset: 0x23881, size: 0x8, addend: 0x0, symName: __ZNKSt3__112basic_stringIcNS_11char_traitsIcEENS_9allocatorIcEEE8max_sizeB8ue170006Ev, symObjAddr: 0x6448, symBinAddr: 0x10000855C, symSize: 0xAC }
  - { offsetInCU: 0x238D4, offset: 0x238D4, size: 0x8, addend: 0x0, symName: __ZNKSt3__112basic_stringIcNS_11char_traitsIcEENS_9allocatorIcEEE20__throw_length_errorB8ue170006Ev, symObjAddr: 0x64F4, symBinAddr: 0x100008608, symSize: 0x1C }
  - { offsetInCU: 0x238FA, offset: 0x238FA, size: 0x8, addend: 0x0, symName: __ZNSt3__112basic_stringIcNS_11char_traitsIcEENS_9allocatorIcEEE13__fits_in_ssoB8ue170006Em, symObjAddr: 0x6510, symBinAddr: 0x100008624, symSize: 0x20 }
  - { offsetInCU: 0x2391E, offset: 0x2391E, size: 0x8, addend: 0x0, symName: __ZNSt3__112basic_stringIcNS_11char_traitsIcEENS_9allocatorIcEEE11__recommendB8ue170006Em, symObjAddr: 0x6530, symBinAddr: 0x100008644, symSize: 0x84 }
  - { offsetInCU: 0x23951, offset: 0x23951, size: 0x8, addend: 0x0, symName: __ZNSt3__116allocator_traitsINS_9allocatorIcEEE8allocateB8ue170006ERS2_m, symObjAddr: 0x65B4, symBinAddr: 0x1000086C8, symSize: 0x2C }
  - { offsetInCU: 0x23984, offset: 0x23984, size: 0x8, addend: 0x0, symName: __ZNSt3__112basic_stringIcNS_11char_traitsIcEENS_9allocatorIcEEE16__begin_lifetimeB8ue170006EPcm, symObjAddr: 0x65E0, symBinAddr: 0x1000086F4, symSize: 0x14 }
  - { offsetInCU: 0x239B7, offset: 0x239B7, size: 0x8, addend: 0x0, symName: __ZNSt3__112basic_stringIcNS_11char_traitsIcEENS_9allocatorIcEEE14__set_long_capB8ue170006Em, symObjAddr: 0x65F4, symBinAddr: 0x100008708, symSize: 0x70 }
  - { offsetInCU: 0x239EC, offset: 0x239EC, size: 0x8, addend: 0x0, symName: __ZNSt3__112basic_stringIcNS_11char_traitsIcEENS_9allocatorIcEEE18__set_long_pointerB8ue170006EPc, symObjAddr: 0x6664, symBinAddr: 0x100008778, symSize: 0x38 }
  - { offsetInCU: 0x23A21, offset: 0x23A21, size: 0x8, addend: 0x0, symName: __ZNSt3__112basic_stringIcNS_11char_traitsIcEENS_9allocatorIcEEE15__set_long_sizeB8ue170006Em, symObjAddr: 0x669C, symBinAddr: 0x1000087B0, symSize: 0x38 }
  - { offsetInCU: 0x23A56, offset: 0x23A56, size: 0x8, addend: 0x0, symName: __ZNSt3__117__compressed_pairINS_12basic_stringIcNS_11char_traitsIcEENS_9allocatorIcEEE5__repES5_EC2B8ue170006INS_18__default_init_tagERKS5_EEOT_OT0_, symObjAddr: 0x66D4, symBinAddr: 0x1000087E8, symSize: 0x40 }
  - { offsetInCU: 0x23AAE, offset: 0x23AAE, size: 0x8, addend: 0x0, symName: __ZNSt3__122__compressed_pair_elemINS_9allocatorIcEELi1ELb1EEC2B8ue170006IRKS2_vEEOT_, symObjAddr: 0x6714, symBinAddr: 0x100008828, symSize: 0x18 }
  - { offsetInCU: 0x23AF0, offset: 0x23AF0, size: 0x8, addend: 0x0, symName: __ZNSt3__116allocator_traitsINS_9allocatorIcEEE8max_sizeB8ue170006IS2_vEEmRKS2_, symObjAddr: 0x672C, symBinAddr: 0x100008840, symSize: 0x24 }
  - { offsetInCU: 0x23B1E, offset: 0x23B1E, size: 0x8, addend: 0x0, symName: __ZNSt3__114numeric_limitsImE3maxB8ue170006Ev, symObjAddr: 0x6750, symBinAddr: 0x100008864, symSize: 0x14 }
  - { offsetInCU: 0x23B32, offset: 0x23B32, size: 0x8, addend: 0x0, symName: __ZNKSt3__19allocatorIcE8max_sizeB8ue170006Ev, symObjAddr: 0x6764, symBinAddr: 0x100008878, symSize: 0x14 }
  - { offsetInCU: 0x23B58, offset: 0x23B58, size: 0x8, addend: 0x0, symName: __ZNSt3__123__libcpp_numeric_limitsImLb1EE3maxB8ue170006Ev, symObjAddr: 0x6778, symBinAddr: 0x10000888C, symSize: 0x8 }
  - { offsetInCU: 0x23B6C, offset: 0x23B6C, size: 0x8, addend: 0x0, symName: __ZNSt12length_errorC1B8ue170006EPKc, symObjAddr: 0x67E4, symBinAddr: 0x1000088F8, symSize: 0x34 }
  - { offsetInCU: 0x23BA4, offset: 0x23BA4, size: 0x8, addend: 0x0, symName: __ZNSt12length_errorC2B8ue170006EPKc, symObjAddr: 0x6818, symBinAddr: 0x10000892C, symSize: 0x4C }
  - { offsetInCU: 0x23BDC, offset: 0x23BDC, size: 0x8, addend: 0x0, symName: __ZNSt3__112basic_stringIcNS_11char_traitsIcEENS_9allocatorIcEEE10__align_itB8ue170006ILm16EEEmm, symObjAddr: 0x6864, symBinAddr: 0x100008978, symSize: 0x1C }
  - { offsetInCU: 0x23C0A, offset: 0x23C0A, size: 0x8, addend: 0x0, symName: __ZNSt3__19allocatorIcE8allocateB8ue170006Em, symObjAddr: 0x6880, symBinAddr: 0x100008994, symSize: 0x58 }
  - { offsetInCU: 0x23C64, offset: 0x23C64, size: 0x8, addend: 0x0, symName: __ZNKSt3__114__copy_trivialclB8ue170006IKccLi0EEENS_4pairIPT_PT0_EES5_S5_S7_, symObjAddr: 0x6BDC, symBinAddr: 0x100008CF0, symSize: 0x48 }
  - { offsetInCU: 0x23CEE, offset: 0x23CEE, size: 0x8, addend: 0x0, symName: __ZNSt3__14pairIPKcS2_EC1B8ue170006IS2_S2_LPv0EEEOT_OT0_, symObjAddr: 0x6D44, symBinAddr: 0x100008E58, symSize: 0x3C }
  - { offsetInCU: 0x23D4C, offset: 0x23D4C, size: 0x8, addend: 0x0, symName: __ZNSt3__14pairIPKcS2_EC2B8ue170006IS2_S2_LPv0EEEOT_OT0_, symObjAddr: 0x6D80, symBinAddr: 0x100008E94, symSize: 0x34 }
  - { offsetInCU: 0x23DAA, offset: 0x23DAA, size: 0x8, addend: 0x0, symName: __ZNSt3__118__unwrap_iter_implIPKcLb1EE8__unwrapB8ue170006ES2_, symObjAddr: 0x6DB4, symBinAddr: 0x100008EC8, symSize: 0x24 }
  - { offsetInCU: 0x23DD9, offset: 0x23DD9, size: 0x8, addend: 0x0, symName: __ZNSt3__14pairIPKcPcEC1B8ue170006IRS2_S3_LPv0EEEOT_OT0_, symObjAddr: 0x6EEC, symBinAddr: 0x100009000, symSize: 0x3C }
  - { offsetInCU: 0x23E37, offset: 0x23E37, size: 0x8, addend: 0x0, symName: __ZNSt3__14pairIPKcPcEC2B8ue170006IRS2_S3_LPv0EEEOT_OT0_, symObjAddr: 0x6F28, symBinAddr: 0x10000903C, symSize: 0x34 }
  - { offsetInCU: 0x23E95, offset: 0x23E95, size: 0x8, addend: 0x0, symName: __ZNSt3__118__unwrap_iter_implIPcLb1EE8__unwrapB8ue170006ES1_, symObjAddr: 0x6F5C, symBinAddr: 0x100009070, symSize: 0x24 }
  - { offsetInCU: 0x23EB8, offset: 0x23EB8, size: 0x8, addend: 0x0, symName: __ZNSt3__14pairIPKcPcEC1B8ue170006IS2_S3_LPv0EEEOT_OT0_, symObjAddr: 0x6F80, symBinAddr: 0x100009094, symSize: 0x3C }
  - { offsetInCU: 0x23F16, offset: 0x23F16, size: 0x8, addend: 0x0, symName: __ZNSt3__14pairIPKcPcEC2B8ue170006IS2_S3_LPv0EEEOT_OT0_, symObjAddr: 0x6FBC, symBinAddr: 0x1000090D0, symSize: 0x34 }
  - { offsetInCU: 0x23F74, offset: 0x23F74, size: 0x8, addend: 0x0, symName: __ZNSt3__118__unwrap_iter_implIPKcLb1EE8__rewrapB8ue170006ES2_S2_, symObjAddr: 0x702C, symBinAddr: 0x100009140, symSize: 0x48 }
  - { offsetInCU: 0x23FA5, offset: 0x23FA5, size: 0x8, addend: 0x0, symName: __ZNSt3__118__unwrap_iter_implIPcLb1EE8__rewrapB8ue170006ES1_S1_, symObjAddr: 0x7074, symBinAddr: 0x100009188, symSize: 0x48 }
  - { offsetInCU: 0x23FD6, offset: 0x23FD6, size: 0x8, addend: 0x0, symName: __ZN7testing8internal15TestFactoryImplI55MLWorkloadAnalyticsTest_DetectsTensorFlowFramework_TestEC2Ev, symObjAddr: 0x7178, symBinAddr: 0x10000928C, symSize: 0x44 }
  - { offsetInCU: 0x24003, offset: 0x24003, size: 0x8, addend: 0x0, symName: __ZN7testing8internal15TestFactoryImplI55MLWorkloadAnalyticsTest_DetectsTensorFlowFramework_TestED1Ev, symObjAddr: 0x71BC, symBinAddr: 0x1000092D0, symSize: 0x2C }
  - { offsetInCU: 0x24030, offset: 0x24030, size: 0x8, addend: 0x0, symName: __ZN7testing8internal15TestFactoryImplI55MLWorkloadAnalyticsTest_DetectsTensorFlowFramework_TestED0Ev, symObjAddr: 0x71E8, symBinAddr: 0x1000092FC, symSize: 0x30 }
  - { offsetInCU: 0x2405D, offset: 0x2405D, size: 0x8, addend: 0x0, symName: __ZN7testing8internal15TestFactoryImplI55MLWorkloadAnalyticsTest_DetectsTensorFlowFramework_TestE10CreateTestEv, symObjAddr: 0x7218, symBinAddr: 0x10000932C, symSize: 0x58 }
  - { offsetInCU: 0x24083, offset: 0x24083, size: 0x8, addend: 0x0, symName: __ZN7testing8internal15TestFactoryImplI55MLWorkloadAnalyticsTest_DetectsTensorFlowFramework_TestED2Ev, symObjAddr: 0x7270, symBinAddr: 0x100009384, symSize: 0x2C }
  - { offsetInCU: 0x240B0, offset: 0x240B0, size: 0x8, addend: 0x0, symName: __ZN55MLWorkloadAnalyticsTest_DetectsTensorFlowFramework_TestC1Ev, symObjAddr: 0x729C, symBinAddr: 0x1000093B0, symSize: 0x2C }
  - { offsetInCU: 0x240DA, offset: 0x240DA, size: 0x8, addend: 0x0, symName: __ZN55MLWorkloadAnalyticsTest_DetectsTensorFlowFramework_TestC2Ev, symObjAddr: 0x72C8, symBinAddr: 0x1000093DC, symSize: 0x44 }
  - { offsetInCU: 0x24104, offset: 0x24104, size: 0x8, addend: 0x0, symName: __ZN7testing8internal15TestFactoryImplI44MLWorkloadAnalyticsTest_GeneratesReport_TestEC2Ev, symObjAddr: 0x730C, symBinAddr: 0x100009420, symSize: 0x44 }
  - { offsetInCU: 0x24131, offset: 0x24131, size: 0x8, addend: 0x0, symName: __ZN7testing8internal15TestFactoryImplI44MLWorkloadAnalyticsTest_GeneratesReport_TestED1Ev, symObjAddr: 0x7350, symBinAddr: 0x100009464, symSize: 0x2C }
  - { offsetInCU: 0x2415E, offset: 0x2415E, size: 0x8, addend: 0x0, symName: __ZN7testing8internal15TestFactoryImplI44MLWorkloadAnalyticsTest_GeneratesReport_TestED0Ev, symObjAddr: 0x737C, symBinAddr: 0x100009490, symSize: 0x30 }
  - { offsetInCU: 0x2418B, offset: 0x2418B, size: 0x8, addend: 0x0, symName: __ZN7testing8internal15TestFactoryImplI44MLWorkloadAnalyticsTest_GeneratesReport_TestE10CreateTestEv, symObjAddr: 0x73AC, symBinAddr: 0x1000094C0, symSize: 0x58 }
  - { offsetInCU: 0x241B1, offset: 0x241B1, size: 0x8, addend: 0x0, symName: __ZN7testing8internal15TestFactoryImplI44MLWorkloadAnalyticsTest_GeneratesReport_TestED2Ev, symObjAddr: 0x7404, symBinAddr: 0x100009518, symSize: 0x2C }
  - { offsetInCU: 0x241DE, offset: 0x241DE, size: 0x8, addend: 0x0, symName: __ZN44MLWorkloadAnalyticsTest_GeneratesReport_TestC1Ev, symObjAddr: 0x7430, symBinAddr: 0x100009544, symSize: 0x2C }
  - { offsetInCU: 0x24208, offset: 0x24208, size: 0x8, addend: 0x0, symName: __ZN44MLWorkloadAnalyticsTest_GeneratesReport_TestC2Ev, symObjAddr: 0x745C, symBinAddr: 0x100009570, symSize: 0x44 }
  - { offsetInCU: 0x24232, offset: 0x24232, size: 0x8, addend: 0x0, symName: __ZN7testing8internal15TestFactoryImplI50MLWorkloadAnalyticsTest_TracksHistoricalStats_TestEC2Ev, symObjAddr: 0x74A0, symBinAddr: 0x1000095B4, symSize: 0x44 }
  - { offsetInCU: 0x2425F, offset: 0x2425F, size: 0x8, addend: 0x0, symName: __ZN7testing8internal15TestFactoryImplI50MLWorkloadAnalyticsTest_TracksHistoricalStats_TestED1Ev, symObjAddr: 0x74E4, symBinAddr: 0x1000095F8, symSize: 0x2C }
  - { offsetInCU: 0x2428C, offset: 0x2428C, size: 0x8, addend: 0x0, symName: __ZN7testing8internal15TestFactoryImplI50MLWorkloadAnalyticsTest_TracksHistoricalStats_TestED0Ev, symObjAddr: 0x7510, symBinAddr: 0x100009624, symSize: 0x30 }
  - { offsetInCU: 0x242B9, offset: 0x242B9, size: 0x8, addend: 0x0, symName: __ZN7testing8internal15TestFactoryImplI50MLWorkloadAnalyticsTest_TracksHistoricalStats_TestE10CreateTestEv, symObjAddr: 0x7540, symBinAddr: 0x100009654, symSize: 0x58 }
  - { offsetInCU: 0x242DF, offset: 0x242DF, size: 0x8, addend: 0x0, symName: __ZN7testing8internal15TestFactoryImplI50MLWorkloadAnalyticsTest_TracksHistoricalStats_TestED2Ev, symObjAddr: 0x7598, symBinAddr: 0x1000096AC, symSize: 0x2C }
  - { offsetInCU: 0x2430C, offset: 0x2430C, size: 0x8, addend: 0x0, symName: __ZN50MLWorkloadAnalyticsTest_TracksHistoricalStats_TestC1Ev, symObjAddr: 0x75C4, symBinAddr: 0x1000096D8, symSize: 0x2C }
  - { offsetInCU: 0x24336, offset: 0x24336, size: 0x8, addend: 0x0, symName: __ZN50MLWorkloadAnalyticsTest_TracksHistoricalStats_TestC2Ev, symObjAddr: 0x75F0, symBinAddr: 0x100009704, symSize: 0x44 }
  - { offsetInCU: 0x2438B, offset: 0x2438B, size: 0x8, addend: 0x0, symName: __ZNKSt3__16chrono10time_pointINS0_12system_clockENS0_8durationIxNS_5ratioILl1ELl1000000EEEEEE16time_since_epochB8ue170006Ev, symObjAddr: 0x7664, symBinAddr: 0x100009778, symSize: 0x20 }
  - { offsetInCU: 0x243B1, offset: 0x243B1, size: 0x8, addend: 0x0, symName: __ZNKSt3__16chrono8durationIxNS_5ratioILl1ELl1000EEEE5countB8ue170006Ev, symObjAddr: 0x7684, symBinAddr: 0x100009798, symSize: 0x18 }
  - { offsetInCU: 0x243D7, offset: 0x243D7, size: 0x8, addend: 0x0, symName: __ZNKSt3__16chrono8durationIxNS_5ratioILl1ELl1000000EEEE5countB8ue170006Ev, symObjAddr: 0x76E4, symBinAddr: 0x1000097F8, symSize: 0x18 }
  - { offsetInCU: 0x24408, offset: 0x24408, size: 0x8, addend: 0x0, symName: __ZNSt3__16chrono8durationIxNS_5ratioILl1ELl1000EEEEC1B8ue170006IxEERKT_PNS_9enable_ifIXaasr14is_convertibleIS8_xEE5valueooL_ZNS_17integral_constantIbLb0EE5valueEEntsr23treat_as_floating_pointIS6_EE5valueEvE4typeE, symObjAddr: 0x76FC, symBinAddr: 0x100009810, symSize: 0x3C }
  - { offsetInCU: 0x24454, offset: 0x24454, size: 0x8, addend: 0x0, symName: __ZNSt3__16chrono8durationIxNS_5ratioILl1ELl1000EEEEC2B8ue170006IxEERKT_PNS_9enable_ifIXaasr14is_convertibleIS8_xEE5valueooL_ZNS_17integral_constantIbLb0EE5valueEEntsr23treat_as_floating_pointIS6_EE5valueEvE4typeE, symObjAddr: 0x7738, symBinAddr: 0x10000984C, symSize: 0x28 }
  - { offsetInCU: 0x244A0, offset: 0x244A0, size: 0x8, addend: 0x0, symName: __ZN7testing8internal15TestFactoryImplI50MLWorkloadAnalyticsTest_CleansUpIdleWorkloads_TestEC2Ev, symObjAddr: 0x7760, symBinAddr: 0x100009874, symSize: 0x44 }
  - { offsetInCU: 0x244CD, offset: 0x244CD, size: 0x8, addend: 0x0, symName: __ZN7testing8internal15TestFactoryImplI50MLWorkloadAnalyticsTest_CleansUpIdleWorkloads_TestED1Ev, symObjAddr: 0x77A4, symBinAddr: 0x1000098B8, symSize: 0x2C }
  - { offsetInCU: 0x244FA, offset: 0x244FA, size: 0x8, addend: 0x0, symName: __ZN7testing8internal15TestFactoryImplI50MLWorkloadAnalyticsTest_CleansUpIdleWorkloads_TestED0Ev, symObjAddr: 0x77D0, symBinAddr: 0x1000098E4, symSize: 0x30 }
  - { offsetInCU: 0x24527, offset: 0x24527, size: 0x8, addend: 0x0, symName: __ZN7testing8internal15TestFactoryImplI50MLWorkloadAnalyticsTest_CleansUpIdleWorkloads_TestE10CreateTestEv, symObjAddr: 0x7800, symBinAddr: 0x100009914, symSize: 0x58 }
  - { offsetInCU: 0x2454D, offset: 0x2454D, size: 0x8, addend: 0x0, symName: __ZN7testing8internal15TestFactoryImplI50MLWorkloadAnalyticsTest_CleansUpIdleWorkloads_TestED2Ev, symObjAddr: 0x7858, symBinAddr: 0x10000996C, symSize: 0x2C }
  - { offsetInCU: 0x2457A, offset: 0x2457A, size: 0x8, addend: 0x0, symName: __ZN50MLWorkloadAnalyticsTest_CleansUpIdleWorkloads_TestC1Ev, symObjAddr: 0x7884, symBinAddr: 0x100009998, symSize: 0x2C }
  - { offsetInCU: 0x245A4, offset: 0x245A4, size: 0x8, addend: 0x0, symName: __ZN50MLWorkloadAnalyticsTest_CleansUpIdleWorkloads_TestC2Ev, symObjAddr: 0x78B0, symBinAddr: 0x1000099C4, symSize: 0x44 }
  - { offsetInCU: 0x245CE, offset: 0x245CE, size: 0x8, addend: 0x0, symName: __ZN7testing8internal15TestFactoryImplI51MLWorkloadAnalyticsTest_HandlesMultipleClients_TestEC2Ev, symObjAddr: 0x78F4, symBinAddr: 0x100009A08, symSize: 0x44 }
  - { offsetInCU: 0x245FB, offset: 0x245FB, size: 0x8, addend: 0x0, symName: __ZN7testing8internal15TestFactoryImplI51MLWorkloadAnalyticsTest_HandlesMultipleClients_TestED1Ev, symObjAddr: 0x7938, symBinAddr: 0x100009A4C, symSize: 0x2C }
  - { offsetInCU: 0x24628, offset: 0x24628, size: 0x8, addend: 0x0, symName: __ZN7testing8internal15TestFactoryImplI51MLWorkloadAnalyticsTest_HandlesMultipleClients_TestED0Ev, symObjAddr: 0x7964, symBinAddr: 0x100009A78, symSize: 0x30 }
  - { offsetInCU: 0x24655, offset: 0x24655, size: 0x8, addend: 0x0, symName: __ZN7testing8internal15TestFactoryImplI51MLWorkloadAnalyticsTest_HandlesMultipleClients_TestE10CreateTestEv, symObjAddr: 0x7994, symBinAddr: 0x100009AA8, symSize: 0x58 }
  - { offsetInCU: 0x2467B, offset: 0x2467B, size: 0x8, addend: 0x0, symName: __ZN7testing8internal15TestFactoryImplI51MLWorkloadAnalyticsTest_HandlesMultipleClients_TestED2Ev, symObjAddr: 0x79EC, symBinAddr: 0x100009B00, symSize: 0x2C }
  - { offsetInCU: 0x246A8, offset: 0x246A8, size: 0x8, addend: 0x0, symName: __ZN51MLWorkloadAnalyticsTest_HandlesMultipleClients_TestC1Ev, symObjAddr: 0x7A18, symBinAddr: 0x100009B2C, symSize: 0x2C }
  - { offsetInCU: 0x246D2, offset: 0x246D2, size: 0x8, addend: 0x0, symName: __ZN51MLWorkloadAnalyticsTest_HandlesMultipleClients_TestC2Ev, symObjAddr: 0x7A44, symBinAddr: 0x100009B58, symSize: 0x44 }
  - { offsetInCU: 0x246FC, offset: 0x246FC, size: 0x8, addend: 0x0, symName: __ZN53MLWorkloadAnalyticsTest_DetectsSequentialPattern_TestD2Ev, symObjAddr: 0x7A88, symBinAddr: 0x100009B9C, symSize: 0x2C }
  - { offsetInCU: 0x24726, offset: 0x24726, size: 0x8, addend: 0x0, symName: __ZN23MLWorkloadAnalyticsTestD2Ev, symObjAddr: 0x7AB4, symBinAddr: 0x100009BC8, symSize: 0x48 }
  - { offsetInCU: 0x24752, offset: 0x24752, size: 0x8, addend: 0x0, symName: __ZNSt3__110unique_ptrIN5hf3fs17monitor_collector19MLWorkloadAnalyticsENS_14default_deleteIS3_EEED1B8ue170006Ev, symObjAddr: 0x7AFC, symBinAddr: 0x100009C10, symSize: 0x2C }
  - { offsetInCU: 0x2477C, offset: 0x2477C, size: 0x8, addend: 0x0, symName: __ZNSt3__110unique_ptrIN5hf3fs17monitor_collector19MLWorkloadAnalyticsENS_14default_deleteIS3_EEED2B8ue170006Ev, symObjAddr: 0x7B28, symBinAddr: 0x100009C3C, symSize: 0x30 }
  - { offsetInCU: 0x247A6, offset: 0x247A6, size: 0x8, addend: 0x0, symName: __ZNSt3__110unique_ptrIN5hf3fs17monitor_collector19MLWorkloadAnalyticsENS_14default_deleteIS3_EEE5resetB8ue170006EPS3_, symObjAddr: 0x7B58, symBinAddr: 0x100009C6C, symSize: 0x78 }
  - { offsetInCU: 0x247EA, offset: 0x247EA, size: 0x8, addend: 0x0, symName: __ZNSt3__117__compressed_pairIPN5hf3fs17monitor_collector19MLWorkloadAnalyticsENS_14default_deleteIS3_EEE5firstB8ue170006Ev, symObjAddr: 0x7BD0, symBinAddr: 0x100009CE4, symSize: 0x24 }
  - { offsetInCU: 0x24810, offset: 0x24810, size: 0x8, addend: 0x0, symName: __ZNSt3__117__compressed_pairIPN5hf3fs17monitor_collector19MLWorkloadAnalyticsENS_14default_deleteIS3_EEE6secondB8ue170006Ev, symObjAddr: 0x7BF4, symBinAddr: 0x100009D08, symSize: 0x24 }
  - { offsetInCU: 0x24836, offset: 0x24836, size: 0x8, addend: 0x0, symName: __ZNKSt3__114default_deleteIN5hf3fs17monitor_collector19MLWorkloadAnalyticsEEclB8ue170006EPS3_, symObjAddr: 0x7C18, symBinAddr: 0x100009D2C, symSize: 0x4C }
  - { offsetInCU: 0x2486A, offset: 0x2486A, size: 0x8, addend: 0x0, symName: __ZNSt3__122__compressed_pair_elemIPN5hf3fs17monitor_collector19MLWorkloadAnalyticsELi0ELb0EE5__getB8ue170006Ev, symObjAddr: 0x7C64, symBinAddr: 0x100009D78, symSize: 0x14 }
  - { offsetInCU: 0x24890, offset: 0x24890, size: 0x8, addend: 0x0, symName: __ZNSt3__122__compressed_pair_elemINS_14default_deleteIN5hf3fs17monitor_collector19MLWorkloadAnalyticsEEELi1ELb1EE5__getB8ue170006Ev, symObjAddr: 0x7C78, symBinAddr: 0x100009D8C, symSize: 0x14 }
  - { offsetInCU: 0x248B6, offset: 0x248B6, size: 0x8, addend: 0x0, symName: __ZN5hf3fs17monitor_collector19MLWorkloadAnalytics6Config11set_enabledEb, symObjAddr: 0x7C8C, symBinAddr: 0x100009DA0, symSize: 0x2C }
  - { offsetInCU: 0x248EB, offset: 0x248EB, size: 0x8, addend: 0x0, symName: __ZN5hf3fs17monitor_collector19MLWorkloadAnalytics6Config24set_analysis_interval_msEy, symObjAddr: 0x7CB8, symBinAddr: 0x100009DCC, symSize: 0x20 }
  - { offsetInCU: 0x24920, offset: 0x24920, size: 0x8, addend: 0x0, symName: __ZN5hf3fs17monitor_collector19MLWorkloadAnalytics6Config22set_report_interval_msEy, symObjAddr: 0x7CD8, symBinAddr: 0x100009DEC, symSize: 0x20 }
  - { offsetInCU: 0x24955, offset: 0x24955, size: 0x8, addend: 0x0, symName: __ZN5hf3fs17monitor_collector19MLWorkloadAnalytics6Config25set_min_ops_for_detectionEy, symObjAddr: 0x7CF8, symBinAddr: 0x100009E0C, symSize: 0x20 }
  - { offsetInCU: 0x2498A, offset: 0x2498A, size: 0x8, addend: 0x0, symName: __ZNSt3__110unique_ptrIN5hf3fs17monitor_collector19MLWorkloadAnalyticsENS_14default_deleteIS3_EEEaSB8ue170006EOS6_, symObjAddr: 0x7D84, symBinAddr: 0x100009E98, symSize: 0x50 }
  - { offsetInCU: 0x249C4, offset: 0x249C4, size: 0x8, addend: 0x0, symName: __ZN7testing15AssertionResultC1IN5hf3fs6ResultINS2_4VoidENSt3__112basic_stringIcNS5_11char_traitsIcEENS5_9allocatorIcEEEEEEEERKT_PNS5_9enable_ifIXntsr3std14is_convertibleISD_S0_EE5valueEvE4typeE, symObjAddr: 0x7DD4, symBinAddr: 0x100009EE8, symSize: 0x3C }
  - { offsetInCU: 0x24A29, offset: 0x24A29, size: 0x8, addend: 0x0, symName: __ZN7testing7MessagelsIA41_cEERS0_RKT_, symObjAddr: 0x7E10, symBinAddr: 0x100009F24, symSize: 0x3C }
  - { offsetInCU: 0x24A6D, offset: 0x24A6D, size: 0x8, addend: 0x0, symName: __ZN5hf3fs6ResultINS_4VoidENSt3__112basic_stringIcNS2_11char_traitsIcEENS2_9allocatorIcEEEEED1Ev, symObjAddr: 0x7E4C, symBinAddr: 0x100009F60, symSize: 0x2C }
  - { offsetInCU: 0x24A99, offset: 0x24A99, size: 0x8, addend: 0x0, symName: __ZNSt3__110unique_ptrIN5hf3fs17monitor_collector19MLWorkloadAnalyticsENS_14default_deleteIS3_EEEC1B8ue170006ILb1EvEEPS3_, symObjAddr: 0x7E78, symBinAddr: 0x100009F8C, symSize: 0x34 }
  - { offsetInCU: 0x24ADC, offset: 0x24ADC, size: 0x8, addend: 0x0, symName: __ZNSt3__110unique_ptrIN5hf3fs17monitor_collector19MLWorkloadAnalyticsENS_14default_deleteIS3_EEEC2B8ue170006ILb1EvEEPS3_, symObjAddr: 0x7EAC, symBinAddr: 0x100009FC0, symSize: 0x44 }
  - { offsetInCU: 0x24B1F, offset: 0x24B1F, size: 0x8, addend: 0x0, symName: __ZNSt3__117__compressed_pairIPN5hf3fs17monitor_collector19MLWorkloadAnalyticsENS_14default_deleteIS3_EEEC1B8ue170006IRS4_NS_16__value_init_tagEEEOT_OT0_, symObjAddr: 0x7EF0, symBinAddr: 0x10000A004, symSize: 0x3C }
  - { offsetInCU: 0x24B77, offset: 0x24B77, size: 0x8, addend: 0x0, symName: __ZNSt3__117__compressed_pairIPN5hf3fs17monitor_collector19MLWorkloadAnalyticsENS_14default_deleteIS3_EEEC2B8ue170006IRS4_NS_16__value_init_tagEEEOT_OT0_, symObjAddr: 0x7F2C, symBinAddr: 0x10000A040, symSize: 0x40 }
  - { offsetInCU: 0x24BCF, offset: 0x24BCF, size: 0x8, addend: 0x0, symName: __ZNSt3__122__compressed_pair_elemIPN5hf3fs17monitor_collector19MLWorkloadAnalyticsELi0ELb0EEC2B8ue170006IRS4_vEEOT_, symObjAddr: 0x7F6C, symBinAddr: 0x10000A080, symSize: 0x24 }
  - { offsetInCU: 0x24C11, offset: 0x24C11, size: 0x8, addend: 0x0, symName: __ZNSt3__110unique_ptrIN5hf3fs17monitor_collector19MLWorkloadAnalyticsENS_14default_deleteIS3_EEE7releaseB8ue170006Ev, symObjAddr: 0x7F90, symBinAddr: 0x10000A0A4, symSize: 0x44 }
  - { offsetInCU: 0x24C46, offset: 0x24C46, size: 0x8, addend: 0x0, symName: __ZNSt3__110unique_ptrIN5hf3fs17monitor_collector19MLWorkloadAnalyticsENS_14default_deleteIS3_EEE11get_deleterB8ue170006Ev, symObjAddr: 0x7FD4, symBinAddr: 0x10000A0E8, symSize: 0x24 }
  - { offsetInCU: 0x24C6C, offset: 0x24C6C, size: 0x8, addend: 0x0, symName: __ZN7testing15AssertionResultC2IN5hf3fs6ResultINS2_4VoidENSt3__112basic_stringIcNS5_11char_traitsIcEENS5_9allocatorIcEEEEEEEERKT_PNS5_9enable_ifIXntsr3std14is_convertibleISD_S0_EE5valueEvE4typeE, symObjAddr: 0x7FF8, symBinAddr: 0x10000A10C, symSize: 0x4C }
  - { offsetInCU: 0x24CB8, offset: 0x24CB8, size: 0x8, addend: 0x0, symName: __ZNK5hf3fs6ResultINS_4VoidENSt3__112basic_stringIcNS2_11char_traitsIcEENS2_9allocatorIcEEEEEcvbEv, symObjAddr: 0x8044, symBinAddr: 0x10000A158, symSize: 0x1C }
  - { offsetInCU: 0x24CDE, offset: 0x24CDE, size: 0x8, addend: 0x0, symName: __ZNSt3__110unique_ptrINS_12basic_stringIcNS_11char_traitsIcEENS_9allocatorIcEEEENS_14default_deleteIS6_EEEC1B8ue170006ILb1EvEEv, symObjAddr: 0x8060, symBinAddr: 0x10000A174, symSize: 0x2C }
  - { offsetInCU: 0x24D13, offset: 0x24D13, size: 0x8, addend: 0x0, symName: __ZNSt3__110unique_ptrINS_12basic_stringIcNS_11char_traitsIcEENS_9allocatorIcEEEENS_14default_deleteIS6_EEEC2B8ue170006ILb1EvEEv, symObjAddr: 0x808C, symBinAddr: 0x10000A1A0, symSize: 0x3C }
  - { offsetInCU: 0x24D48, offset: 0x24D48, size: 0x8, addend: 0x0, symName: __ZNSt3__117__compressed_pairIPNS_12basic_stringIcNS_11char_traitsIcEENS_9allocatorIcEEEENS_14default_deleteIS6_EEEC1B8ue170006INS_16__value_init_tagESC_EEOT_OT0_, symObjAddr: 0x80C8, symBinAddr: 0x10000A1DC, symSize: 0x3C }
  - { offsetInCU: 0x24DA0, offset: 0x24DA0, size: 0x8, addend: 0x0, symName: __ZNSt3__117__compressed_pairIPNS_12basic_stringIcNS_11char_traitsIcEENS_9allocatorIcEEEENS_14default_deleteIS6_EEEC2B8ue170006INS_16__value_init_tagESC_EEOT_OT0_, symObjAddr: 0x8104, symBinAddr: 0x10000A218, symSize: 0x3C }
  - { offsetInCU: 0x24DF8, offset: 0x24DF8, size: 0x8, addend: 0x0, symName: __ZNSt3__122__compressed_pair_elemIPNS_12basic_stringIcNS_11char_traitsIcEENS_9allocatorIcEEEELi0ELb0EEC2B8ue170006ENS_16__value_init_tagE, symObjAddr: 0x8140, symBinAddr: 0x10000A254, symSize: 0x18 }
  - { offsetInCU: 0x24E2D, offset: 0x24E2D, size: 0x8, addend: 0x0, symName: __ZNSt3__122__compressed_pair_elemINS_14default_deleteINS_12basic_stringIcNS_11char_traitsIcEENS_9allocatorIcEEEEEELi1ELb1EEC2B8ue170006ENS_16__value_init_tagE, symObjAddr: 0x8158, symBinAddr: 0x10000A26C, symSize: 0x14 }
  - { offsetInCU: 0x24E62, offset: 0x24E62, size: 0x8, addend: 0x0, symName: __ZNKSt3__110unique_ptrINS_18basic_stringstreamIcNS_11char_traitsIcEENS_9allocatorIcEEEENS_14default_deleteIS6_EEEdeB8ue170006Ev, symObjAddr: 0x816C, symBinAddr: 0x10000A280, symSize: 0x28 }
  - { offsetInCU: 0x24E88, offset: 0x24E88, size: 0x8, addend: 0x0, symName: __ZNKSt3__117__compressed_pairIPNS_18basic_stringstreamIcNS_11char_traitsIcEENS_9allocatorIcEEEENS_14default_deleteIS6_EEE5firstB8ue170006Ev, symObjAddr: 0x8194, symBinAddr: 0x10000A2A8, symSize: 0x24 }
  - { offsetInCU: 0x24EAE, offset: 0x24EAE, size: 0x8, addend: 0x0, symName: __ZNKSt3__122__compressed_pair_elemIPNS_18basic_stringstreamIcNS_11char_traitsIcEENS_9allocatorIcEEEELi0ELb0EE5__getB8ue170006Ev, symObjAddr: 0x81B8, symBinAddr: 0x10000A2CC, symSize: 0x14 }
  - { offsetInCU: 0x24ED4, offset: 0x24ED4, size: 0x8, addend: 0x0, symName: __ZN5hf3fs6ResultINS_4VoidENSt3__112basic_stringIcNS2_11char_traitsIcEENS2_9allocatorIcEEEEED2Ev, symObjAddr: 0x81CC, symBinAddr: 0x10000A2E0, symSize: 0x30 }
  - { offsetInCU: 0x24F19, offset: 0x24F19, size: 0x8, addend: 0x0, symName: __ZN7testing7MessagelsIA35_cEERS0_RKT_, symObjAddr: 0x81FC, symBinAddr: 0x10000A310, symSize: 0x3C }
  - { offsetInCU: 0x24F5D, offset: 0x24F5D, size: 0x8, addend: 0x0, symName: __ZN49MLWorkloadAnalyticsTest_DetectsRandomPattern_TestD2Ev, symObjAddr: 0x8238, symBinAddr: 0x10000A34C, symSize: 0x2C }
  - { offsetInCU: 0x24F87, offset: 0x24F87, size: 0x8, addend: 0x0, symName: __ZN52MLWorkloadAnalyticsTest_DetectsTrainingWorkload_TestD2Ev, symObjAddr: 0x8264, symBinAddr: 0x10000A378, symSize: 0x2C }
  - { offsetInCU: 0x24FB1, offset: 0x24FB1, size: 0x8, addend: 0x0, symName: __ZN52MLWorkloadAnalyticsTest_DetectsPyTorchFramework_TestD2Ev, symObjAddr: 0x8290, symBinAddr: 0x10000A3A4, symSize: 0x2C }
  - { offsetInCU: 0x24FDB, offset: 0x24FDB, size: 0x8, addend: 0x0, symName: __ZN55MLWorkloadAnalyticsTest_DetectsTensorFlowFramework_TestD2Ev, symObjAddr: 0x82BC, symBinAddr: 0x10000A3D0, symSize: 0x2C }
  - { offsetInCU: 0x25005, offset: 0x25005, size: 0x8, addend: 0x0, symName: __ZN44MLWorkloadAnalyticsTest_GeneratesReport_TestD2Ev, symObjAddr: 0x82E8, symBinAddr: 0x10000A3FC, symSize: 0x2C }
  - { offsetInCU: 0x2502F, offset: 0x2502F, size: 0x8, addend: 0x0, symName: __ZN50MLWorkloadAnalyticsTest_TracksHistoricalStats_TestD2Ev, symObjAddr: 0x8314, symBinAddr: 0x10000A428, symSize: 0x2C }
  - { offsetInCU: 0x25059, offset: 0x25059, size: 0x8, addend: 0x0, symName: __ZN50MLWorkloadAnalyticsTest_CleansUpIdleWorkloads_TestD2Ev, symObjAddr: 0x8340, symBinAddr: 0x10000A454, symSize: 0x2C }
  - { offsetInCU: 0x25083, offset: 0x25083, size: 0x8, addend: 0x0, symName: __ZN51MLWorkloadAnalyticsTest_HandlesMultipleClients_TestD2Ev, symObjAddr: 0x836C, symBinAddr: 0x10000A480, symSize: 0x2C }
  - { offsetInCU: 0x250CE, offset: 0x250CE, size: 0x8, addend: 0x0, symName: __ZNKSt3__113basic_ostreamIcNS_11char_traitsIcEEE6sentrycvbB8ue170006Ev, symObjAddr: 0x8584, symBinAddr: 0x10000A698, symSize: 0x1C }
  - { offsetInCU: 0x250F4, offset: 0x250F4, size: 0x8, addend: 0x0, symName: __ZNSt3__119ostreambuf_iteratorIcNS_11char_traitsIcEEEC1B8ue170006ERNS_13basic_ostreamIcS2_EE, symObjAddr: 0x87E0, symBinAddr: 0x10000A8F4, symSize: 0x34 }
  - { offsetInCU: 0x2512C, offset: 0x2512C, size: 0x8, addend: 0x0, symName: __ZNKSt3__18ios_base5flagsB8ue170006Ev, symObjAddr: 0x8814, symBinAddr: 0x10000A928, symSize: 0x18 }
  - { offsetInCU: 0x25154, offset: 0x25154, size: 0x8, addend: 0x0, symName: __ZNKSt3__19basic_iosIcNS_11char_traitsIcEEE4fillB8ue170006Ev, symObjAddr: 0x882C, symBinAddr: 0x10000A940, symSize: 0x64 }
  - { offsetInCU: 0x2517C, offset: 0x2517C, size: 0x8, addend: 0x0, symName: __ZNKSt3__119ostreambuf_iteratorIcNS_11char_traitsIcEEE6failedB8ue170006Ev, symObjAddr: 0x8890, symBinAddr: 0x10000A9A4, symSize: 0x24 }
  - { offsetInCU: 0x251A2, offset: 0x251A2, size: 0x8, addend: 0x0, symName: __ZNSt3__19basic_iosIcNS_11char_traitsIcEEE8setstateB8ue170006Ej, symObjAddr: 0x88B4, symBinAddr: 0x10000A9C8, symSize: 0x2C }
  - { offsetInCU: 0x251D7, offset: 0x251D7, size: 0x8, addend: 0x0, symName: __ZNKSt3__18ios_base5widthB8ue170006Ev, symObjAddr: 0x88E0, symBinAddr: 0x10000A9F4, symSize: 0x18 }
  - { offsetInCU: 0x251FF, offset: 0x251FF, size: 0x8, addend: 0x0, symName: __ZNSt3__115basic_streambufIcNS_11char_traitsIcEEE5sputnB8ue170006EPKcl, symObjAddr: 0x88F8, symBinAddr: 0x10000AA0C, symSize: 0x3C }
  - { offsetInCU: 0x25241, offset: 0x25241, size: 0x8, addend: 0x0, symName: __ZNSt3__112basic_stringIcNS_11char_traitsIcEENS_9allocatorIcEEEC1B8ue170006Emc, symObjAddr: 0x8934, symBinAddr: 0x10000AA48, symSize: 0x3C }
  - { offsetInCU: 0x25289, offset: 0x25289, size: 0x8, addend: 0x0, symName: __ZNSt3__112basic_stringIcNS_11char_traitsIcEENS_9allocatorIcEEE4dataB8ue170006Ev, symObjAddr: 0x8970, symBinAddr: 0x10000AA84, symSize: 0x28 }
  - { offsetInCU: 0x252AF, offset: 0x252AF, size: 0x8, addend: 0x0, symName: __ZNSt3__18ios_base5widthB8ue170006El, symObjAddr: 0x8998, symBinAddr: 0x10000AAAC, symSize: 0x2C }
  - { offsetInCU: 0x252F5, offset: 0x252F5, size: 0x8, addend: 0x0, symName: __ZNSt3__112basic_stringIcNS_11char_traitsIcEENS_9allocatorIcEEEC2B8ue170006Emc, symObjAddr: 0x89C4, symBinAddr: 0x10000AAD8, symSize: 0x4C }
  - { offsetInCU: 0x2533D, offset: 0x2533D, size: 0x8, addend: 0x0, symName: __ZNSt3__119ostreambuf_iteratorIcNS_11char_traitsIcEEEC2B8ue170006ERNS_13basic_ostreamIcS2_EE, symObjAddr: 0x8A10, symBinAddr: 0x10000AB24, symSize: 0x54 }
  - { offsetInCU: 0x25375, offset: 0x25375, size: 0x8, addend: 0x0, symName: __ZNKSt3__19basic_iosIcNS_11char_traitsIcEEE5rdbufB8ue170006Ev, symObjAddr: 0x8A64, symBinAddr: 0x10000AB78, symSize: 0x24 }
  - { offsetInCU: 0x2539D, offset: 0x2539D, size: 0x8, addend: 0x0, symName: __ZNKSt3__18ios_base5rdbufB8ue170006Ev, symObjAddr: 0x8A88, symBinAddr: 0x10000AB9C, symSize: 0x18 }
  - { offsetInCU: 0x253C3, offset: 0x253C3, size: 0x8, addend: 0x0, symName: __ZNSt3__111char_traitsIcE11eq_int_typeB8ue170006Eii, symObjAddr: 0x8AA0, symBinAddr: 0x10000ABB4, symSize: 0x28 }
  - { offsetInCU: 0x253F6, offset: 0x253F6, size: 0x8, addend: 0x0, symName: __ZNSt3__111char_traitsIcE3eofB8ue170006Ev, symObjAddr: 0x8AC8, symBinAddr: 0x10000ABDC, symSize: 0x8 }
  - { offsetInCU: 0x2540A, offset: 0x2540A, size: 0x8, addend: 0x0, symName: __ZNKSt3__19basic_iosIcNS_11char_traitsIcEEE5widenB8ue170006Ec, symObjAddr: 0x8AD0, symBinAddr: 0x10000ABE4, symSize: 0x84 }
  - { offsetInCU: 0x25473, offset: 0x25473, size: 0x8, addend: 0x0, symName: __ZNKSt3__15ctypeIcE5widenB8ue170006Ec, symObjAddr: 0x8B80, symBinAddr: 0x10000AC94, symSize: 0x38 }
  - { offsetInCU: 0x254A8, offset: 0x254A8, size: 0x8, addend: 0x0, symName: __ZNSt3__18ios_base8setstateB8ue170006Ej, symObjAddr: 0x8BB8, symBinAddr: 0x10000ACCC, symSize: 0x34 }
  - { offsetInCU: 0x254DF, offset: 0x254DF, size: 0x8, addend: 0x0, symName: __ZNSt3__112basic_stringIcNS_11char_traitsIcEENS_9allocatorIcEEEC2B8ue170006ILi0EEEPKc, symObjAddr: 0x8BEC, symBinAddr: 0x10000AD00, symSize: 0x58 }
  - { offsetInCU: 0x2551E, offset: 0x2551E, size: 0x8, addend: 0x0, symName: __ZNKSt3__117__compressed_pairIPN5hf3fs17monitor_collector19MLWorkloadAnalyticsENS_14default_deleteIS3_EEE5firstB8ue170006Ev, symObjAddr: 0x8C44, symBinAddr: 0x10000AD58, symSize: 0x24 }
  - { offsetInCU: 0x25544, offset: 0x25544, size: 0x8, addend: 0x0, symName: __ZNKSt3__122__compressed_pair_elemIPN5hf3fs17monitor_collector19MLWorkloadAnalyticsELi0ELb0EE5__getB8ue170006Ev, symObjAddr: 0x8C68, symBinAddr: 0x10000AD7C, symSize: 0x14 }
  - { offsetInCU: 0x2556A, offset: 0x2556A, size: 0x8, addend: 0x0, symName: __ZNSt3__16chrono8durationIxNS_5ratioILl1ELl1000EEEE4zeroB8ue170006Ev, symObjAddr: 0x8CAC, symBinAddr: 0x10000ADC0, symSize: 0x3C }
  - { offsetInCU: 0x2557E, offset: 0x2557E, size: 0x8, addend: 0x0, symName: __ZNSt3__16chrono8durationIxNS_5ratioILl1ELl1000000000EEEEppB8ue170006Ev, symObjAddr: 0x8D80, symBinAddr: 0x10000AE94, symSize: 0x20 }
  - { offsetInCU: 0x255A4, offset: 0x255A4, size: 0x8, addend: 0x0, symName: __ZNSt3__16chrono8durationIxNS_5ratioILl1ELl1000000000EEEE3maxB8ue170006Ev, symObjAddr: 0x8DA0, symBinAddr: 0x10000AEB4, symSize: 0x3C }
  - { offsetInCU: 0x255C2, offset: 0x255C2, size: 0x8, addend: 0x0, symName: __ZNKSt3__16chrono13__duration_ltINS0_8durationIxNS_5ratioILl1ELl1000EEEEES5_EclB8ue170006ERKS5_S8_, symObjAddr: 0x8E10, symBinAddr: 0x10000AF24, symSize: 0x4C }
  - { offsetInCU: 0x25606, offset: 0x25606, size: 0x8, addend: 0x0, symName: __ZNSt3__16chrono15duration_valuesIxE4zeroB8ue170006Ev, symObjAddr: 0x8E5C, symBinAddr: 0x10000AF70, symSize: 0x8 }
  - { offsetInCU: 0x2561A, offset: 0x2561A, size: 0x8, addend: 0x0, symName: __ZNSt3__16chrono8durationIeNS_5ratioILl1ELl1000EEEEC1B8ue170006IxS3_EERKNS1_IT_T0_EEPNS_9enable_ifIXaasr13__no_overflowIS7_S3_EE5valueooL_ZNS_17integral_constantIbLb1EE5valueEEaaeqsr13__no_overflowIS7_S3_E4typeE3denLi1Entsr23treat_as_floating_pointIS6_EE5valueEvE4typeE, symObjAddr: 0x8EDC, symBinAddr: 0x10000AFF0, symSize: 0x3C }
  - { offsetInCU: 0x25670, offset: 0x25670, size: 0x8, addend: 0x0, symName: __ZNKSt3__16chrono8durationIeNS_5ratioILl1ELl1000EEEE5countB8ue170006Ev, symObjAddr: 0x8F18, symBinAddr: 0x10000B02C, symSize: 0x18 }
  - { offsetInCU: 0x25696, offset: 0x25696, size: 0x8, addend: 0x0, symName: __ZNSt3__16chrono8durationIeNS_5ratioILl1ELl1000EEEEC1B8ue170006IeNS2_ILl1ELl1EEEEERKNS1_IT_T0_EEPNS_9enable_ifIXaasr13__no_overflowIS8_S3_EE5valueooL_ZNS_17integral_constantIbLb1EE5valueEEaaeqsr13__no_overflowIS8_S3_E4typeE3denLi1Entsr23treat_as_floating_pointIS7_EE5valueEvE4typeE, symObjAddr: 0x8F30, symBinAddr: 0x10000B044, symSize: 0x3C }
  - { offsetInCU: 0x256EC, offset: 0x256EC, size: 0x8, addend: 0x0, symName: __ZNSt3__16chrono8durationIeNS_5ratioILl1ELl1000EEEEC2B8ue170006IxS3_EERKNS1_IT_T0_EEPNS_9enable_ifIXaasr13__no_overflowIS7_S3_EE5valueooL_ZNS_17integral_constantIbLb1EE5valueEEaaeqsr13__no_overflowIS7_S3_E4typeE3denLi1Entsr23treat_as_floating_pointIS6_EE5valueEvE4typeE, symObjAddr: 0x8F6C, symBinAddr: 0x10000B080, symSize: 0x48 }
  - { offsetInCU: 0x2574C, offset: 0x2574C, size: 0x8, addend: 0x0, symName: __ZNKSt3__16chrono15__duration_castINS0_8durationIxNS_5ratioILl1ELl1000EEEEENS2_IeS4_EENS3_ILl1ELl1EEELb1ELb1EEclB8ue170006ERKS5_, symObjAddr: 0x8FE4, symBinAddr: 0x10000B0F8, symSize: 0x44 }
  - { offsetInCU: 0x2578B, offset: 0x2578B, size: 0x8, addend: 0x0, symName: __ZNSt3__16chrono8durationIeNS_5ratioILl1ELl1000EEEEC1B8ue170006IeEERKT_PNS_9enable_ifIXaasr14is_convertibleIS8_eEE5valueooL_ZNS_17integral_constantIbLb1EE5valueEEntsr23treat_as_floating_pointIS6_EE5valueEvE4typeE, symObjAddr: 0x9028, symBinAddr: 0x10000B13C, symSize: 0x3C }
  - { offsetInCU: 0x257D7, offset: 0x257D7, size: 0x8, addend: 0x0, symName: __ZNSt3__16chrono8durationIeNS_5ratioILl1ELl1000EEEEC2B8ue170006IeEERKT_PNS_9enable_ifIXaasr14is_convertibleIS8_eEE5valueooL_ZNS_17integral_constantIbLb1EE5valueEEntsr23treat_as_floating_pointIS6_EE5valueEvE4typeE, symObjAddr: 0x9064, symBinAddr: 0x10000B178, symSize: 0x28 }
  - { offsetInCU: 0x25823, offset: 0x25823, size: 0x8, addend: 0x0, symName: __ZNSt3__16chrono8durationIeNS_5ratioILl1ELl1000EEEEC2B8ue170006IeNS2_ILl1ELl1EEEEERKNS1_IT_T0_EEPNS_9enable_ifIXaasr13__no_overflowIS8_S3_EE5valueooL_ZNS_17integral_constantIbLb1EE5valueEEaaeqsr13__no_overflowIS8_S3_E4typeE3denLi1Entsr23treat_as_floating_pointIS7_EE5valueEvE4typeE, symObjAddr: 0x908C, symBinAddr: 0x10000B1A0, symSize: 0x48 }
  - { offsetInCU: 0x25879, offset: 0x25879, size: 0x8, addend: 0x0, symName: __ZNKSt3__16chrono8durationIeNS_5ratioILl1ELl1EEEE5countB8ue170006Ev, symObjAddr: 0x9150, symBinAddr: 0x10000B264, symSize: 0x18 }
  - { offsetInCU: 0x2589F, offset: 0x2589F, size: 0x8, addend: 0x0, symName: __ZNSt3__16chrono8durationIxNS_5ratioILl1ELl1000000000EEEEC1B8ue170006IxEERKT_PNS_9enable_ifIXaasr14is_convertibleIS8_xEE5valueooL_ZNS_17integral_constantIbLb0EE5valueEEntsr23treat_as_floating_pointIS6_EE5valueEvE4typeE, symObjAddr: 0x91B4, symBinAddr: 0x10000B2C8, symSize: 0x3C }
  - { offsetInCU: 0x258EB, offset: 0x258EB, size: 0x8, addend: 0x0, symName: __ZNSt3__16chrono8durationIxNS_5ratioILl1ELl1000000000EEEEC2B8ue170006IxEERKT_PNS_9enable_ifIXaasr14is_convertibleIS8_xEE5valueooL_ZNS_17integral_constantIbLb0EE5valueEEntsr23treat_as_floating_pointIS6_EE5valueEvE4typeE, symObjAddr: 0x91F0, symBinAddr: 0x10000B304, symSize: 0x28 }
  - { offsetInCU: 0x25937, offset: 0x25937, size: 0x8, addend: 0x0, symName: __ZNKSt3__16chrono8durationIxNS_5ratioILl1ELl1000000000EEEE5countB8ue170006Ev, symObjAddr: 0x9284, symBinAddr: 0x10000B398, symSize: 0x18 }
  - { offsetInCU: 0x2595D, offset: 0x2595D, size: 0x8, addend: 0x0, symName: __ZNSt3__16chrono8durationIxNS_5ratioILl1ELl1000000000EEEEC1B8ue170006IxNS2_ILl1ELl1000EEEEERKNS1_IT_T0_EEPNS_9enable_ifIXaasr13__no_overflowIS8_S3_EE5valueooL_ZNS_17integral_constantIbLb0EE5valueEEaaeqsr13__no_overflowIS8_S3_E4typeE3denLi1Entsr23treat_as_floating_pointIS7_EE5valueEvE4typeE, symObjAddr: 0x929C, symBinAddr: 0x10000B3B0, symSize: 0x3C }
  - { offsetInCU: 0x259B3, offset: 0x259B3, size: 0x8, addend: 0x0, symName: __ZNSt3__16chrono8durationIxNS_5ratioILl1ELl1000000000EEEEC2B8ue170006IxNS2_ILl1ELl1000EEEEERKNS1_IT_T0_EEPNS_9enable_ifIXaasr13__no_overflowIS8_S3_EE5valueooL_ZNS_17integral_constantIbLb0EE5valueEEaaeqsr13__no_overflowIS8_S3_E4typeE3denLi1Entsr23treat_as_floating_pointIS7_EE5valueEvE4typeE, symObjAddr: 0x92D8, symBinAddr: 0x10000B3EC, symSize: 0x50 }
  - { offsetInCU: 0x25A09, offset: 0x25A09, size: 0x8, addend: 0x0, symName: __ZNSt3__16chrono15duration_valuesIxE3maxB8ue170006Ev, symObjAddr: 0x9328, symBinAddr: 0x10000B43C, symSize: 0x14 }
  - { offsetInCU: 0x25A1D, offset: 0x25A1D, size: 0x8, addend: 0x0, symName: __ZNSt3__114numeric_limitsIxE3maxB8ue170006Ev, symObjAddr: 0x933C, symBinAddr: 0x10000B450, symSize: 0x14 }
  - { offsetInCU: 0x25A31, offset: 0x25A31, size: 0x8, addend: 0x0, symName: __ZNSt3__123__libcpp_numeric_limitsIxLb1EE3maxB8ue170006Ev, symObjAddr: 0x9350, symBinAddr: 0x10000B464, symSize: 0x8 }
  - { offsetInCU: 0x25A45, offset: 0x25A45, size: 0x8, addend: 0x0, symName: __ZN7testing4Test13SetUpTestCaseEv, symObjAddr: 0x93A0, symBinAddr: 0x10000B4B4, symSize: 0x4 }
  - { offsetInCU: 0x25A59, offset: 0x25A59, size: 0x8, addend: 0x0, symName: __ZN7testing4Test14SetUpTestSuiteEv, symObjAddr: 0x93A4, symBinAddr: 0x10000B4B8, symSize: 0x4 }
  - { offsetInCU: 0x25A88, offset: 0x25A88, size: 0x8, addend: 0x0, symName: __ZN7testing8internal8GTestLog9GetStreamEv, symObjAddr: 0x93A8, symBinAddr: 0x10000B4BC, symSize: 0x18 }
  - { offsetInCU: 0x25AAE, offset: 0x25AAE, size: 0x8, addend: 0x0, symName: __ZN7testing4Test16TearDownTestCaseEv, symObjAddr: 0x93C0, symBinAddr: 0x10000B4D4, symSize: 0x4 }
  - { offsetInCU: 0x25AC2, offset: 0x25AC2, size: 0x8, addend: 0x0, symName: __ZN7testing4Test17TearDownTestSuiteEv, symObjAddr: 0x93C4, symBinAddr: 0x10000B4D8, symSize: 0x4 }
  - { offsetInCU: 0x25AD6, offset: 0x25AD6, size: 0x8, addend: 0x0, symName: __ZNSt3__110shared_ptrIN5hf3fs17monitor_collector13WorkloadStatsEED2B8ue170006Ev, symObjAddr: 0x93C8, symBinAddr: 0x10000B4DC, symSize: 0x54 }
  - { offsetInCU: 0x25B00, offset: 0x25B00, size: 0x8, addend: 0x0, symName: __ZNSt3__119__shared_weak_count16__release_sharedB8ue170006Ev, symObjAddr: 0x941C, symBinAddr: 0x10000B530, symSize: 0x3C }
  - { offsetInCU: 0x25B26, offset: 0x25B26, size: 0x8, addend: 0x0, symName: __ZNSt3__114__shared_count16__release_sharedB8ue170006Ev, symObjAddr: 0x9458, symBinAddr: 0x10000B56C, symSize: 0x7C }
  - { offsetInCU: 0x25B4C, offset: 0x25B4C, size: 0x8, addend: 0x0, symName: __ZN7testing15AssertionResultC2INSt3__110shared_ptrIN5hf3fs17monitor_collector13WorkloadStatsEEEEERKT_PNS2_9enable_ifIXntsr3std14is_convertibleIS8_S0_EE5valueEvE4typeE, symObjAddr: 0x9504, symBinAddr: 0x10000B618, symSize: 0x4C }
  - { offsetInCU: 0x25B98, offset: 0x25B98, size: 0x8, addend: 0x0, symName: __ZNKSt3__110shared_ptrIN5hf3fs17monitor_collector13WorkloadStatsEEcvbB8ue170006Ev, symObjAddr: 0x9550, symBinAddr: 0x10000B664, symSize: 0x30 }
  - { offsetInCU: 0x25BBE, offset: 0x25BBE, size: 0x8, addend: 0x0, symName: __ZNKSt3__110shared_ptrIN5hf3fs17monitor_collector13WorkloadStatsEE3getB8ue170006Ev, symObjAddr: 0x9580, symBinAddr: 0x10000B694, symSize: 0x18 }
  - { offsetInCU: 0x25BFD, offset: 0x25BFD, size: 0x8, addend: 0x0, symName: __ZN7testing15AssertionResultlsIA12_cEERS0_RKT_, symObjAddr: 0x975C, symBinAddr: 0x10000B870, symSize: 0x84 }
  - { offsetInCU: 0x25C45, offset: 0x25C45, size: 0x8, addend: 0x0, symName: __ZN7testing15AssertionResultlsIPKcEERS0_RKT_, symObjAddr: 0x97E0, symBinAddr: 0x10000B8F4, symSize: 0x84 }
  - { offsetInCU: 0x25C9B, offset: 0x25C9B, size: 0x8, addend: 0x0, symName: __ZN7testing15AssertionResultlsIA3_cEERS0_RKT_, symObjAddr: 0x9864, symBinAddr: 0x10000B978, symSize: 0x84 }
  - { offsetInCU: 0x25CD8, offset: 0x25CD8, size: 0x8, addend: 0x0, symName: __ZN7testing15AssertionResultlsINSt3__112basic_stringIcNS2_11char_traitsIcEENS2_9allocatorIcEEEEEERS0_RKT_, symObjAddr: 0x98E8, symBinAddr: 0x10000B9FC, symSize: 0x84 }
  - { offsetInCU: 0x25D2E, offset: 0x25D2E, size: 0x8, addend: 0x0, symName: __ZN7testing15AssertionResultlsIA5_cEERS0_RKT_, symObjAddr: 0x999C, symBinAddr: 0x10000BAB0, symSize: 0x84 }
  - { offsetInCU: 0x25D6B, offset: 0x25D6B, size: 0x8, addend: 0x0, symName: __ZN7testing15AssertionResult13AppendMessageERKNS_7MessageE, symObjAddr: 0x9A20, symBinAddr: 0x10000BB34, symSize: 0xC4 }
  - { offsetInCU: 0x25D9F, offset: 0x25D9F, size: 0x8, addend: 0x0, symName: __ZN7testing7MessagelsIA12_cEERS0_RKT_, symObjAddr: 0x9AE4, symBinAddr: 0x10000BBF8, symSize: 0x3C }
  - { offsetInCU: 0x25DE3, offset: 0x25DE3, size: 0x8, addend: 0x0, symName: __ZNSt3__110unique_ptrINS_12basic_stringIcNS_11char_traitsIcEENS_9allocatorIcEEEENS_14default_deleteIS6_EEEaSB8ue170006EOS9_, symObjAddr: 0x9B8C, symBinAddr: 0x10000BCA0, symSize: 0x50 }
  - { offsetInCU: 0x25E17, offset: 0x25E17, size: 0x8, addend: 0x0, symName: __ZNSt3__110unique_ptrINS_12basic_stringIcNS_11char_traitsIcEENS_9allocatorIcEEEENS_14default_deleteIS6_EEEC1B8ue170006ILb1EvEEPS6_, symObjAddr: 0x9BDC, symBinAddr: 0x10000BCF0, symSize: 0x34 }
  - { offsetInCU: 0x25E5A, offset: 0x25E5A, size: 0x8, addend: 0x0, symName: __ZNSt3__110unique_ptrINS_12basic_stringIcNS_11char_traitsIcEENS_9allocatorIcEEEENS_14default_deleteIS6_EEEC2B8ue170006ILb1EvEEPS6_, symObjAddr: 0x9C10, symBinAddr: 0x10000BD24, symSize: 0x44 }
  - { offsetInCU: 0x25EA3, offset: 0x25EA3, size: 0x8, addend: 0x0, symName: __ZNSt3__117__compressed_pairIPNS_12basic_stringIcNS_11char_traitsIcEENS_9allocatorIcEEEENS_14default_deleteIS6_EEEC1B8ue170006IRS7_NS_16__value_init_tagEEEOT_OT0_, symObjAddr: 0x9C54, symBinAddr: 0x10000BD68, symSize: 0x3C }
  - { offsetInCU: 0x25EFB, offset: 0x25EFB, size: 0x8, addend: 0x0, symName: __ZNSt3__117__compressed_pairIPNS_12basic_stringIcNS_11char_traitsIcEENS_9allocatorIcEEEENS_14default_deleteIS6_EEEC2B8ue170006IRS7_NS_16__value_init_tagEEEOT_OT0_, symObjAddr: 0x9C90, symBinAddr: 0x10000BDA4, symSize: 0x40 }
  - { offsetInCU: 0x25F53, offset: 0x25F53, size: 0x8, addend: 0x0, symName: __ZNSt3__122__compressed_pair_elemIPNS_12basic_stringIcNS_11char_traitsIcEENS_9allocatorIcEEEELi0ELb0EEC2B8ue170006IRS7_vEEOT_, symObjAddr: 0x9CD0, symBinAddr: 0x10000BDE4, symSize: 0x24 }
  - { offsetInCU: 0x25F95, offset: 0x25F95, size: 0x8, addend: 0x0, symName: __ZNSt3__110unique_ptrINS_12basic_stringIcNS_11char_traitsIcEENS_9allocatorIcEEEENS_14default_deleteIS6_EEE7releaseB8ue170006Ev, symObjAddr: 0x9CF4, symBinAddr: 0x10000BE08, symSize: 0x44 }
  - { offsetInCU: 0x25FCA, offset: 0x25FCA, size: 0x8, addend: 0x0, symName: __ZNSt3__110unique_ptrINS_12basic_stringIcNS_11char_traitsIcEENS_9allocatorIcEEEENS_14default_deleteIS6_EEE11get_deleterB8ue170006Ev, symObjAddr: 0x9D38, symBinAddr: 0x10000BE4C, symSize: 0x24 }
  - { offsetInCU: 0x25FF0, offset: 0x25FF0, size: 0x8, addend: 0x0, symName: __ZN7testing7MessagelsIKcEERS0_RKPT_, symObjAddr: 0x9D5C, symBinAddr: 0x10000BE70, symSize: 0x7C }
  - { offsetInCU: 0x2602D, offset: 0x2602D, size: 0x8, addend: 0x0, symName: __ZN7testing7MessagelsIA3_cEERS0_RKT_, symObjAddr: 0x9DD8, symBinAddr: 0x10000BEEC, symSize: 0x3C }
  - { offsetInCU: 0x26071, offset: 0x26071, size: 0x8, addend: 0x0, symName: __ZN7testing7MessagelsINSt3__112basic_stringIcNS2_11char_traitsIcEENS2_9allocatorIcEEEEEERS0_RKT_, symObjAddr: 0x9E14, symBinAddr: 0x10000BF28, symSize: 0x3C }
  - { offsetInCU: 0x260B5, offset: 0x260B5, size: 0x8, addend: 0x0, symName: __ZN7testing8internal19FormatForComparisonIyyE6FormatERKy, symObjAddr: 0x9E50, symBinAddr: 0x10000BF64, symSize: 0x2C }
  - { offsetInCU: 0x260D9, offset: 0x260D9, size: 0x8, addend: 0x0, symName: __ZNSt3__118basic_stringstreamIcNS_11char_traitsIcEENS_9allocatorIcEEEC1B8ue170006Ev, symObjAddr: 0x9F44, symBinAddr: 0x10000C058, symSize: 0x104 }
  - { offsetInCU: 0x26108, offset: 0x26108, size: 0x8, addend: 0x0, symName: __ZN7testing8internal21UniversalTersePrinterIyE5PrintERKyPNSt3__113basic_ostreamIcNS5_11char_traitsIcEEEE, symObjAddr: 0xA048, symBinAddr: 0x10000C15C, symSize: 0x2C }
  - { offsetInCU: 0x2613B, offset: 0x2613B, size: 0x8, addend: 0x0, symName: __ZNKSt3__118basic_stringstreamIcNS_11char_traitsIcEENS_9allocatorIcEEE3strB8ue170006Ev, symObjAddr: 0xA074, symBinAddr: 0x10000C188, symSize: 0x30 }
  - { offsetInCU: 0x26166, offset: 0x26166, size: 0x8, addend: 0x0, symName: __ZNSt3__118basic_stringstreamIcNS_11char_traitsIcEENS_9allocatorIcEEED1Ev, symObjAddr: 0xA0A4, symBinAddr: 0x10000C1B8, symSize: 0x40 }
  - { offsetInCU: 0x26193, offset: 0x26193, size: 0x8, addend: 0x0, symName: __ZNSt3__19basic_iosIcNS_11char_traitsIcEEEC2B8ue170006Ev, symObjAddr: 0xA0E4, symBinAddr: 0x10000C1F8, symSize: 0x44 }
  - { offsetInCU: 0x261BD, offset: 0x261BD, size: 0x8, addend: 0x0, symName: __ZNSt3__114basic_iostreamIcNS_11char_traitsIcEEEC2B8ue170006EPNS_15basic_streambufIcS2_EE, symObjAddr: 0xA128, symBinAddr: 0x10000C23C, symSize: 0xAC }
  - { offsetInCU: 0x26203, offset: 0x26203, size: 0x8, addend: 0x0, symName: __ZNSt3__115basic_stringbufIcNS_11char_traitsIcEENS_9allocatorIcEEEC1B8ue170006Ej, symObjAddr: 0xA1D4, symBinAddr: 0x10000C2E8, symSize: 0x34 }
  - { offsetInCU: 0x2623C, offset: 0x2623C, size: 0x8, addend: 0x0, symName: __ZNSt3__18ios_baseC2B8ue170006Ev, symObjAddr: 0xA208, symBinAddr: 0x10000C31C, symSize: 0x24 }
  - { offsetInCU: 0x26266, offset: 0x26266, size: 0x8, addend: 0x0, symName: __ZNSt3__113basic_istreamIcNS_11char_traitsIcEEEC2B8ue170006EPNS_15basic_streambufIcS2_EE, symObjAddr: 0xA22C, symBinAddr: 0x10000C340, symSize: 0x64 }
  - { offsetInCU: 0x262AB, offset: 0x262AB, size: 0x8, addend: 0x0, symName: __ZNSt3__113basic_ostreamIcNS_11char_traitsIcEEEC2B8ue170006Ev, symObjAddr: 0xA290, symBinAddr: 0x10000C3A4, symSize: 0x34 }
  - { offsetInCU: 0x262E2, offset: 0x262E2, size: 0x8, addend: 0x0, symName: __ZNSt3__19basic_iosIcNS_11char_traitsIcEEE4initB8ue170006EPNS_15basic_streambufIcS2_EE, symObjAddr: 0xA2C4, symBinAddr: 0x10000C3D8, symSize: 0x44 }
  - { offsetInCU: 0x26319, offset: 0x26319, size: 0x8, addend: 0x0, symName: __ZNSt3__115basic_stringbufIcNS_11char_traitsIcEENS_9allocatorIcEEEC2B8ue170006Ej, symObjAddr: 0xA308, symBinAddr: 0x10000C41C, symSize: 0x60 }
  - { offsetInCU: 0x26352, offset: 0x26352, size: 0x8, addend: 0x0, symName: __ZN7testing8internal16UniversalPrinterIyE5PrintERKyPNSt3__113basic_ostreamIcNS5_11char_traitsIcEEEE, symObjAddr: 0xA394, symBinAddr: 0x10000C4A8, symSize: 0x2C }
  - { offsetInCU: 0x26385, offset: 0x26385, size: 0x8, addend: 0x0, symName: __ZN7testing8internal52internal_stream_operator_without_lexical_name_lookup13StreamPrinter10PrintValueIyvEEDTcvvlsdefp0_fp_ERKT_PNSt3__113basic_ostreamIcNS8_11char_traitsIcEEEE, symObjAddr: 0xA418, symBinAddr: 0x10000C52C, symSize: 0x30 }
  - { offsetInCU: 0x263C0, offset: 0x263C0, size: 0x8, addend: 0x0, symName: __ZNSt3__118basic_stringstreamIcNS_11char_traitsIcEENS_9allocatorIcEEED2Ev, symObjAddr: 0xA448, symBinAddr: 0x10000C55C, symSize: 0x6C }
  - { offsetInCU: 0x263FA, offset: 0x263FA, size: 0x8, addend: 0x0, symName: __ZThn16_NSt3__118basic_stringstreamIcNS_11char_traitsIcEENS_9allocatorIcEEED1Ev, symObjAddr: 0xA4B4, symBinAddr: 0x10000C5C8, symSize: 0x1C }
  - { offsetInCU: 0x26411, offset: 0x26411, size: 0x8, addend: 0x0, symName: __ZTv0_n24_NSt3__118basic_stringstreamIcNS_11char_traitsIcEENS_9allocatorIcEEED1Ev, symObjAddr: 0xA4D0, symBinAddr: 0x10000C5E4, symSize: 0x28 }
  - { offsetInCU: 0x2642D, offset: 0x2642D, size: 0x8, addend: 0x0, symName: __ZNSt3__115basic_stringbufIcNS_11char_traitsIcEENS_9allocatorIcEEED1Ev, symObjAddr: 0xA4F8, symBinAddr: 0x10000C60C, symSize: 0x2C }
  - { offsetInCU: 0x2645A, offset: 0x2645A, size: 0x8, addend: 0x0, symName: __ZNSt3__115basic_stringbufIcNS_11char_traitsIcEENS_9allocatorIcEEED2Ev, symObjAddr: 0xA524, symBinAddr: 0x10000C638, symSize: 0x48 }
  - { offsetInCU: 0x26487, offset: 0x26487, size: 0x8, addend: 0x0, symName: __ZN7testing7MessagelsIA5_cEERS0_RKT_, symObjAddr: 0xA56C, symBinAddr: 0x10000C680, symSize: 0x3C }
  - { offsetInCU: 0x264CB, offset: 0x264CB, size: 0x8, addend: 0x0, symName: __ZN7testing8internal19FormatForComparisonIyjE6FormatERKy, symObjAddr: 0xA754, symBinAddr: 0x10000C868, symSize: 0x2C }
  - { offsetInCU: 0x264EF, offset: 0x264EF, size: 0x8, addend: 0x0, symName: __ZN7testing8internal19FormatForComparisonIjyE6FormatERKj, symObjAddr: 0xA780, symBinAddr: 0x10000C894, symSize: 0x2C }
  - { offsetInCU: 0x26513, offset: 0x26513, size: 0x8, addend: 0x0, symName: __ZN7testing8internal21UniversalTersePrinterIjE5PrintERKjPNSt3__113basic_ostreamIcNS5_11char_traitsIcEEEE, symObjAddr: 0xA874, symBinAddr: 0x10000C988, symSize: 0x2C }
  - { offsetInCU: 0x26546, offset: 0x26546, size: 0x8, addend: 0x0, symName: __ZN7testing8internal16UniversalPrinterIjE5PrintERKjPNSt3__113basic_ostreamIcNS5_11char_traitsIcEEEE, symObjAddr: 0xA8CC, symBinAddr: 0x10000C9E0, symSize: 0x2C }
  - { offsetInCU: 0x26579, offset: 0x26579, size: 0x8, addend: 0x0, symName: __ZN7testing8internal52internal_stream_operator_without_lexical_name_lookup13StreamPrinter10PrintValueIjvEEDTcvvlsdefp0_fp_ERKT_PNSt3__113basic_ostreamIcNS8_11char_traitsIcEEEE, symObjAddr: 0xA950, symBinAddr: 0x10000CA64, symSize: 0x30 }
  - { offsetInCU: 0x265B4, offset: 0x265B4, size: 0x8, addend: 0x0, symName: __ZN7testing15AssertionResultC2IbEERKT_PNSt3__19enable_ifIXntsr3std14is_convertibleIS2_S0_EE5valueEvE4typeE, symObjAddr: 0xA980, symBinAddr: 0x10000CA94, symSize: 0x48 }
  - { offsetInCU: 0x26600, offset: 0x26600, size: 0x8, addend: 0x0, symName: __ZN7testing8internal19FormatForComparisonIccE6FormatERKc, symObjAddr: 0xAB44, symBinAddr: 0x10000CC58, symSize: 0x2C }
  - { offsetInCU: 0x26624, offset: 0x26624, size: 0x8, addend: 0x0, symName: __ZN7testing8internal21UniversalTersePrinterIcE5PrintERKcPNSt3__113basic_ostreamIcNS5_11char_traitsIcEEEE, symObjAddr: 0xAC38, symBinAddr: 0x10000CD4C, symSize: 0x2C }
  - { offsetInCU: 0x26657, offset: 0x26657, size: 0x8, addend: 0x0, symName: __ZN7testing8internal16UniversalPrinterIcE5PrintERKcPNSt3__113basic_ostreamIcNS5_11char_traitsIcEEEE, symObjAddr: 0xAC90, symBinAddr: 0x10000CDA4, symSize: 0x30 }
  - { offsetInCU: 0x2668A, offset: 0x2668A, size: 0x8, addend: 0x0, symName: __ZNSt3__16vectorINS_10shared_ptrIN5hf3fs17monitor_collector13WorkloadStatsEEENS_9allocatorIS5_EEED2B8ue170006Ev, symObjAddr: 0xACEC, symBinAddr: 0x10000CE00, symSize: 0x44 }
  - { offsetInCU: 0x266B4, offset: 0x266B4, size: 0x8, addend: 0x0, symName: __ZNSt3__16vectorINS_10shared_ptrIN5hf3fs17monitor_collector13WorkloadStatsEEENS_9allocatorIS5_EEE16__destroy_vectorC1B8ue170006ERS8_, symObjAddr: 0xAD30, symBinAddr: 0x10000CE44, symSize: 0x34 }
  - { offsetInCU: 0x266ED, offset: 0x266ED, size: 0x8, addend: 0x0, symName: __ZNSt3__16vectorINS_10shared_ptrIN5hf3fs17monitor_collector13WorkloadStatsEEENS_9allocatorIS5_EEE16__destroy_vectorclB8ue170006Ev, symObjAddr: 0xAD64, symBinAddr: 0x10000CE78, symSize: 0x90 }
  - { offsetInCU: 0x26713, offset: 0x26713, size: 0x8, addend: 0x0, symName: __ZNSt3__16vectorINS_10shared_ptrIN5hf3fs17monitor_collector13WorkloadStatsEEENS_9allocatorIS5_EEE16__destroy_vectorC2B8ue170006ERS8_, symObjAddr: 0xADF4, symBinAddr: 0x10000CF08, symSize: 0x20 }
  - { offsetInCU: 0x2674C, offset: 0x2674C, size: 0x8, addend: 0x0, symName: __ZNSt3__16vectorINS_10shared_ptrIN5hf3fs17monitor_collector13WorkloadStatsEEENS_9allocatorIS5_EEE7__clearB8ue170006Ev, symObjAddr: 0xAE14, symBinAddr: 0x10000CF28, symSize: 0x28 }
  - { offsetInCU: 0x26772, offset: 0x26772, size: 0x8, addend: 0x0, symName: __ZNKSt3__16vectorINS_10shared_ptrIN5hf3fs17monitor_collector13WorkloadStatsEEENS_9allocatorIS5_EEE17__annotate_deleteB8ue170006Ev, symObjAddr: 0xAE3C, symBinAddr: 0x10000CF50, symSize: 0xB8 }
  - { offsetInCU: 0x26798, offset: 0x26798, size: 0x8, addend: 0x0, symName: __ZNSt3__116allocator_traitsINS_9allocatorINS_10shared_ptrIN5hf3fs17monitor_collector13WorkloadStatsEEEEEE10deallocateB8ue170006ERS7_PS6_m, symObjAddr: 0xAEF4, symBinAddr: 0x10000D008, symSize: 0x34 }
  - { offsetInCU: 0x267DA, offset: 0x267DA, size: 0x8, addend: 0x0, symName: __ZNSt3__16vectorINS_10shared_ptrIN5hf3fs17monitor_collector13WorkloadStatsEEENS_9allocatorIS5_EEE7__allocB8ue170006Ev, symObjAddr: 0xAF28, symBinAddr: 0x10000D03C, symSize: 0x28 }
  - { offsetInCU: 0x26800, offset: 0x26800, size: 0x8, addend: 0x0, symName: __ZNKSt3__16vectorINS_10shared_ptrIN5hf3fs17monitor_collector13WorkloadStatsEEENS_9allocatorIS5_EEE8capacityB8ue170006Ev, symObjAddr: 0xAF50, symBinAddr: 0x10000D064, symSize: 0x40 }
  - { offsetInCU: 0x26826, offset: 0x26826, size: 0x8, addend: 0x0, symName: __ZNSt3__16vectorINS_10shared_ptrIN5hf3fs17monitor_collector13WorkloadStatsEEENS_9allocatorIS5_EEE22__base_destruct_at_endB8ue170006EPS5_, symObjAddr: 0xAF90, symBinAddr: 0x10000D0A4, symSize: 0x8C }
  - { offsetInCU: 0x2686A, offset: 0x2686A, size: 0x8, addend: 0x0, symName: __ZNSt3__116allocator_traitsINS_9allocatorINS_10shared_ptrIN5hf3fs17monitor_collector13WorkloadStatsEEEEEE7destroyB8ue170006IS6_vEEvRS7_PT_, symObjAddr: 0xB01C, symBinAddr: 0x10000D130, symSize: 0x2C }
  - { offsetInCU: 0x268A7, offset: 0x268A7, size: 0x8, addend: 0x0, symName: __ZNSt3__19allocatorINS_10shared_ptrIN5hf3fs17monitor_collector13WorkloadStatsEEEE7destroyB8ue170006EPS5_, symObjAddr: 0xB05C, symBinAddr: 0x10000D170, symSize: 0x28 }
  - { offsetInCU: 0x268DB, offset: 0x268DB, size: 0x8, addend: 0x0, symName: __ZNKSt3__16vectorINS_10shared_ptrIN5hf3fs17monitor_collector13WorkloadStatsEEENS_9allocatorIS5_EEE31__annotate_contiguous_containerB8ue170006EPKvSA_SA_SA_, symObjAddr: 0xB084, symBinAddr: 0x10000D198, symSize: 0x20 }
  - { offsetInCU: 0x2692D, offset: 0x2692D, size: 0x8, addend: 0x0, symName: __ZNKSt3__16vectorINS_10shared_ptrIN5hf3fs17monitor_collector13WorkloadStatsEEENS_9allocatorIS5_EEE4dataB8ue170006Ev, symObjAddr: 0xB0A4, symBinAddr: 0x10000D1B8, symSize: 0x28 }
  - { offsetInCU: 0x26953, offset: 0x26953, size: 0x8, addend: 0x0, symName: __ZNKSt3__16vectorINS_10shared_ptrIN5hf3fs17monitor_collector13WorkloadStatsEEENS_9allocatorIS5_EEE4sizeB8ue170006Ev, symObjAddr: 0xB0CC, symBinAddr: 0x10000D1E0, symSize: 0x28 }
  - { offsetInCU: 0x26979, offset: 0x26979, size: 0x8, addend: 0x0, symName: __ZNSt3__19allocatorINS_10shared_ptrIN5hf3fs17monitor_collector13WorkloadStatsEEEE10deallocateB8ue170006EPS5_m, symObjAddr: 0xB0F4, symBinAddr: 0x10000D208, symSize: 0x40 }
  - { offsetInCU: 0x269BB, offset: 0x269BB, size: 0x8, addend: 0x0, symName: __ZNSt3__117__compressed_pairIPNS_10shared_ptrIN5hf3fs17monitor_collector13WorkloadStatsEEENS_9allocatorIS5_EEE6secondB8ue170006Ev, symObjAddr: 0xB134, symBinAddr: 0x10000D248, symSize: 0x24 }
  - { offsetInCU: 0x269E1, offset: 0x269E1, size: 0x8, addend: 0x0, symName: __ZNSt3__122__compressed_pair_elemINS_9allocatorINS_10shared_ptrIN5hf3fs17monitor_collector13WorkloadStatsEEEEELi1ELb1EE5__getB8ue170006Ev, symObjAddr: 0xB158, symBinAddr: 0x10000D26C, symSize: 0x14 }
  - { offsetInCU: 0x26A07, offset: 0x26A07, size: 0x8, addend: 0x0, symName: __ZNKSt3__16vectorINS_10shared_ptrIN5hf3fs17monitor_collector13WorkloadStatsEEENS_9allocatorIS5_EEE9__end_capB8ue170006Ev, symObjAddr: 0xB16C, symBinAddr: 0x10000D280, symSize: 0x28 }
  - { offsetInCU: 0x26A2D, offset: 0x26A2D, size: 0x8, addend: 0x0, symName: __ZNKSt3__117__compressed_pairIPNS_10shared_ptrIN5hf3fs17monitor_collector13WorkloadStatsEEENS_9allocatorIS5_EEE5firstB8ue170006Ev, symObjAddr: 0xB194, symBinAddr: 0x10000D2A8, symSize: 0x24 }
  - { offsetInCU: 0x26A53, offset: 0x26A53, size: 0x8, addend: 0x0, symName: __ZNKSt3__122__compressed_pair_elemIPNS_10shared_ptrIN5hf3fs17monitor_collector13WorkloadStatsEEELi0ELb0EE5__getB8ue170006Ev, symObjAddr: 0xB1B8, symBinAddr: 0x10000D2CC, symSize: 0x14 }
  - { offsetInCU: 0x26A79, offset: 0x26A79, size: 0x8, addend: 0x0, symName: __ZNSt3__113unordered_mapIyNS_10shared_ptrIN5hf3fs17monitor_collector13WorkloadStatsEEENS_4hashIyEENS_8equal_toIyEENS_9allocatorINS_4pairIKyS5_EEEEED2B8ue170006Ev, symObjAddr: 0xB1CC, symBinAddr: 0x10000D2E0, symSize: 0x2C }
  - { offsetInCU: 0x26AA3, offset: 0x26AA3, size: 0x8, addend: 0x0, symName: __ZNSt3__112__hash_tableINS_17__hash_value_typeIyNS_10shared_ptrIN5hf3fs17monitor_collector13WorkloadStatsEEEEENS_22__unordered_map_hasherIyS7_NS_4hashIyEENS_8equal_toIyEELb1EEENS_21__unordered_map_equalIyS7_SC_SA_Lb1EEENS_9allocatorIS7_EEED1Ev, symObjAddr: 0xB1F8, symBinAddr: 0x10000D30C, symSize: 0x2C }
  - { offsetInCU: 0x26ACF, offset: 0x26ACF, size: 0x8, addend: 0x0, symName: __ZNSt3__112__hash_tableINS_17__hash_value_typeIyNS_10shared_ptrIN5hf3fs17monitor_collector13WorkloadStatsEEEEENS_22__unordered_map_hasherIyS7_NS_4hashIyEENS_8equal_toIyEELb1EEENS_21__unordered_map_equalIyS7_SC_SA_Lb1EEENS_9allocatorIS7_EEED2Ev, symObjAddr: 0xB224, symBinAddr: 0x10000D338, symSize: 0x48 }
  - { offsetInCU: 0x26AFB, offset: 0x26AFB, size: 0x8, addend: 0x0, symName: __ZNSt3__112__hash_tableINS_17__hash_value_typeIyNS_10shared_ptrIN5hf3fs17monitor_collector13WorkloadStatsEEEEENS_22__unordered_map_hasherIyS7_NS_4hashIyEENS_8equal_toIyEELb1EEENS_21__unordered_map_equalIyS7_SC_SA_Lb1EEENS_9allocatorIS7_EEE17__deallocate_nodeEPNS_16__hash_node_baseIPNS_11__hash_nodeIS7_PvEEEE, symObjAddr: 0xB26C, symBinAddr: 0x10000D380, symSize: 0xA8 }
  - { offsetInCU: 0x26B65, offset: 0x26B65, size: 0x8, addend: 0x0, symName: __ZNSt3__117__compressed_pairINS_16__hash_node_baseIPNS_11__hash_nodeINS_17__hash_value_typeIyNS_10shared_ptrIN5hf3fs17monitor_collector13WorkloadStatsEEEEEPvEEEENS_9allocatorISB_EEE5firstB8ue170006Ev, symObjAddr: 0xB314, symBinAddr: 0x10000D428, symSize: 0x24 }
  - { offsetInCU: 0x26B8B, offset: 0x26B8B, size: 0x8, addend: 0x0, symName: __ZNSt3__110unique_ptrIA_PNS_16__hash_node_baseIPNS_11__hash_nodeINS_17__hash_value_typeIyNS_10shared_ptrIN5hf3fs17monitor_collector13WorkloadStatsEEEEEPvEEEENS_25__bucket_list_deallocatorINS_9allocatorISE_EEEEED1B8ue170006Ev, symObjAddr: 0xB338, symBinAddr: 0x10000D44C, symSize: 0x2C }
  - { offsetInCU: 0x26BB5, offset: 0x26BB5, size: 0x8, addend: 0x0, symName: __ZNSt3__112__hash_tableINS_17__hash_value_typeIyNS_10shared_ptrIN5hf3fs17monitor_collector13WorkloadStatsEEEEENS_22__unordered_map_hasherIyS7_NS_4hashIyEENS_8equal_toIyEELb1EEENS_21__unordered_map_equalIyS7_SC_SA_Lb1EEENS_9allocatorIS7_EEE12__node_allocB8ue170006Ev, symObjAddr: 0xB364, symBinAddr: 0x10000D478, symSize: 0x28 }
  - { offsetInCU: 0x26BDB, offset: 0x26BDB, size: 0x8, addend: 0x0, symName: __ZNSt3__116__hash_node_baseIPNS_11__hash_nodeINS_17__hash_value_typeIyNS_10shared_ptrIN5hf3fs17monitor_collector13WorkloadStatsEEEEEPvEEE8__upcastB8ue170006Ev, symObjAddr: 0xB38C, symBinAddr: 0x10000D4A0, symSize: 0x24 }
  - { offsetInCU: 0x26C01, offset: 0x26C01, size: 0x8, addend: 0x0, symName: __ZNSt3__116allocator_traitsINS_9allocatorINS_11__hash_nodeINS_17__hash_value_typeIyNS_10shared_ptrIN5hf3fs17monitor_collector13WorkloadStatsEEEEEPvEEEEE7destroyB8ue170006INS_4pairIKyS8_EEvvEEvRSC_PT_, symObjAddr: 0xB3B0, symBinAddr: 0x10000D4C4, symSize: 0x28 }
  - { offsetInCU: 0x26C3B, offset: 0x26C3B, size: 0x8, addend: 0x0, symName: __ZNSt3__122__hash_key_value_typesINS_17__hash_value_typeIyNS_10shared_ptrIN5hf3fs17monitor_collector13WorkloadStatsEEEEEE9__get_ptrB8ue170006ERS7_, symObjAddr: 0xB3D8, symBinAddr: 0x10000D4EC, symSize: 0x24 }
  - { offsetInCU: 0x26C5E, offset: 0x26C5E, size: 0x8, addend: 0x0, symName: __ZNSt3__116allocator_traitsINS_9allocatorINS_11__hash_nodeINS_17__hash_value_typeIyNS_10shared_ptrIN5hf3fs17monitor_collector13WorkloadStatsEEEEEPvEEEEE10deallocateB8ue170006ERSC_PSB_m, symObjAddr: 0xB3FC, symBinAddr: 0x10000D510, symSize: 0x34 }
  - { offsetInCU: 0x26CA0, offset: 0x26CA0, size: 0x8, addend: 0x0, symName: __ZNSt3__117__compressed_pairINS_16__hash_node_baseIPNS_11__hash_nodeINS_17__hash_value_typeIyNS_10shared_ptrIN5hf3fs17monitor_collector13WorkloadStatsEEEEEPvEEEENS_9allocatorISB_EEE6secondB8ue170006Ev, symObjAddr: 0xB430, symBinAddr: 0x10000D544, symSize: 0x24 }
  - { offsetInCU: 0x26CC6, offset: 0x26CC6, size: 0x8, addend: 0x0, symName: __ZNSt3__122__compressed_pair_elemINS_9allocatorINS_11__hash_nodeINS_17__hash_value_typeIyNS_10shared_ptrIN5hf3fs17monitor_collector13WorkloadStatsEEEEEPvEEEELi1ELb1EE5__getB8ue170006Ev, symObjAddr: 0xB454, symBinAddr: 0x10000D568, symSize: 0x14 }
  - { offsetInCU: 0x26CEC, offset: 0x26CEC, size: 0x8, addend: 0x0, symName: __ZNSt3__114pointer_traitsIPNS_16__hash_node_baseIPNS_11__hash_nodeINS_17__hash_value_typeIyNS_10shared_ptrIN5hf3fs17monitor_collector13WorkloadStatsEEEEEPvEEEEE10pointer_toB8ue170006ERSD_, symObjAddr: 0xB468, symBinAddr: 0x10000D57C, symSize: 0x14 }
  - { offsetInCU: 0x26D0F, offset: 0x26D0F, size: 0x8, addend: 0x0, symName: __ZNSt3__14pairIKyNS_10shared_ptrIN5hf3fs17monitor_collector13WorkloadStatsEEEED1Ev, symObjAddr: 0xB47C, symBinAddr: 0x10000D590, symSize: 0x2C }
  - { offsetInCU: 0x26D3B, offset: 0x26D3B, size: 0x8, addend: 0x0, symName: __ZNSt3__14pairIKyNS_10shared_ptrIN5hf3fs17monitor_collector13WorkloadStatsEEEED2Ev, symObjAddr: 0xB4A8, symBinAddr: 0x10000D5BC, symSize: 0x30 }
  - { offsetInCU: 0x26D67, offset: 0x26D67, size: 0x8, addend: 0x0, symName: __ZNSt3__117__hash_value_typeIyNS_10shared_ptrIN5hf3fs17monitor_collector13WorkloadStatsEEEE11__get_valueB8ue170006Ev, symObjAddr: 0xB4D8, symBinAddr: 0x10000D5EC, symSize: 0x24 }
  - { offsetInCU: 0x26D8D, offset: 0x26D8D, size: 0x8, addend: 0x0, symName: __ZNSt3__19allocatorINS_11__hash_nodeINS_17__hash_value_typeIyNS_10shared_ptrIN5hf3fs17monitor_collector13WorkloadStatsEEEEEPvEEE10deallocateB8ue170006EPSA_m, symObjAddr: 0xB534, symBinAddr: 0x10000D648, symSize: 0x44 }
  - { offsetInCU: 0x26DCF, offset: 0x26DCF, size: 0x8, addend: 0x0, symName: __ZNSt3__122__compressed_pair_elemINS_16__hash_node_baseIPNS_11__hash_nodeINS_17__hash_value_typeIyNS_10shared_ptrIN5hf3fs17monitor_collector13WorkloadStatsEEEEEPvEEEELi0ELb0EE5__getB8ue170006Ev, symObjAddr: 0xB578, symBinAddr: 0x10000D68C, symSize: 0x14 }
  - { offsetInCU: 0x26DF5, offset: 0x26DF5, size: 0x8, addend: 0x0, symName: __ZNSt3__110unique_ptrIA_PNS_16__hash_node_baseIPNS_11__hash_nodeINS_17__hash_value_typeIyNS_10shared_ptrIN5hf3fs17monitor_collector13WorkloadStatsEEEEEPvEEEENS_25__bucket_list_deallocatorINS_9allocatorISE_EEEEED2B8ue170006Ev, symObjAddr: 0xB58C, symBinAddr: 0x10000D6A0, symSize: 0x30 }
  - { offsetInCU: 0x26E1F, offset: 0x26E1F, size: 0x8, addend: 0x0, symName: __ZNSt3__110unique_ptrIA_PNS_16__hash_node_baseIPNS_11__hash_nodeINS_17__hash_value_typeIyNS_10shared_ptrIN5hf3fs17monitor_collector13WorkloadStatsEEEEEPvEEEENS_25__bucket_list_deallocatorINS_9allocatorISE_EEEEE5resetB8ue170006EDn, symObjAddr: 0xB5BC, symBinAddr: 0x10000D6D0, symSize: 0x6C }
  - { offsetInCU: 0x26E5F, offset: 0x26E5F, size: 0x8, addend: 0x0, symName: __ZNSt3__117__compressed_pairIPPNS_16__hash_node_baseIPNS_11__hash_nodeINS_17__hash_value_typeIyNS_10shared_ptrIN5hf3fs17monitor_collector13WorkloadStatsEEEEEPvEEEENS_25__bucket_list_deallocatorINS_9allocatorISE_EEEEE5firstB8ue170006Ev, symObjAddr: 0xB628, symBinAddr: 0x10000D73C, symSize: 0x24 }
  - { offsetInCU: 0x26E85, offset: 0x26E85, size: 0x8, addend: 0x0, symName: __ZNSt3__117__compressed_pairIPPNS_16__hash_node_baseIPNS_11__hash_nodeINS_17__hash_value_typeIyNS_10shared_ptrIN5hf3fs17monitor_collector13WorkloadStatsEEEEEPvEEEENS_25__bucket_list_deallocatorINS_9allocatorISE_EEEEE6secondB8ue170006Ev, symObjAddr: 0xB64C, symBinAddr: 0x10000D760, symSize: 0x28 }
  - { offsetInCU: 0x26EAB, offset: 0x26EAB, size: 0x8, addend: 0x0, symName: __ZNSt3__125__bucket_list_deallocatorINS_9allocatorIPNS_16__hash_node_baseIPNS_11__hash_nodeINS_17__hash_value_typeIyNS_10shared_ptrIN5hf3fs17monitor_collector13WorkloadStatsEEEEEPvEEEEEEEclB8ue170006EPSF_, symObjAddr: 0xB674, symBinAddr: 0x10000D788, symSize: 0x58 }
  - { offsetInCU: 0x26EE0, offset: 0x26EE0, size: 0x8, addend: 0x0, symName: __ZNSt3__122__compressed_pair_elemIPPNS_16__hash_node_baseIPNS_11__hash_nodeINS_17__hash_value_typeIyNS_10shared_ptrIN5hf3fs17monitor_collector13WorkloadStatsEEEEEPvEEEELi0ELb0EE5__getB8ue170006Ev, symObjAddr: 0xB6CC, symBinAddr: 0x10000D7E0, symSize: 0x14 }
  - { offsetInCU: 0x26F06, offset: 0x26F06, size: 0x8, addend: 0x0, symName: __ZNSt3__122__compressed_pair_elemINS_25__bucket_list_deallocatorINS_9allocatorIPNS_16__hash_node_baseIPNS_11__hash_nodeINS_17__hash_value_typeIyNS_10shared_ptrIN5hf3fs17monitor_collector13WorkloadStatsEEEEEPvEEEEEEEELi1ELb0EE5__getB8ue170006Ev, symObjAddr: 0xB6E0, symBinAddr: 0x10000D7F4, symSize: 0x14 }
  - { offsetInCU: 0x26F2C, offset: 0x26F2C, size: 0x8, addend: 0x0, symName: __ZNSt3__116allocator_traitsINS_9allocatorIPNS_16__hash_node_baseIPNS_11__hash_nodeINS_17__hash_value_typeIyNS_10shared_ptrIN5hf3fs17monitor_collector13WorkloadStatsEEEEEPvEEEEEEE10deallocateB8ue170006ERSG_PSF_m, symObjAddr: 0xB6F4, symBinAddr: 0x10000D808, symSize: 0x34 }
  - { offsetInCU: 0x26F6E, offset: 0x26F6E, size: 0x8, addend: 0x0, symName: __ZNSt3__125__bucket_list_deallocatorINS_9allocatorIPNS_16__hash_node_baseIPNS_11__hash_nodeINS_17__hash_value_typeIyNS_10shared_ptrIN5hf3fs17monitor_collector13WorkloadStatsEEEEEPvEEEEEEE7__allocB8ue170006Ev, symObjAddr: 0xB728, symBinAddr: 0x10000D83C, symSize: 0x24 }
  - { offsetInCU: 0x26F94, offset: 0x26F94, size: 0x8, addend: 0x0, symName: __ZNSt3__125__bucket_list_deallocatorINS_9allocatorIPNS_16__hash_node_baseIPNS_11__hash_nodeINS_17__hash_value_typeIyNS_10shared_ptrIN5hf3fs17monitor_collector13WorkloadStatsEEEEEPvEEEEEEE4sizeB8ue170006Ev, symObjAddr: 0xB74C, symBinAddr: 0x10000D860, symSize: 0x24 }
  - { offsetInCU: 0x26FBA, offset: 0x26FBA, size: 0x8, addend: 0x0, symName: __ZNSt3__19allocatorIPNS_16__hash_node_baseIPNS_11__hash_nodeINS_17__hash_value_typeIyNS_10shared_ptrIN5hf3fs17monitor_collector13WorkloadStatsEEEEEPvEEEEE10deallocateB8ue170006EPSE_m, symObjAddr: 0xB770, symBinAddr: 0x10000D884, symSize: 0x40 }
  - { offsetInCU: 0x26FFC, offset: 0x26FFC, size: 0x8, addend: 0x0, symName: __ZNSt3__117__compressed_pairImNS_9allocatorIPNS_16__hash_node_baseIPNS_11__hash_nodeINS_17__hash_value_typeIyNS_10shared_ptrIN5hf3fs17monitor_collector13WorkloadStatsEEEEEPvEEEEEEE6secondB8ue170006Ev, symObjAddr: 0xB7B0, symBinAddr: 0x10000D8C4, symSize: 0x24 }
  - { offsetInCU: 0x27022, offset: 0x27022, size: 0x8, addend: 0x0, symName: __ZNSt3__122__compressed_pair_elemINS_9allocatorIPNS_16__hash_node_baseIPNS_11__hash_nodeINS_17__hash_value_typeIyNS_10shared_ptrIN5hf3fs17monitor_collector13WorkloadStatsEEEEEPvEEEEEELi1ELb1EE5__getB8ue170006Ev, symObjAddr: 0xB7D4, symBinAddr: 0x10000D8E8, symSize: 0x14 }
  - { offsetInCU: 0x27048, offset: 0x27048, size: 0x8, addend: 0x0, symName: __ZNSt3__117__compressed_pairImNS_9allocatorIPNS_16__hash_node_baseIPNS_11__hash_nodeINS_17__hash_value_typeIyNS_10shared_ptrIN5hf3fs17monitor_collector13WorkloadStatsEEEEEPvEEEEEEE5firstB8ue170006Ev, symObjAddr: 0xB7E8, symBinAddr: 0x10000D8FC, symSize: 0x24 }
  - { offsetInCU: 0x2706E, offset: 0x2706E, size: 0x8, addend: 0x0, symName: __ZNSt3__122__compressed_pair_elemImLi0ELb0EE5__getB8ue170006Ev, symObjAddr: 0xB80C, symBinAddr: 0x10000D920, symSize: 0x14 }
  - { offsetInCU: 0x27094, offset: 0x27094, size: 0x8, addend: 0x0, symName: __ZNKSt3__112__hash_tableINS_17__hash_value_typeIyNS_10shared_ptrIN5hf3fs17monitor_collector13WorkloadStatsEEEEENS_22__unordered_map_hasherIyS7_NS_4hashIyEENS_8equal_toIyEELb1EEENS_21__unordered_map_equalIyS7_SC_SA_Lb1EEENS_9allocatorIS7_EEE4sizeB8ue170006Ev, symObjAddr: 0xB820, symBinAddr: 0x10000D934, symSize: 0x2C }
  - { offsetInCU: 0x270BA, offset: 0x270BA, size: 0x8, addend: 0x0, symName: __ZNKSt3__117__compressed_pairImNS_22__unordered_map_hasherIyNS_17__hash_value_typeIyNS_10shared_ptrIN5hf3fs17monitor_collector13WorkloadStatsEEEEENS_4hashIyEENS_8equal_toIyEELb1EEEE5firstB8ue170006Ev, symObjAddr: 0xB84C, symBinAddr: 0x10000D960, symSize: 0x24 }
  - { offsetInCU: 0x270E0, offset: 0x270E0, size: 0x8, addend: 0x0, symName: __ZNKSt3__122__compressed_pair_elemImLi0ELb0EE5__getB8ue170006Ev, symObjAddr: 0xB870, symBinAddr: 0x10000D984, symSize: 0x14 }
  - { offsetInCU: 0x27106, offset: 0x27106, size: 0x8, addend: 0x0, symName: __ZN7testing8internal19FormatForComparisonImjE6FormatERKm, symObjAddr: 0xBAA8, symBinAddr: 0x10000DBBC, symSize: 0x2C }
  - { offsetInCU: 0x2712A, offset: 0x2712A, size: 0x8, addend: 0x0, symName: __ZN7testing8internal21UniversalTersePrinterImE5PrintERKmPNSt3__113basic_ostreamIcNS5_11char_traitsIcEEEE, symObjAddr: 0xBB9C, symBinAddr: 0x10000DCB0, symSize: 0x2C }
  - { offsetInCU: 0x2715D, offset: 0x2715D, size: 0x8, addend: 0x0, symName: __ZN7testing8internal16UniversalPrinterImE5PrintERKmPNSt3__113basic_ostreamIcNS5_11char_traitsIcEEEE, symObjAddr: 0xBBF4, symBinAddr: 0x10000DD08, symSize: 0x2C }
  - { offsetInCU: 0x27190, offset: 0x27190, size: 0x8, addend: 0x0, symName: __ZN7testing8internal52internal_stream_operator_without_lexical_name_lookup13StreamPrinter10PrintValueImvEEDTcvvlsdefp0_fp_ERKT_PNSt3__113basic_ostreamIcNS8_11char_traitsIcEEEE, symObjAddr: 0xBC78, symBinAddr: 0x10000DD8C, symSize: 0x30 }
  - { offsetInCU: 0x271CB, offset: 0x271CB, size: 0x8, addend: 0x0, symName: __ZN7testing8internal19FormatForComparisonIjmE6FormatERKj, symObjAddr: 0xBCA8, symBinAddr: 0x10000DDBC, symSize: 0x2C }
  - { offsetInCU: 0x271EF, offset: 0x271EF, size: 0x8, addend: 0x0, symName: __ZNSt3__112__hash_tableINS_17__hash_value_typeIyNS_10shared_ptrIN5hf3fs17monitor_collector13WorkloadStatsEEEEENS_22__unordered_map_hasherIyS7_NS_4hashIyEENS_8equal_toIyEELb1EEENS_21__unordered_map_equalIyS7_SC_SA_Lb1EEENS_9allocatorIS7_EEE4findIyEENS_15__hash_iteratorIPNS_11__hash_nodeIS7_PvEEEERKT_, symObjAddr: 0xBCD4, symBinAddr: 0x10000DDE8, symSize: 0x1B0 }
  - { offsetInCU: 0x2727A, offset: 0x2727A, size: 0x8, addend: 0x0, symName: __ZNSt3__119__hash_map_iteratorINS_15__hash_iteratorIPNS_11__hash_nodeINS_17__hash_value_typeIyNS_10shared_ptrIN5hf3fs17monitor_collector13WorkloadStatsEEEEEPvEEEEEC1B8ue170006ESD_, symObjAddr: 0xBE84, symBinAddr: 0x10000DF98, symSize: 0x34 }
  - { offsetInCU: 0x272B3, offset: 0x272B3, size: 0x8, addend: 0x0, symName: __ZNSt3__112__hash_tableINS_17__hash_value_typeIyNS_10shared_ptrIN5hf3fs17monitor_collector13WorkloadStatsEEEEENS_22__unordered_map_hasherIyS7_NS_4hashIyEENS_8equal_toIyEELb1EEENS_21__unordered_map_equalIyS7_SC_SA_Lb1EEENS_9allocatorIS7_EEE13hash_functionB8ue170006Ev, symObjAddr: 0xBEB8, symBinAddr: 0x10000DFCC, symSize: 0x28 }
  - { offsetInCU: 0x272D9, offset: 0x272D9, size: 0x8, addend: 0x0, symName: __ZNKSt3__122__unordered_map_hasherIyNS_17__hash_value_typeIyNS_10shared_ptrIN5hf3fs17monitor_collector13WorkloadStatsEEEEENS_4hashIyEENS_8equal_toIyEELb1EEclB8ue170006ERKy, symObjAddr: 0xBEE0, symBinAddr: 0x10000DFF4, symSize: 0x30 }
  - { offsetInCU: 0x2730E, offset: 0x2730E, size: 0x8, addend: 0x0, symName: __ZNKSt3__112__hash_tableINS_17__hash_value_typeIyNS_10shared_ptrIN5hf3fs17monitor_collector13WorkloadStatsEEEEENS_22__unordered_map_hasherIyS7_NS_4hashIyEENS_8equal_toIyEELb1EEENS_21__unordered_map_equalIyS7_SC_SA_Lb1EEENS_9allocatorIS7_EEE12bucket_countB8ue170006Ev, symObjAddr: 0xBF10, symBinAddr: 0x10000E024, symSize: 0x28 }
  - { offsetInCU: 0x27334, offset: 0x27334, size: 0x8, addend: 0x0, symName: __ZNKSt3__110unique_ptrIA_PNS_16__hash_node_baseIPNS_11__hash_nodeINS_17__hash_value_typeIyNS_10shared_ptrIN5hf3fs17monitor_collector13WorkloadStatsEEEEEPvEEEENS_25__bucket_list_deallocatorINS_9allocatorISE_EEEEEixB8ue170006Em, symObjAddr: 0xBFD0, symBinAddr: 0x10000E0E4, symSize: 0x34 }
  - { offsetInCU: 0x27369, offset: 0x27369, size: 0x8, addend: 0x0, symName: __ZNKSt3__116__hash_node_baseIPNS_11__hash_nodeINS_17__hash_value_typeIyNS_10shared_ptrIN5hf3fs17monitor_collector13WorkloadStatsEEEEEPvEEE6__hashB8ue170006Ev, symObjAddr: 0xC004, symBinAddr: 0x10000E118, symSize: 0x18 }
  - { offsetInCU: 0x2738F, offset: 0x2738F, size: 0x8, addend: 0x0, symName: __ZNSt3__112__hash_tableINS_17__hash_value_typeIyNS_10shared_ptrIN5hf3fs17monitor_collector13WorkloadStatsEEEEENS_22__unordered_map_hasherIyS7_NS_4hashIyEENS_8equal_toIyEELb1EEENS_21__unordered_map_equalIyS7_SC_SA_Lb1EEENS_9allocatorIS7_EEE6key_eqB8ue170006Ev, symObjAddr: 0xC01C, symBinAddr: 0x10000E130, symSize: 0x28 }
  - { offsetInCU: 0x273B5, offset: 0x273B5, size: 0x8, addend: 0x0, symName: __ZNKSt3__121__unordered_map_equalIyNS_17__hash_value_typeIyNS_10shared_ptrIN5hf3fs17monitor_collector13WorkloadStatsEEEEENS_8equal_toIyEENS_4hashIyEELb1EEclB8ue170006ERKS7_RKy, symObjAddr: 0xC044, symBinAddr: 0x10000E158, symSize: 0x48 }
  - { offsetInCU: 0x273F9, offset: 0x273F9, size: 0x8, addend: 0x0, symName: __ZNSt3__115__hash_iteratorIPNS_11__hash_nodeINS_17__hash_value_typeIyNS_10shared_ptrIN5hf3fs17monitor_collector13WorkloadStatsEEEEEPvEEEC1B8ue170006EPNS_16__hash_node_baseISB_EE, symObjAddr: 0xC08C, symBinAddr: 0x10000E1A0, symSize: 0x34 }
  - { offsetInCU: 0x27432, offset: 0x27432, size: 0x8, addend: 0x0, symName: __ZNSt3__112__hash_tableINS_17__hash_value_typeIyNS_10shared_ptrIN5hf3fs17monitor_collector13WorkloadStatsEEEEENS_22__unordered_map_hasherIyS7_NS_4hashIyEENS_8equal_toIyEELb1EEENS_21__unordered_map_equalIyS7_SC_SA_Lb1EEENS_9allocatorIS7_EEE3endEv, symObjAddr: 0xC0C0, symBinAddr: 0x10000E1D4, symSize: 0x2C }
  - { offsetInCU: 0x2745A, offset: 0x2745A, size: 0x8, addend: 0x0, symName: __ZNSt3__117__compressed_pairImNS_22__unordered_map_hasherIyNS_17__hash_value_typeIyNS_10shared_ptrIN5hf3fs17monitor_collector13WorkloadStatsEEEEENS_4hashIyEENS_8equal_toIyEELb1EEEE6secondB8ue170006Ev, symObjAddr: 0xC0EC, symBinAddr: 0x10000E200, symSize: 0x24 }
  - { offsetInCU: 0x27480, offset: 0x27480, size: 0x8, addend: 0x0, symName: __ZNSt3__122__compressed_pair_elemINS_22__unordered_map_hasherIyNS_17__hash_value_typeIyNS_10shared_ptrIN5hf3fs17monitor_collector13WorkloadStatsEEEEENS_4hashIyEENS_8equal_toIyEELb1EEELi1ELb1EE5__getB8ue170006Ev, symObjAddr: 0xC110, symBinAddr: 0x10000E224, symSize: 0x14 }
  - { offsetInCU: 0x274A6, offset: 0x274A6, size: 0x8, addend: 0x0, symName: __ZNKSt3__113__scalar_hashIyLm1EEclB8ue170006Ey, symObjAddr: 0xC124, symBinAddr: 0x10000E238, symSize: 0x20 }
  - { offsetInCU: 0x2750C, offset: 0x2750C, size: 0x8, addend: 0x0, symName: __ZNKSt3__110unique_ptrIA_PNS_16__hash_node_baseIPNS_11__hash_nodeINS_17__hash_value_typeIyNS_10shared_ptrIN5hf3fs17monitor_collector13WorkloadStatsEEEEEPvEEEENS_25__bucket_list_deallocatorINS_9allocatorISE_EEEEE11get_deleterB8ue170006Ev, symObjAddr: 0xC144, symBinAddr: 0x10000E258, symSize: 0x24 }
  - { offsetInCU: 0x27532, offset: 0x27532, size: 0x8, addend: 0x0, symName: __ZNKSt3__125__bucket_list_deallocatorINS_9allocatorIPNS_16__hash_node_baseIPNS_11__hash_nodeINS_17__hash_value_typeIyNS_10shared_ptrIN5hf3fs17monitor_collector13WorkloadStatsEEEEEPvEEEEEEE4sizeB8ue170006Ev, symObjAddr: 0xC168, symBinAddr: 0x10000E27C, symSize: 0x28 }
  - { offsetInCU: 0x27558, offset: 0x27558, size: 0x8, addend: 0x0, symName: __ZNKSt3__117__compressed_pairIPPNS_16__hash_node_baseIPNS_11__hash_nodeINS_17__hash_value_typeIyNS_10shared_ptrIN5hf3fs17monitor_collector13WorkloadStatsEEEEEPvEEEENS_25__bucket_list_deallocatorINS_9allocatorISE_EEEEE6secondB8ue170006Ev, symObjAddr: 0xC190, symBinAddr: 0x10000E2A4, symSize: 0x28 }
  - { offsetInCU: 0x2757E, offset: 0x2757E, size: 0x8, addend: 0x0, symName: __ZNKSt3__122__compressed_pair_elemINS_25__bucket_list_deallocatorINS_9allocatorIPNS_16__hash_node_baseIPNS_11__hash_nodeINS_17__hash_value_typeIyNS_10shared_ptrIN5hf3fs17monitor_collector13WorkloadStatsEEEEEPvEEEEEEEELi1ELb0EE5__getB8ue170006Ev, symObjAddr: 0xC1B8, symBinAddr: 0x10000E2CC, symSize: 0x14 }
  - { offsetInCU: 0x275A4, offset: 0x275A4, size: 0x8, addend: 0x0, symName: __ZNKSt3__117__compressed_pairImNS_9allocatorIPNS_16__hash_node_baseIPNS_11__hash_nodeINS_17__hash_value_typeIyNS_10shared_ptrIN5hf3fs17monitor_collector13WorkloadStatsEEEEEPvEEEEEEE5firstB8ue170006Ev, symObjAddr: 0xC1CC, symBinAddr: 0x10000E2E0, symSize: 0x24 }
  - { offsetInCU: 0x275CA, offset: 0x275CA, size: 0x8, addend: 0x0, symName: __ZNKSt3__117__compressed_pairIPPNS_16__hash_node_baseIPNS_11__hash_nodeINS_17__hash_value_typeIyNS_10shared_ptrIN5hf3fs17monitor_collector13WorkloadStatsEEEEEPvEEEENS_25__bucket_list_deallocatorINS_9allocatorISE_EEEEE5firstB8ue170006Ev, symObjAddr: 0xC1F0, symBinAddr: 0x10000E304, symSize: 0x24 }
  - { offsetInCU: 0x275F0, offset: 0x275F0, size: 0x8, addend: 0x0, symName: __ZNKSt3__122__compressed_pair_elemIPPNS_16__hash_node_baseIPNS_11__hash_nodeINS_17__hash_value_typeIyNS_10shared_ptrIN5hf3fs17monitor_collector13WorkloadStatsEEEEEPvEEEELi0ELb0EE5__getB8ue170006Ev, symObjAddr: 0xC214, symBinAddr: 0x10000E328, symSize: 0x14 }
  - { offsetInCU: 0x27616, offset: 0x27616, size: 0x8, addend: 0x0, symName: __ZNSt3__117__compressed_pairIfNS_21__unordered_map_equalIyNS_17__hash_value_typeIyNS_10shared_ptrIN5hf3fs17monitor_collector13WorkloadStatsEEEEENS_8equal_toIyEENS_4hashIyEELb1EEEE6secondB8ue170006Ev, symObjAddr: 0xC228, symBinAddr: 0x10000E33C, symSize: 0x24 }
  - { offsetInCU: 0x2763C, offset: 0x2763C, size: 0x8, addend: 0x0, symName: __ZNSt3__122__compressed_pair_elemINS_21__unordered_map_equalIyNS_17__hash_value_typeIyNS_10shared_ptrIN5hf3fs17monitor_collector13WorkloadStatsEEEEENS_8equal_toIyEENS_4hashIyEELb1EEELi1ELb1EE5__getB8ue170006Ev, symObjAddr: 0xC24C, symBinAddr: 0x10000E360, symSize: 0x14 }
  - { offsetInCU: 0x27662, offset: 0x27662, size: 0x8, addend: 0x0, symName: __ZNKSt3__18equal_toIyEclB8ue170006ERKyS3_, symObjAddr: 0xC260, symBinAddr: 0x10000E374, symSize: 0x34 }
  - { offsetInCU: 0x276A6, offset: 0x276A6, size: 0x8, addend: 0x0, symName: __ZNKSt3__117__hash_value_typeIyNS_10shared_ptrIN5hf3fs17monitor_collector13WorkloadStatsEEEE11__get_valueB8ue170006Ev, symObjAddr: 0xC294, symBinAddr: 0x10000E3A8, symSize: 0x24 }
  - { offsetInCU: 0x276CC, offset: 0x276CC, size: 0x8, addend: 0x0, symName: __ZNSt3__115__hash_iteratorIPNS_11__hash_nodeINS_17__hash_value_typeIyNS_10shared_ptrIN5hf3fs17monitor_collector13WorkloadStatsEEEEEPvEEEC2B8ue170006EPNS_16__hash_node_baseISB_EE, symObjAddr: 0xC2F0, symBinAddr: 0x10000E404, symSize: 0x20 }
  - { offsetInCU: 0x27705, offset: 0x27705, size: 0x8, addend: 0x0, symName: __ZNSt3__119__hash_map_iteratorINS_15__hash_iteratorIPNS_11__hash_nodeINS_17__hash_value_typeIyNS_10shared_ptrIN5hf3fs17monitor_collector13WorkloadStatsEEEEEPvEEEEEC2B8ue170006ESD_, symObjAddr: 0xC310, symBinAddr: 0x10000E424, symSize: 0x20 }
  - { offsetInCU: 0x27755, offset: 0x27755, size: 0x8, addend: 0x0, symName: __ZNSt3__112__hash_tableINS_17__hash_value_typeIyNS_10shared_ptrIN5hf3fs17monitor_collector13WorkloadStatsEEEEENS_22__unordered_map_hasherIyS7_NS_4hashIyEENS_8equal_toIyEELb1EEENS_21__unordered_map_equalIyS7_SC_SA_Lb1EEENS_9allocatorIS7_EEE25__emplace_unique_key_argsIyJRKNS_21piecewise_construct_tENS_5tupleIJOyEEENSN_IJEEEEEENS_4pairINS_15__hash_iteratorIPNS_11__hash_nodeIS7_PvEEEEbEERKT_DpOT0_, symObjAddr: 0xC394, symBinAddr: 0x10000E4A8, symSize: 0x4B8 }
  - { offsetInCU: 0x2785F, offset: 0x2785F, size: 0x8, addend: 0x0, symName: __ZNKSt3__115__hash_iteratorIPNS_11__hash_nodeINS_17__hash_value_typeIyNS_10shared_ptrIN5hf3fs17monitor_collector13WorkloadStatsEEEEEPvEEEptB8ue170006Ev, symObjAddr: 0xC87C, symBinAddr: 0x10000E990, symSize: 0x30 }
  - { offsetInCU: 0x27885, offset: 0x27885, size: 0x8, addend: 0x0, symName: __ZNSt3__112__hash_tableINS_17__hash_value_typeIyNS_10shared_ptrIN5hf3fs17monitor_collector13WorkloadStatsEEEEENS_22__unordered_map_hasherIyS7_NS_4hashIyEENS_8equal_toIyEELb1EEENS_21__unordered_map_equalIyS7_SC_SA_Lb1EEENS_9allocatorIS7_EEE21__construct_node_hashIRKNS_21piecewise_construct_tEJNS_5tupleIJOyEEENSN_IJEEEEEENS_10unique_ptrINS_11__hash_nodeIS7_PvEENS_22__hash_node_destructorINSG_ISU_EEEEEEmOT_DpOT0_, symObjAddr: 0xC8AC, symBinAddr: 0x10000E9C0, symSize: 0x150 }
  - { offsetInCU: 0x27921, offset: 0x27921, size: 0x8, addend: 0x0, symName: __ZNSt3__112__hash_tableINS_17__hash_value_typeIyNS_10shared_ptrIN5hf3fs17monitor_collector13WorkloadStatsEEEEENS_22__unordered_map_hasherIyS7_NS_4hashIyEENS_8equal_toIyEELb1EEENS_21__unordered_map_equalIyS7_SC_SA_Lb1EEENS_9allocatorIS7_EEE4sizeB8ue170006Ev, symObjAddr: 0xC9FC, symBinAddr: 0x10000EB10, symSize: 0x28 }
  - { offsetInCU: 0x27947, offset: 0x27947, size: 0x8, addend: 0x0, symName: __ZNSt3__112__hash_tableINS_17__hash_value_typeIyNS_10shared_ptrIN5hf3fs17monitor_collector13WorkloadStatsEEEEENS_22__unordered_map_hasherIyS7_NS_4hashIyEENS_8equal_toIyEELb1EEENS_21__unordered_map_equalIyS7_SC_SA_Lb1EEENS_9allocatorIS7_EEE15max_load_factorB8ue170006Ev, symObjAddr: 0xCA24, symBinAddr: 0x10000EB38, symSize: 0x28 }
  - { offsetInCU: 0x2796D, offset: 0x2796D, size: 0x8, addend: 0x0, symName: __ZNSt3__112__hash_tableINS_17__hash_value_typeIyNS_10shared_ptrIN5hf3fs17monitor_collector13WorkloadStatsEEEEENS_22__unordered_map_hasherIyS7_NS_4hashIyEENS_8equal_toIyEELb1EEENS_21__unordered_map_equalIyS7_SC_SA_Lb1EEENS_9allocatorIS7_EEE15__rehash_uniqueB8ue170006Em, symObjAddr: 0xCA4C, symBinAddr: 0x10000EB60, symSize: 0x2C }
  - { offsetInCU: 0x279A1, offset: 0x279A1, size: 0x8, addend: 0x0, symName: __Z4ceilB8ue170006f, symObjAddr: 0xCAF4, symBinAddr: 0x10000EC08, symSize: 0x18 }
  - { offsetInCU: 0x279D0, offset: 0x279D0, size: 0x8, addend: 0x0, symName: __ZNSt3__116__hash_node_baseIPNS_11__hash_nodeINS_17__hash_value_typeIyNS_10shared_ptrIN5hf3fs17monitor_collector13WorkloadStatsEEEEEPvEEE5__ptrB8ue170006Ev, symObjAddr: 0xCB0C, symBinAddr: 0x10000EC20, symSize: 0x24 }
  - { offsetInCU: 0x279F6, offset: 0x279F6, size: 0x8, addend: 0x0, symName: __ZNKSt3__110unique_ptrINS_11__hash_nodeINS_17__hash_value_typeIyNS_10shared_ptrIN5hf3fs17monitor_collector13WorkloadStatsEEEEEPvEENS_22__hash_node_destructorINS_9allocatorISA_EEEEEptB8ue170006Ev, symObjAddr: 0xCB30, symBinAddr: 0x10000EC44, symSize: 0x28 }
  - { offsetInCU: 0x27A1C, offset: 0x27A1C, size: 0x8, addend: 0x0, symName: __ZNKSt3__110unique_ptrINS_11__hash_nodeINS_17__hash_value_typeIyNS_10shared_ptrIN5hf3fs17monitor_collector13WorkloadStatsEEEEEPvEENS_22__hash_node_destructorINS_9allocatorISA_EEEEE3getB8ue170006Ev, symObjAddr: 0xCB58, symBinAddr: 0x10000EC6C, symSize: 0x28 }
  - { offsetInCU: 0x27A42, offset: 0x27A42, size: 0x8, addend: 0x0, symName: __ZNSt3__110unique_ptrINS_11__hash_nodeINS_17__hash_value_typeIyNS_10shared_ptrIN5hf3fs17monitor_collector13WorkloadStatsEEEEEPvEENS_22__hash_node_destructorINS_9allocatorISA_EEEEE7releaseB8ue170006Ev, symObjAddr: 0xCB80, symBinAddr: 0x10000EC94, symSize: 0x44 }
  - { offsetInCU: 0x27A77, offset: 0x27A77, size: 0x8, addend: 0x0, symName: __ZNSt3__110unique_ptrINS_11__hash_nodeINS_17__hash_value_typeIyNS_10shared_ptrIN5hf3fs17monitor_collector13WorkloadStatsEEEEEPvEENS_22__hash_node_destructorINS_9allocatorISA_EEEEED1B8ue170006Ev, symObjAddr: 0xCBC4, symBinAddr: 0x10000ECD8, symSize: 0x2C }
  - { offsetInCU: 0x27AA7, offset: 0x27AA7, size: 0x8, addend: 0x0, symName: __ZNSt3__14pairINS_15__hash_iteratorIPNS_11__hash_nodeINS_17__hash_value_typeIyNS_10shared_ptrIN5hf3fs17monitor_collector13WorkloadStatsEEEEEPvEEEEbEC1B8ue170006ISD_RbLSA_0EEEOT_OT0_, symObjAddr: 0xCBF0, symBinAddr: 0x10000ED04, symSize: 0x3C }
  - { offsetInCU: 0x27B05, offset: 0x27B05, size: 0x8, addend: 0x0, symName: __ZNSt3__116allocator_traitsINS_9allocatorINS_11__hash_nodeINS_17__hash_value_typeIyNS_10shared_ptrIN5hf3fs17monitor_collector13WorkloadStatsEEEEEPvEEEEE8allocateB8ue170006ERSC_m, symObjAddr: 0xCC2C, symBinAddr: 0x10000ED40, symSize: 0x2C }
  - { offsetInCU: 0x27B38, offset: 0x27B38, size: 0x8, addend: 0x0, symName: __ZNSt3__122__hash_node_destructorINS_9allocatorINS_11__hash_nodeINS_17__hash_value_typeIyNS_10shared_ptrIN5hf3fs17monitor_collector13WorkloadStatsEEEEEPvEEEEEC1B8ue170006ERSC_b, symObjAddr: 0xCC58, symBinAddr: 0x10000ED6C, symSize: 0x48 }
  - { offsetInCU: 0x27B86, offset: 0x27B86, size: 0x8, addend: 0x0, symName: __ZNSt3__110unique_ptrINS_11__hash_nodeINS_17__hash_value_typeIyNS_10shared_ptrIN5hf3fs17monitor_collector13WorkloadStatsEEEEEPvEENS_22__hash_node_destructorINS_9allocatorISA_EEEEEC1B8ue170006ILb1EvEEPSA_NS_16__dependent_typeINS_27__unique_ptr_deleter_sfinaeISE_EEXT_EE20__good_rval_ref_typeE, symObjAddr: 0xCCA0, symBinAddr: 0x10000EDB4, symSize: 0x3C }
  - { offsetInCU: 0x27BD7, offset: 0x27BD7, size: 0x8, addend: 0x0, symName: __ZNSt3__116allocator_traitsINS_9allocatorINS_11__hash_nodeINS_17__hash_value_typeIyNS_10shared_ptrIN5hf3fs17monitor_collector13WorkloadStatsEEEEEPvEEEEE9constructB8ue170006INS_4pairIKyS8_EEJRKNS_21piecewise_construct_tENS_5tupleIJOyEEENSL_IJEEEEvEEvRSC_PT_DpOT0_, symObjAddr: 0xCCDC, symBinAddr: 0x10000EDF0, symSize: 0x44 }
  - { offsetInCU: 0x27C56, offset: 0x27C56, size: 0x8, addend: 0x0, symName: __ZNSt3__110unique_ptrINS_11__hash_nodeINS_17__hash_value_typeIyNS_10shared_ptrIN5hf3fs17monitor_collector13WorkloadStatsEEEEEPvEENS_22__hash_node_destructorINS_9allocatorISA_EEEEE11get_deleterB8ue170006Ev, symObjAddr: 0xCD20, symBinAddr: 0x10000EE34, symSize: 0x24 }
  - { offsetInCU: 0x27C7C, offset: 0x27C7C, size: 0x8, addend: 0x0, symName: __ZNSt3__19allocatorINS_11__hash_nodeINS_17__hash_value_typeIyNS_10shared_ptrIN5hf3fs17monitor_collector13WorkloadStatsEEEEEPvEEE8allocateB8ue170006Em, symObjAddr: 0xCD44, symBinAddr: 0x10000EE58, symSize: 0x5C }
  - { offsetInCU: 0x27CBB, offset: 0x27CBB, size: 0x8, addend: 0x0, symName: __ZNSt3__116allocator_traitsINS_9allocatorINS_11__hash_nodeINS_17__hash_value_typeIyNS_10shared_ptrIN5hf3fs17monitor_collector13WorkloadStatsEEEEEPvEEEEE8max_sizeB8ue170006ISC_vEEmRKSC_, symObjAddr: 0xCDA0, symBinAddr: 0x10000EEB4, symSize: 0x24 }
  - { offsetInCU: 0x27CE9, offset: 0x27CE9, size: 0x8, addend: 0x0, symName: __ZNKSt3__19allocatorINS_11__hash_nodeINS_17__hash_value_typeIyNS_10shared_ptrIN5hf3fs17monitor_collector13WorkloadStatsEEEEEPvEEE8max_sizeB8ue170006Ev, symObjAddr: 0xCDC4, symBinAddr: 0x10000EED8, symSize: 0x18 }
  - { offsetInCU: 0x27D0F, offset: 0x27D0F, size: 0x8, addend: 0x0, symName: __ZNSt3__122__hash_node_destructorINS_9allocatorINS_11__hash_nodeINS_17__hash_value_typeIyNS_10shared_ptrIN5hf3fs17monitor_collector13WorkloadStatsEEEEEPvEEEEEC2B8ue170006ERSC_b, symObjAddr: 0xCDDC, symBinAddr: 0x10000EEF0, symSize: 0x38 }
  - { offsetInCU: 0x27D57, offset: 0x27D57, size: 0x8, addend: 0x0, symName: __ZNSt3__110unique_ptrINS_11__hash_nodeINS_17__hash_value_typeIyNS_10shared_ptrIN5hf3fs17monitor_collector13WorkloadStatsEEEEEPvEENS_22__hash_node_destructorINS_9allocatorISA_EEEEEC2B8ue170006ILb1EvEEPSA_NS_16__dependent_typeINS_27__unique_ptr_deleter_sfinaeISE_EEXT_EE20__good_rval_ref_typeE, symObjAddr: 0xCE14, symBinAddr: 0x10000EF28, symSize: 0x48 }
  - { offsetInCU: 0x27DA8, offset: 0x27DA8, size: 0x8, addend: 0x0, symName: __ZNSt3__117__compressed_pairIPNS_11__hash_nodeINS_17__hash_value_typeIyNS_10shared_ptrIN5hf3fs17monitor_collector13WorkloadStatsEEEEEPvEENS_22__hash_node_destructorINS_9allocatorISA_EEEEEC1B8ue170006IRSB_SF_EEOT_OT0_, symObjAddr: 0xCE5C, symBinAddr: 0x10000EF70, symSize: 0x3C }
  - { offsetInCU: 0x27E00, offset: 0x27E00, size: 0x8, addend: 0x0, symName: __ZNSt3__117__compressed_pairIPNS_11__hash_nodeINS_17__hash_value_typeIyNS_10shared_ptrIN5hf3fs17monitor_collector13WorkloadStatsEEEEEPvEENS_22__hash_node_destructorINS_9allocatorISA_EEEEEC2B8ue170006IRSB_SF_EEOT_OT0_, symObjAddr: 0xCE98, symBinAddr: 0x10000EFAC, symSize: 0x48 }
  - { offsetInCU: 0x27E58, offset: 0x27E58, size: 0x8, addend: 0x0, symName: __ZNSt3__122__compressed_pair_elemIPNS_11__hash_nodeINS_17__hash_value_typeIyNS_10shared_ptrIN5hf3fs17monitor_collector13WorkloadStatsEEEEEPvEELi0ELb0EEC2B8ue170006IRSB_vEEOT_, symObjAddr: 0xCEE0, symBinAddr: 0x10000EFF4, symSize: 0x24 }
  - { offsetInCU: 0x27E9A, offset: 0x27E9A, size: 0x8, addend: 0x0, symName: __ZNSt3__122__compressed_pair_elemINS_22__hash_node_destructorINS_9allocatorINS_11__hash_nodeINS_17__hash_value_typeIyNS_10shared_ptrIN5hf3fs17monitor_collector13WorkloadStatsEEEEEPvEEEEEELi1ELb0EEC2B8ue170006ISE_vEEOT_, symObjAddr: 0xCF04, symBinAddr: 0x10000F018, symSize: 0x24 }
  - { offsetInCU: 0x27EDC, offset: 0x27EDC, size: 0x8, addend: 0x0, symName: __ZNSt3__19allocatorINS_11__hash_nodeINS_17__hash_value_typeIyNS_10shared_ptrIN5hf3fs17monitor_collector13WorkloadStatsEEEEEPvEEE9constructB8ue170006INS_4pairIKyS7_EEJRKNS_21piecewise_construct_tENS_5tupleIJOyEEENSJ_IJEEEEEEvPT_DpOT0_, symObjAddr: 0xCF28, symBinAddr: 0x10000F03C, symSize: 0x44 }
  - { offsetInCU: 0x27F58, offset: 0x27F58, size: 0x8, addend: 0x0, symName: __ZNSt3__14pairIKyNS_10shared_ptrIN5hf3fs17monitor_collector13WorkloadStatsEEEEC1B8ue170006IJOyEJEEENS_21piecewise_construct_tENS_5tupleIJDpT_EEENSB_IJDpT0_EEE, symObjAddr: 0xCF6C, symBinAddr: 0x10000F080, symSize: 0x44 }
  - { offsetInCU: 0x27FBF, offset: 0x27FBF, size: 0x8, addend: 0x0, symName: __ZNSt3__14pairIKyNS_10shared_ptrIN5hf3fs17monitor_collector13WorkloadStatsEEEEC1B8ue170006IJOyEJEJLm0EEJEEENS_21piecewise_construct_tERNS_5tupleIJDpT_EEERNSB_IJDpT0_EEENS_15__tuple_indicesIJXspT1_EEEENSK_IJXspT2_EEEE, symObjAddr: 0xCFB0, symBinAddr: 0x10000F0C4, symSize: 0x3C }
  - { offsetInCU: 0x2804C, offset: 0x2804C, size: 0x8, addend: 0x0, symName: __ZNSt3__14pairIKyNS_10shared_ptrIN5hf3fs17monitor_collector13WorkloadStatsEEEEC2B8ue170006IJOyEJEJLm0EEJEEENS_21piecewise_construct_tERNS_5tupleIJDpT_EEERNSB_IJDpT0_EEENS_15__tuple_indicesIJXspT1_EEEENSK_IJXspT2_EEEE, symObjAddr: 0xCFEC, symBinAddr: 0x10000F100, symSize: 0x4C }
  - { offsetInCU: 0x280D9, offset: 0x280D9, size: 0x8, addend: 0x0, symName: __ZNSt3__110shared_ptrIN5hf3fs17monitor_collector13WorkloadStatsEEC1B8ue170006Ev, symObjAddr: 0xD05C, symBinAddr: 0x10000F170, symSize: 0x2C }
  - { offsetInCU: 0x28103, offset: 0x28103, size: 0x8, addend: 0x0, symName: __ZNSt3__112__tuple_leafILm0EOyLb0EE3getB8ue170006Ev, symObjAddr: 0xD088, symBinAddr: 0x10000F19C, symSize: 0x18 }
  - { offsetInCU: 0x28129, offset: 0x28129, size: 0x8, addend: 0x0, symName: __ZNSt3__110shared_ptrIN5hf3fs17monitor_collector13WorkloadStatsEEC2B8ue170006Ev, symObjAddr: 0xD0A0, symBinAddr: 0x10000F1B4, symSize: 0x1C }
  - { offsetInCU: 0x28153, offset: 0x28153, size: 0x8, addend: 0x0, symName: __ZNSt3__117__compressed_pairIPNS_11__hash_nodeINS_17__hash_value_typeIyNS_10shared_ptrIN5hf3fs17monitor_collector13WorkloadStatsEEEEEPvEENS_22__hash_node_destructorINS_9allocatorISA_EEEEE6secondB8ue170006Ev, symObjAddr: 0xD0BC, symBinAddr: 0x10000F1D0, symSize: 0x28 }
  - { offsetInCU: 0x28179, offset: 0x28179, size: 0x8, addend: 0x0, symName: __ZNSt3__122__compressed_pair_elemINS_22__hash_node_destructorINS_9allocatorINS_11__hash_nodeINS_17__hash_value_typeIyNS_10shared_ptrIN5hf3fs17monitor_collector13WorkloadStatsEEEEEPvEEEEEELi1ELb0EE5__getB8ue170006Ev, symObjAddr: 0xD0E4, symBinAddr: 0x10000F1F8, symSize: 0x14 }
  - { offsetInCU: 0x2819F, offset: 0x2819F, size: 0x8, addend: 0x0, symName: __ZNSt3__117__compressed_pairImNS_22__unordered_map_hasherIyNS_17__hash_value_typeIyNS_10shared_ptrIN5hf3fs17monitor_collector13WorkloadStatsEEEEENS_4hashIyEENS_8equal_toIyEELb1EEEE5firstB8ue170006Ev, symObjAddr: 0xD0F8, symBinAddr: 0x10000F20C, symSize: 0x24 }
  - { offsetInCU: 0x281C5, offset: 0x281C5, size: 0x8, addend: 0x0, symName: __ZNSt3__117__compressed_pairIfNS_21__unordered_map_equalIyNS_17__hash_value_typeIyNS_10shared_ptrIN5hf3fs17monitor_collector13WorkloadStatsEEEEENS_8equal_toIyEENS_4hashIyEELb1EEEE5firstB8ue170006Ev, symObjAddr: 0xD11C, symBinAddr: 0x10000F230, symSize: 0x24 }
  - { offsetInCU: 0x281EB, offset: 0x281EB, size: 0x8, addend: 0x0, symName: __ZNSt3__122__compressed_pair_elemIfLi0ELb0EE5__getB8ue170006Ev, symObjAddr: 0xD140, symBinAddr: 0x10000F254, symSize: 0x14 }
  - { offsetInCU: 0x28211, offset: 0x28211, size: 0x8, addend: 0x0, symName: __ZNSt3__112__hash_tableINS_17__hash_value_typeIyNS_10shared_ptrIN5hf3fs17monitor_collector13WorkloadStatsEEEEENS_22__unordered_map_hasherIyS7_NS_4hashIyEENS_8equal_toIyEELb1EEENS_21__unordered_map_equalIyS7_SC_SA_Lb1EEENS_9allocatorIS7_EEE8__rehashILb1EEEvm, symObjAddr: 0xD154, symBinAddr: 0x10000F268, symSize: 0x1A8 }
  - { offsetInCU: 0x28261, offset: 0x28261, size: 0x8, addend: 0x0, symName: __ZNSt3__112__hash_tableINS_17__hash_value_typeIyNS_10shared_ptrIN5hf3fs17monitor_collector13WorkloadStatsEEEEENS_22__unordered_map_hasherIyS7_NS_4hashIyEENS_8equal_toIyEELb1EEENS_21__unordered_map_equalIyS7_SC_SA_Lb1EEENS_9allocatorIS7_EEE11__do_rehashILb1EEEvm, symObjAddr: 0xD2FC, symBinAddr: 0x10000F410, symSize: 0x288 }
  - { offsetInCU: 0x28348, offset: 0x28348, size: 0x8, addend: 0x0, symName: __ZNSt3__110unique_ptrIA_PNS_16__hash_node_baseIPNS_11__hash_nodeINS_17__hash_value_typeIyNS_10shared_ptrIN5hf3fs17monitor_collector13WorkloadStatsEEEEEPvEEEENS_25__bucket_list_deallocatorINS_9allocatorISE_EEEEE11get_deleterB8ue170006Ev, symObjAddr: 0xD5F0, symBinAddr: 0x10000F704, symSize: 0x24 }
  - { offsetInCU: 0x2836E, offset: 0x2836E, size: 0x8, addend: 0x0, symName: __ZNSt3__110unique_ptrIA_PNS_16__hash_node_baseIPNS_11__hash_nodeINS_17__hash_value_typeIyNS_10shared_ptrIN5hf3fs17monitor_collector13WorkloadStatsEEEEEPvEEEENS_25__bucket_list_deallocatorINS_9allocatorISE_EEEEE5resetB8ue170006IPSE_EENS_9enable_ifIXsr28_CheckArrayPointerConversionIT_EE5valueEvE4typeESO_, symObjAddr: 0xD614, symBinAddr: 0x10000F728, symSize: 0x78 }
  - { offsetInCU: 0x283BB, offset: 0x283BB, size: 0x8, addend: 0x0, symName: __ZNSt3__116allocator_traitsINS_9allocatorIPNS_16__hash_node_baseIPNS_11__hash_nodeINS_17__hash_value_typeIyNS_10shared_ptrIN5hf3fs17monitor_collector13WorkloadStatsEEEEEPvEEEEEEE8allocateB8ue170006ERSG_m, symObjAddr: 0xD68C, symBinAddr: 0x10000F7A0, symSize: 0x2C }
  - { offsetInCU: 0x283EE, offset: 0x283EE, size: 0x8, addend: 0x0, symName: __ZNSt3__19allocatorIPNS_16__hash_node_baseIPNS_11__hash_nodeINS_17__hash_value_typeIyNS_10shared_ptrIN5hf3fs17monitor_collector13WorkloadStatsEEEEEPvEEEEE8allocateB8ue170006Em, symObjAddr: 0xD6B8, symBinAddr: 0x10000F7CC, symSize: 0x58 }
  - { offsetInCU: 0x2842D, offset: 0x2842D, size: 0x8, addend: 0x0, symName: __ZNSt3__116allocator_traitsINS_9allocatorIPNS_16__hash_node_baseIPNS_11__hash_nodeINS_17__hash_value_typeIyNS_10shared_ptrIN5hf3fs17monitor_collector13WorkloadStatsEEEEEPvEEEEEEE8max_sizeB8ue170006ISG_vEEmRKSG_, symObjAddr: 0xD710, symBinAddr: 0x10000F824, symSize: 0x24 }
  - { offsetInCU: 0x2845B, offset: 0x2845B, size: 0x8, addend: 0x0, symName: __ZNKSt3__19allocatorIPNS_16__hash_node_baseIPNS_11__hash_nodeINS_17__hash_value_typeIyNS_10shared_ptrIN5hf3fs17monitor_collector13WorkloadStatsEEEEEPvEEEEE8max_sizeB8ue170006Ev, symObjAddr: 0xD734, symBinAddr: 0x10000F848, symSize: 0x14 }
  - { offsetInCU: 0x2848B, offset: 0x2848B, size: 0x8, addend: 0x0, symName: __ZNKSt3__16__lessIvvEclB8ue170006ImmEEbRKT_RKT0_, symObjAddr: 0xD7B8, symBinAddr: 0x10000F8CC, symSize: 0x34 }
  - { offsetInCU: 0x284DF, offset: 0x284DF, size: 0x8, addend: 0x0, symName: __ZNKSt3__117__compressed_pairIPNS_11__hash_nodeINS_17__hash_value_typeIyNS_10shared_ptrIN5hf3fs17monitor_collector13WorkloadStatsEEEEEPvEENS_22__hash_node_destructorINS_9allocatorISA_EEEEE5firstB8ue170006Ev, symObjAddr: 0xD7EC, symBinAddr: 0x10000F900, symSize: 0x24 }
  - { offsetInCU: 0x28505, offset: 0x28505, size: 0x8, addend: 0x0, symName: __ZNKSt3__122__compressed_pair_elemIPNS_11__hash_nodeINS_17__hash_value_typeIyNS_10shared_ptrIN5hf3fs17monitor_collector13WorkloadStatsEEEEEPvEELi0ELb0EE5__getB8ue170006Ev, symObjAddr: 0xD810, symBinAddr: 0x10000F924, symSize: 0x14 }
  - { offsetInCU: 0x2852B, offset: 0x2852B, size: 0x8, addend: 0x0, symName: __ZNSt3__117__compressed_pairIPNS_11__hash_nodeINS_17__hash_value_typeIyNS_10shared_ptrIN5hf3fs17monitor_collector13WorkloadStatsEEEEEPvEENS_22__hash_node_destructorINS_9allocatorISA_EEEEE5firstB8ue170006Ev, symObjAddr: 0xD824, symBinAddr: 0x10000F938, symSize: 0x24 }
  - { offsetInCU: 0x28551, offset: 0x28551, size: 0x8, addend: 0x0, symName: __ZNSt3__122__compressed_pair_elemIPNS_11__hash_nodeINS_17__hash_value_typeIyNS_10shared_ptrIN5hf3fs17monitor_collector13WorkloadStatsEEEEEPvEELi0ELb0EE5__getB8ue170006Ev, symObjAddr: 0xD848, symBinAddr: 0x10000F95C, symSize: 0x14 }
  - { offsetInCU: 0x28577, offset: 0x28577, size: 0x8, addend: 0x0, symName: __ZNSt3__110unique_ptrINS_11__hash_nodeINS_17__hash_value_typeIyNS_10shared_ptrIN5hf3fs17monitor_collector13WorkloadStatsEEEEEPvEENS_22__hash_node_destructorINS_9allocatorISA_EEEEED2B8ue170006Ev, symObjAddr: 0xD85C, symBinAddr: 0x10000F970, symSize: 0x30 }
  - { offsetInCU: 0x285A1, offset: 0x285A1, size: 0x8, addend: 0x0, symName: __ZNSt3__110unique_ptrINS_11__hash_nodeINS_17__hash_value_typeIyNS_10shared_ptrIN5hf3fs17monitor_collector13WorkloadStatsEEEEEPvEENS_22__hash_node_destructorINS_9allocatorISA_EEEEE5resetB8ue170006EPSA_, symObjAddr: 0xD88C, symBinAddr: 0x10000F9A0, symSize: 0x78 }
  - { offsetInCU: 0x285E5, offset: 0x285E5, size: 0x8, addend: 0x0, symName: __ZNSt3__122__hash_node_destructorINS_9allocatorINS_11__hash_nodeINS_17__hash_value_typeIyNS_10shared_ptrIN5hf3fs17monitor_collector13WorkloadStatsEEEEEPvEEEEEclB8ue170006EPSB_, symObjAddr: 0xD904, symBinAddr: 0x10000FA18, symSize: 0x94 }
  - { offsetInCU: 0x2861A, offset: 0x2861A, size: 0x8, addend: 0x0, symName: __ZNSt3__14pairINS_15__hash_iteratorIPNS_11__hash_nodeINS_17__hash_value_typeIyNS_10shared_ptrIN5hf3fs17monitor_collector13WorkloadStatsEEEEEPvEEEEbEC2B8ue170006ISD_RbLSA_0EEEOT_OT0_, symObjAddr: 0xD998, symBinAddr: 0x10000FAAC, symSize: 0x38 }
  - { offsetInCU: 0x28678, offset: 0x28678, size: 0x8, addend: 0x0, symName: __ZNSt3__15tupleIJOyEEC1B8ue170006IJyELi0EEEDpOT_, symObjAddr: 0xD9D0, symBinAddr: 0x10000FAE4, symSize: 0x34 }
  - { offsetInCU: 0x286C2, offset: 0x286C2, size: 0x8, addend: 0x0, symName: __ZNSt3__15tupleIJOyEEC2B8ue170006IJyELi0EEEDpOT_, symObjAddr: 0xDA04, symBinAddr: 0x10000FB18, symSize: 0x34 }
  - { offsetInCU: 0x2870C, offset: 0x2870C, size: 0x8, addend: 0x0, symName: __ZNSt3__112__tuple_implINS_15__tuple_indicesIJLm0EEEEJOyEEC1B8ue170006IJLm0EEJS3_EJEJEJyEEENS1_IJXspT_EEEENS_13__tuple_typesIJDpT0_EEENS1_IJXspT1_EEEENS7_IJDpT2_EEEDpOT3_, symObjAddr: 0xDA38, symBinAddr: 0x10000FB4C, symSize: 0x34 }
  - { offsetInCU: 0x2879D, offset: 0x2879D, size: 0x8, addend: 0x0, symName: __ZNSt3__112__tuple_implINS_15__tuple_indicesIJLm0EEEEJOyEEC2B8ue170006IJLm0EEJS3_EJEJEJyEEENS1_IJXspT_EEEENS_13__tuple_typesIJDpT0_EEENS1_IJXspT1_EEEENS7_IJDpT2_EEEDpOT3_, symObjAddr: 0xDA6C, symBinAddr: 0x10000FB80, symSize: 0x34 }
  - { offsetInCU: 0x2882E, offset: 0x2882E, size: 0x8, addend: 0x0, symName: __ZNSt3__112__tuple_leafILm0EOyLb0EEC2B8ue170006IyvEEOT_, symObjAddr: 0xDAA0, symBinAddr: 0x10000FBB4, symSize: 0x20 }
  - { offsetInCU: 0x28871, offset: 0x28871, size: 0x8, addend: 0x0, symName: __ZNSt3__114pointer_traitsIPNS_17__hash_value_typeIyNS_10shared_ptrIN5hf3fs17monitor_collector13WorkloadStatsEEEEEE10pointer_toB8ue170006ERS7_, symObjAddr: 0xDAC0, symBinAddr: 0x10000FBD4, symSize: 0x14 }
  - { offsetInCU: 0x3E, offset: 0x28B6C, size: 0x8, addend: 0x0, symName: __ZN5folly7dynamic6objectE, symObjAddr: 0x1FFA90, symBinAddr: 0x100080050, symSize: 0x0 }
  - { offsetInCU: 0x24A, offset: 0x28D78, size: 0x8, addend: 0x0, symName: __ZN5folly7dynamic5arrayE, symObjAddr: 0x1FFB08, symBinAddr: 0x1000800C8, symSize: 0x0 }
  - { offsetInCU: 0x4A3, offset: 0x28FD1, size: 0x8, addend: 0x0, symName: __ZN5folly6toJsonERKNS_7dynamicE, symObjAddr: 0x2C40, symBinAddr: 0x1000133B8, symSize: 0x3C }
  - { offsetInCU: 0x10101, offset: 0x38C2F, size: 0x8, addend: 0x0, symName: '__ZNSt3__110__function10__not_nullB8ue170006IZN5hf3fs17monitor_collector19MLWorkloadAnalyticsC1ERKNS4_6ConfigEE3$_0EEbRKT_', symObjAddr: 0x127A0, symBinAddr: 0x100020ACC, symSize: 0x18 }
  - { offsetInCU: 0x10134, offset: 0x38C62, size: 0x8, addend: 0x0, symName: '__ZNSt3__110__function10__not_nullB8ue170006IZN5hf3fs17monitor_collector19MLWorkloadAnalytics4initEvE3$_1EEbRKT_', symObjAddr: 0x14218, symBinAddr: 0x100022544, symSize: 0x18 }
  - { offsetInCU: 0x10167, offset: 0x38C95, size: 0x8, addend: 0x0, symName: '__ZNSt3__110__function10__not_nullB8ue170006IZN5hf3fs17monitor_collector19MLWorkloadAnalytics4initEvE3$_2EEbRKT_', symObjAddr: 0x15C9C, symBinAddr: 0x100023FC8, symSize: 0x18 }
  - { offsetInCU: 0x1019A, offset: 0x38CC8, size: 0x8, addend: 0x0, symName: '__ZNSt3__110__function10__not_nullB8ue170006IZN5hf3fs17monitor_collector19MLWorkloadAnalytics15recordOperationERKNS3_15OperationRecordEE3$_4EEbRKT_', symObjAddr: 0x1B65C, symBinAddr: 0x100029934, symSize: 0x18 }
  - { offsetInCU: 0x101CD, offset: 0x38CFB, size: 0x8, addend: 0x0, symName: '__ZNSt3__110__function10__not_nullB8ue170006IZN5hf3fs17monitor_collector19MLWorkloadAnalytics15recordOperationERKNS3_15OperationRecordEE3$_6EEbRKT_', symObjAddr: 0x259BC, symBinAddr: 0x100032450, symSize: 0x18 }
  - { offsetInCU: 0x29D61, offset: 0x5288F, size: 0x8, addend: 0x0, symName: '__ZNSt3__111__introsortINS_17_ClassicAlgPolicyERZN5hf3fs17monitor_collector19MLWorkloadAnalytics20cleanupIdleWorkloadsEvE3$_8PNS_4pairIyyEELb0EEEvT1_SA_T0_NS_15iterator_traitsISA_E15difference_typeEb', symObjAddr: 0x308FC, symBinAddr: 0x10003D2B8, symSize: 0x434 }
  - { offsetInCU: 0x29E90, offset: 0x529BE, size: 0x8, addend: 0x0, symName: '__ZNSt3__126__insertion_sort_unguardedB8ue170006INS_17_ClassicAlgPolicyERZN5hf3fs17monitor_collector19MLWorkloadAnalytics20cleanupIdleWorkloadsEvE3$_8PNS_4pairIyyEEEEvT1_SA_T0_', symObjAddr: 0x30FCC, symBinAddr: 0x10003D988, symSize: 0x120 }
  - { offsetInCU: 0x29F84, offset: 0x52AB2, size: 0x8, addend: 0x0, symName: '__ZNSt3__111__sift_downB8ue170006INS_17_ClassicAlgPolicyERZN5hf3fs17monitor_collector19MLWorkloadAnalytics20cleanupIdleWorkloadsEvE3$_8PNS_4pairIyyEEEEvT1_OT0_NS_15iterator_traitsISA_E15difference_typeESA_', symObjAddr: 0x32238, symBinAddr: 0x10003EBF4, symSize: 0x20C }
  - { offsetInCU: 0x2A032, offset: 0x52B60, size: 0x8, addend: 0x0, symName: '__ZNSt3__117__floyd_sift_downB8ue170006INS_17_ClassicAlgPolicyERZN5hf3fs17monitor_collector19MLWorkloadAnalytics20cleanupIdleWorkloadsEvE3$_8PNS_4pairIyyEEEET1_SA_OT0_NS_15iterator_traitsISA_E15difference_typeE', symObjAddr: 0x325E0, symBinAddr: 0x10003EF9C, symSize: 0x100 }
  - { offsetInCU: 0x2A0CB, offset: 0x52BF9, size: 0x8, addend: 0x0, symName: '__ZNSt3__131__partition_with_equals_on_leftB8ue170006INS_17_ClassicAlgPolicyEPNS_4pairIyyEERZN5hf3fs17monitor_collector19MLWorkloadAnalytics20cleanupIdleWorkloadsEvE3$_8EET0_SA_SA_T1_', symObjAddr: 0x312F8, symBinAddr: 0x10003DCB4, symSize: 0x20C }
  - { offsetInCU: 0x2A187, offset: 0x52CB5, size: 0x8, addend: 0x0, symName: '__ZNSt3__118__bitset_partitionB8ue170006INS_17_ClassicAlgPolicyEPNS_4pairIyyEERZN5hf3fs17monitor_collector19MLWorkloadAnalytics20cleanupIdleWorkloadsEvE3$_8EENS2_IT0_bEESA_SA_T1_', symObjAddr: 0x31504, symBinAddr: 0x10003DEC0, symSize: 0x32C }
  - { offsetInCU: 0x2A284, offset: 0x52DB2, size: 0x8, addend: 0x0, symName: __ZNSt3__124__swap_bitmap_pos_withinB8ue170006INS_17_ClassicAlgPolicyEPNS_4pairIyyEEEEvRT0_S6_RyS7_, symObjAddr: 0x32D2C, symBinAddr: 0x10003F6E8, symSize: 0x1E0 }
  - { offsetInCU: 0x2A353, offset: 0x52E81, size: 0x8, addend: 0x0, symName: '__ZNSt3__132__partition_with_equals_on_rightB8ue170006INS_17_ClassicAlgPolicyEPNS_4pairIyyEERZN5hf3fs17monitor_collector19MLWorkloadAnalytics20cleanupIdleWorkloadsEvE3$_8EENS2_IT0_bEESA_SA_T1_', symObjAddr: 0x31830, symBinAddr: 0x10003E1EC, symSize: 0x224 }
  - { offsetInCU: 0x2A41E, offset: 0x52F4C, size: 0x8, addend: 0x0, symName: '__ZNSt3__127__insertion_sort_incompleteB8ue170006INS_17_ClassicAlgPolicyERZN5hf3fs17monitor_collector19MLWorkloadAnalytics20cleanupIdleWorkloadsEvE3$_8PNS_4pairIyyEEEEbT1_SA_T0_', symObjAddr: 0x31A54, symBinAddr: 0x10003E410, symSize: 0x304 }
  - { offsetInCU: 0x2B4F6, offset: 0x54024, size: 0x8, addend: 0x0, symName: '__ZNSt3__111make_uniqueB8ue170006IN5hf3fs16BackgroundRunnerEJRA19_KcZNS1_17monitor_collector19MLWorkloadAnalytics4initEvE3$_1NS_6chrono8durationIxNS_5ratioILl1ELl1000EEEEEEEENS_11__unique_ifIT_E15__unique_singleEDpOT0_', symObjAddr: 0xAB8, symBinAddr: 0x1000112E0, symSize: 0x160 }
  - { offsetInCU: 0x2B562, offset: 0x54090, size: 0x8, addend: 0x0, symName: '__ZNSt3__111make_uniqueB8ue170006IN5hf3fs16BackgroundRunnerEJRA19_KcZNS1_17monitor_collector19MLWorkloadAnalytics4initEvE3$_2NS_6chrono8durationIxNS_5ratioILl1ELl1000EEEEEEEENS_11__unique_ifIT_E15__unique_singleEDpOT0_', symObjAddr: 0xCF4, symBinAddr: 0x10001151C, symSize: 0x160 }
  - { offsetInCU: 0x2B897, offset: 0x543C5, size: 0x8, addend: 0x0, symName: __ZNSt3__1eqB8ue170006ERKNS_19__hash_map_iteratorINS_15__hash_iteratorIPNS_11__hash_nodeINS_17__hash_value_typeIyNS_10shared_ptrIN5hf3fs17monitor_collector13WorkloadStatsEEEEEPvEEEEEESG_, symObjAddr: 0x1490, symBinAddr: 0x100011CB8, symSize: 0x30 }
  - { offsetInCU: 0x2B8D4, offset: 0x54402, size: 0x8, addend: 0x0, symName: __ZNSt3__1neB8ue170006IcNS_11char_traitsIcEENS_9allocatorIcEEEEbRKNS_12basic_stringIT_T0_T1_EESB_, symObjAddr: 0x1550, symBinAddr: 0x100011D48, symSize: 0x34 }
  - { offsetInCU: 0x2B92C, offset: 0x5445A, size: 0x8, addend: 0x0, symName: __ZNSt3__1neB8ue170006IPNS_10shared_ptrIN5hf3fs17monitor_collector13WorkloadStatsEEEEEbRKNS_11__wrap_iterIT_EESB_, symObjAddr: 0x1810, symBinAddr: 0x100011FF0, symSize: 0x34 }
  - { offsetInCU: 0x2B96F, offset: 0x5449D, size: 0x8, addend: 0x0, symName: __ZNSt3__13getB8ue170006ILm0EKyNS_10shared_ptrIN5hf3fs17monitor_collector13WorkloadStatsEEEEERKNS_13tuple_elementIXT_ENS_4pairIT0_T1_EEE4typeERKSB_, symObjAddr: 0x2580, symBinAddr: 0x100012CF8, symSize: 0x24 }
  - { offsetInCU: 0x2B9B9, offset: 0x544E7, size: 0x8, addend: 0x0, symName: __ZNSt3__13getB8ue170006ILm1EKyNS_10shared_ptrIN5hf3fs17monitor_collector13WorkloadStatsEEEEERKNS_13tuple_elementIXT_ENS_4pairIT0_T1_EEE4typeERKSB_, symObjAddr: 0x25A4, symBinAddr: 0x100012D1C, symSize: 0x24 }
  - { offsetInCU: 0x2BA03, offset: 0x54531, size: 0x8, addend: 0x0, symName: __ZNSt3__1neB8ue170006ERKNS_19__hash_map_iteratorINS_15__hash_iteratorIPNS_11__hash_nodeINS_17__hash_value_typeINS_12basic_stringIcNS_11char_traitsIcEENS_9allocatorIcEEEEyEEPvEEEEEESH_, symObjAddr: 0x29A8, symBinAddr: 0x100013120, symSize: 0x30 }
  - { offsetInCU: 0x2BA40, offset: 0x5456E, size: 0x8, addend: 0x0, symName: __ZNSt3__13getB8ue170006ILm0EKNS_12basic_stringIcNS_11char_traitsIcEENS_9allocatorIcEEEEyEERKNS_13tuple_elementIXT_ENS_4pairIT0_T1_EEE4typeERKSC_, symObjAddr: 0x2A00, symBinAddr: 0x100013178, symSize: 0x24 }
  - { offsetInCU: 0x2BA8A, offset: 0x545B8, size: 0x8, addend: 0x0, symName: __ZNSt3__13getB8ue170006ILm1EKNS_12basic_stringIcNS_11char_traitsIcEENS_9allocatorIcEEEEyEERKNS_13tuple_elementIXT_ENS_4pairIT0_T1_EEE4typeERKSC_, symObjAddr: 0x2A24, symBinAddr: 0x10001319C, symSize: 0x24 }
  - { offsetInCU: 0x2BAD4, offset: 0x54602, size: 0x8, addend: 0x0, symName: __ZNSt3__1neB8ue170006IPNS_12basic_stringIcNS_11char_traitsIcEENS_9allocatorIcEEEEEEbRKNS_11__wrap_iterIT_EESC_, symObjAddr: 0x2B08, symBinAddr: 0x100013280, symSize: 0x34 }
  - { offsetInCU: 0x2BB17, offset: 0x54645, size: 0x8, addend: 0x0, symName: __ZNSt3__13getB8ue170006ILm0EKyNS_10shared_ptrIN5hf3fs17monitor_collector13WorkloadStatsEEEEERNS_13tuple_elementIXT_ENS_4pairIT0_T1_EEE4typeERSB_, symObjAddr: 0x3C24, symBinAddr: 0x100014370, symSize: 0x24 }
  - { offsetInCU: 0x2BB61, offset: 0x5468F, size: 0x8, addend: 0x0, symName: __ZNSt3__13getB8ue170006ILm1EKyNS_10shared_ptrIN5hf3fs17monitor_collector13WorkloadStatsEEEEERNS_13tuple_elementIXT_ENS_4pairIT0_T1_EEE4typeERSB_, symObjAddr: 0x3C48, symBinAddr: 0x100014394, symSize: 0x24 }
  - { offsetInCU: 0x2BBAB, offset: 0x546D9, size: 0x8, addend: 0x0, symName: __ZNSt3__1neB8ue170006ERKNS_19__hash_map_iteratorINS_15__hash_iteratorIPNS_11__hash_nodeINS_17__hash_value_typeIyNS_6vectorIN5hf3fs17monitor_collector15OperationRecordENS_9allocatorIS7_EEEEEEPvEEEEEESI_, symObjAddr: 0x46F4, symBinAddr: 0x100014E40, symSize: 0x30 }
  - { offsetInCU: 0x2BBE8, offset: 0x54716, size: 0x8, addend: 0x0, symName: __ZNSt3__1neB8ue170006IPN5hf3fs17monitor_collector15OperationRecordEEEbRKNS_11__wrap_iterIT_EES9_, symObjAddr: 0x4830, symBinAddr: 0x100014F7C, symSize: 0x34 }
  - { offsetInCU: 0x2BC2B, offset: 0x54759, size: 0x8, addend: 0x0, symName: __ZNSt3__110accumulateB8ue170006INS_11__wrap_iterIPyEEyEET0_T_S5_S4_, symObjAddr: 0x49C0, symBinAddr: 0x10001510C, symSize: 0x70 }
  - { offsetInCU: 0x2BC85, offset: 0x547B3, size: 0x8, addend: 0x0, symName: __ZNSt3__1neB8ue170006IPyEEbRKNS_11__wrap_iterIT_EES6_, symObjAddr: 0x4A90, symBinAddr: 0x1000151DC, symSize: 0x34 }
  - { offsetInCU: 0x2BCC8, offset: 0x547F6, size: 0x8, addend: 0x0, symName: __ZNSt3__111make_sharedB8ue170006IN5hf3fs17monitor_collector13WorkloadStatsEJRS3_EvEENS_10shared_ptrIT_EEDpOT0_, symObjAddr: 0x51A0, symBinAddr: 0x100015894, symSize: 0x40 }
  - { offsetInCU: 0x2BD0C, offset: 0x5483A, size: 0x8, addend: 0x0, symName: '__ZNSt3__19remove_ifB8ue170006INS_11__wrap_iterIPNS_10shared_ptrIN5hf3fs17monitor_collector13WorkloadStatsEEEEEZNS4_19MLWorkloadAnalytics14generateReportEvE3$_7EET_SB_SB_T0_', symObjAddr: 0x53A8, symBinAddr: 0x100015A70, symSize: 0xFC }
  - { offsetInCU: 0x2BD83, offset: 0x548B1, size: 0x8, addend: 0x0, symName: __ZNSt3__1eqB8ue170006IcNS_11char_traitsIcEENS_9allocatorIcEEEEbRKNS_12basic_stringIT_T0_T1_EEPKS6_, symObjAddr: 0x552C, symBinAddr: 0x100015BCC, symSize: 0xAC }
  - { offsetInCU: 0x2BDEA, offset: 0x54918, size: 0x8, addend: 0x0, symName: __ZNSt3__1eqB8ue170006ERKNS_19__hash_map_iteratorINS_15__hash_iteratorIPNS_11__hash_nodeINS_17__hash_value_typeIyNS_6vectorIN5hf3fs17monitor_collector15OperationRecordENS_9allocatorIS7_EEEEEEPvEEEEEESI_, symObjAddr: 0x5A14, symBinAddr: 0x1000160B4, symSize: 0x30 }
  - { offsetInCU: 0x2BE27, offset: 0x54955, size: 0x8, addend: 0x0, symName: __ZNSt3__1neB8ue170006IPKN5hf3fs17monitor_collector15OperationRecordEEEbRKNS_11__wrap_iterIT_EESA_, symObjAddr: 0x5AA4, symBinAddr: 0x100016144, symSize: 0x34 }
  - { offsetInCU: 0x2BE6A, offset: 0x54998, size: 0x8, addend: 0x0, symName: __ZNSt3__19transformB8ue170006INS_11__wrap_iterIPcEES3_PFiiEEET0_T_S7_S6_T1_, symObjAddr: 0x5B10, symBinAddr: 0x1000161B0, symSize: 0x98 }
  - { offsetInCU: 0x2BEDB, offset: 0x54A09, size: 0x8, addend: 0x0, symName: __ZNSt3__13maxB8ue170006IiEET_St16initializer_listIS1_E, symObjAddr: 0x5C6C, symBinAddr: 0x10001630C, symSize: 0x50 }
  - { offsetInCU: 0x2BF11, offset: 0x54A3F, size: 0x8, addend: 0x0, symName: '__ZNSt3__14sortB8ue170006INS_11__wrap_iterIPNS_4pairIyyEEEEZN5hf3fs17monitor_collector19MLWorkloadAnalytics20cleanupIdleWorkloadsEvE3$_8EEvT_SA_T0_', symObjAddr: 0x5DC4, symBinAddr: 0x100016464, symSize: 0x40 }
  - { offsetInCU: 0x2BF6C, offset: 0x54A9A, size: 0x8, addend: 0x0, symName: __ZNSt3__112__to_addressB8ue170006IN5folly7dynamicEEEPT_S4_, symObjAddr: 0x6AF0, symBinAddr: 0x100017190, symSize: 0x14 }
  - { offsetInCU: 0x2BFD4, offset: 0x54B02, size: 0x8, addend: 0x0, symName: __ZNSt3__17launderB8ue170006INS_4pairIKNS_12basic_stringIcNS_11char_traitsIcEENS_9allocatorIcEEEEN5folly7dynamicEEEEEPT_SD_, symObjAddr: 0x70D8, symBinAddr: 0x100017650, symSize: 0x24 }
  - { offsetInCU: 0x2C00C, offset: 0x54B3A, size: 0x8, addend: 0x0, symName: __ZNSt3__19__launderB8ue170006INS_4pairIKNS_12basic_stringIcNS_11char_traitsIcEENS_9allocatorIcEEEEN5folly7dynamicEEEEEPT_SD_, symObjAddr: 0x70FC, symBinAddr: 0x100017674, symSize: 0x14 }
  - { offsetInCU: 0x2C076, offset: 0x54BA4, size: 0x8, addend: 0x0, symName: __ZNSt3__112__to_addressB8ue170006IN5hf3fs17monitor_collector15OperationRecordEEEPT_S5_, symObjAddr: 0x8E7C, symBinAddr: 0x1000193E0, symSize: 0x14 }
  - { offsetInCU: 0x2C0AB, offset: 0x54BD9, size: 0x8, addend: 0x0, symName: __ZNSt3__17launderB8ue170006INS_4pairIKyNS_6vectorIN5hf3fs17monitor_collector15OperationRecordENS_9allocatorIS6_EEEEEEEEPT_SC_, symObjAddr: 0x9090, symBinAddr: 0x10001958C, symSize: 0x24 }
  - { offsetInCU: 0x2C0E3, offset: 0x54C11, size: 0x8, addend: 0x0, symName: __ZNSt3__19__launderB8ue170006INS_4pairIKyNS_6vectorIN5hf3fs17monitor_collector15OperationRecordENS_9allocatorIS6_EEEEEEEEPT_SC_, symObjAddr: 0x90B4, symBinAddr: 0x1000195B0, symSize: 0x14 }
  - { offsetInCU: 0x2C119, offset: 0x54C47, size: 0x8, addend: 0x0, symName: __ZNSt3__1eqB8ue170006IPNS_10shared_ptrIN5hf3fs17monitor_collector13WorkloadStatsEEEEEbRKNS_11__wrap_iterIT_EESB_, symObjAddr: 0x95A8, symBinAddr: 0x100019948, symSize: 0x48 }
  - { offsetInCU: 0x2C223, offset: 0x54D51, size: 0x8, addend: 0x0, symName: __ZNSt3__1neB8ue170006ERKNS_25__hash_map_const_iteratorINS_21__hash_const_iteratorIPNS_11__hash_nodeINS_17__hash_value_typeINS_12basic_stringIcNS_11char_traitsIcEENS_9allocatorIcEEEEN5folly7dynamicEEEPvEEEEEESJ_, symObjAddr: 0xAABC, symBinAddr: 0x10001AB14, symSize: 0x30 }
  - { offsetInCU: 0x2C260, offset: 0x54D8E, size: 0x8, addend: 0x0, symName: __ZNSt3__1neB8ue170006ERKNS_21__hash_const_iteratorIPNS_11__hash_nodeINS_17__hash_value_typeINS_12basic_stringIcNS_11char_traitsIcEENS_9allocatorIcEEEEN5folly7dynamicEEEPvEEEESH_, symObjAddr: 0xAB90, symBinAddr: 0x10001ABE8, symSize: 0x34 }
  - { offsetInCU: 0x2C29E, offset: 0x54DCC, size: 0x8, addend: 0x0, symName: __ZNSt3__1eqB8ue170006ERKNS_21__hash_const_iteratorIPNS_11__hash_nodeINS_17__hash_value_typeINS_12basic_stringIcNS_11char_traitsIcEENS_9allocatorIcEEEEN5folly7dynamicEEEPvEEEESH_, symObjAddr: 0xABC4, symBinAddr: 0x10001AC1C, symSize: 0x30 }
  - { offsetInCU: 0x2C2DA, offset: 0x54E08, size: 0x8, addend: 0x0, symName: __ZNSt3__116__do_string_hashB8ue170006IPKcEEmT_S3_, symObjAddr: 0xB478, symBinAddr: 0x10001B4D0, symSize: 0x3C }
  - { offsetInCU: 0x2C321, offset: 0x54E4F, size: 0x8, addend: 0x0, symName: __ZNSt3__110__loadwordB8ue170006ImEET_PKv, symObjAddr: 0xBEE8, symBinAddr: 0x10001BEC4, symSize: 0x20 }
  - { offsetInCU: 0x2C365, offset: 0x54E93, size: 0x8, addend: 0x0, symName: __ZNSt3__14swapB8ue170006ImEENS_9enable_ifIXaasr21is_move_constructibleIT_EE5valuesr18is_move_assignableIS2_EE5valueEvE4typeERS2_S5_, symObjAddr: 0xC0A4, symBinAddr: 0x10001C080, symSize: 0x3C }
  - { offsetInCU: 0x2C3B7, offset: 0x54EE5, size: 0x8, addend: 0x0, symName: __ZNSt3__110__loadwordB8ue170006IjEET_PKv, symObjAddr: 0xC134, symBinAddr: 0x10001C110, symSize: 0x20 }
  - { offsetInCU: 0x2C3FA, offset: 0x54F28, size: 0x8, addend: 0x0, symName: __ZNSt3__1eqB8ue170006INS_9allocatorIcEEEEbRKNS_12basic_stringIcNS_11char_traitsIcEET_EES9_, symObjAddr: 0xC4C4, symBinAddr: 0x10001C308, symSize: 0x148 }
  - { offsetInCU: 0x2C46D, offset: 0x54F9B, size: 0x8, addend: 0x0, symName: __ZNSt3__17launderB8ue170006IKNS_4pairIKNS_12basic_stringIcNS_11char_traitsIcEENS_9allocatorIcEEEEN5folly7dynamicEEEEEPT_SE_, symObjAddr: 0xC640, symBinAddr: 0x10001C484, symSize: 0x24 }
  - { offsetInCU: 0x2C4A5, offset: 0x54FD3, size: 0x8, addend: 0x0, symName: __ZNSt3__19__launderB8ue170006IKNS_4pairIKNS_12basic_stringIcNS_11char_traitsIcEENS_9allocatorIcEEEEN5folly7dynamicEEEEEPT_SE_, symObjAddr: 0xC664, symBinAddr: 0x10001C4A8, symSize: 0x14 }
  - { offsetInCU: 0x2C52C, offset: 0x5505A, size: 0x8, addend: 0x0, symName: __ZNSt3__122__make_exception_guardB8ue170006INS_6vectorIN5folly7dynamicENS_9allocatorIS3_EEE16__destroy_vectorEEENS_28__exception_guard_exceptionsIT_EES9_, symObjAddr: 0xD074, symBinAddr: 0x10001CEB8, symSize: 0x40 }
  - { offsetInCU: 0x2C561, offset: 0x5508F, size: 0x8, addend: 0x0, symName: __ZNSt3__119__allocate_at_leastB8ue170006INS_9allocatorIN5folly7dynamicEEEEENS_19__allocation_resultINS_16allocator_traitsIT_E7pointerEEERS7_m, symObjAddr: 0xD310, symBinAddr: 0x10001D154, symSize: 0x40 }
  - { offsetInCU: 0x2C5A4, offset: 0x550D2, size: 0x8, addend: 0x0, symName: __ZNSt3__13minB8ue170006ImEERKT_S3_S3_, symObjAddr: 0xD440, symBinAddr: 0x10001D284, symSize: 0x2C }
  - { offsetInCU: 0x2C7D1, offset: 0x552FF, size: 0x8, addend: 0x0, symName: __ZNSt3__13minB8ue170006ImNS_6__lessIvvEEEERKT_S5_S5_T0_, symObjAddr: 0xD4A4, symBinAddr: 0x10001D2E8, symSize: 0x54 }
  - { offsetInCU: 0x2C82B, offset: 0x55359, size: 0x8, addend: 0x0, symName: __ZNSt3__130__uninitialized_allocator_copyB8ue170006INS_9allocatorIN5folly7dynamicEEEPS3_S5_S5_EET2_RT_T0_T1_S6_, symObjAddr: 0xD6CC, symBinAddr: 0x10001D42C, symSize: 0x80 }
  - { offsetInCU: 0x2C8C8, offset: 0x553F6, size: 0x8, addend: 0x0, symName: __ZNSt3__114__unwrap_rangeB8ue170006IPN5folly7dynamicES3_EENS_4pairIT0_S5_EET_S7_, symObjAddr: 0xD7C4, symBinAddr: 0x10001D524, symSize: 0x60 }
  - { offsetInCU: 0x2C914, offset: 0x55442, size: 0x8, addend: 0x0, symName: __ZNSt3__135__uninitialized_allocator_copy_implB8ue170006INS_9allocatorIN5folly7dynamicEEEPS3_S5_S5_EET2_RT_T0_T1_S6_, symObjAddr: 0xD824, symBinAddr: 0x10001D584, symSize: 0xF4 }
  - { offsetInCU: 0x2C9B2, offset: 0x554E0, size: 0x8, addend: 0x0, symName: __ZNSt3__113__unwrap_iterB8ue170006IPN5folly7dynamicENS_18__unwrap_iter_implIS3_Lb1EEELi0EEEDTclsrT0_8__unwrapclsr3stdE7declvalIT_EEEES7_, symObjAddr: 0xD918, symBinAddr: 0x10001D678, symSize: 0x24 }
  - { offsetInCU: 0x2C9F6, offset: 0x55524, size: 0x8, addend: 0x0, symName: __ZNSt3__113__rewrap_iterB8ue170006IPN5folly7dynamicES3_NS_18__unwrap_iter_implIS3_Lb1EEEEET_S6_T0_, symObjAddr: 0xD93C, symBinAddr: 0x10001D69C, symSize: 0x3C }
  - { offsetInCU: 0x2CA4B, offset: 0x55579, size: 0x8, addend: 0x0, symName: __ZNSt3__19make_pairB8ue170006IPN5folly7dynamicES3_EENS_4pairINS_18__unwrap_ref_decayIT_E4typeENS5_IT0_E4typeEEEOS6_OS9_, symObjAddr: 0xD978, symBinAddr: 0x10001D6D8, symSize: 0x38 }
  - { offsetInCU: 0x2CB6E, offset: 0x5569C, size: 0x8, addend: 0x0, symName: __ZNSt3__122__make_exception_guardB8ue170006INS_29_AllocatorDestroyRangeReverseINS_9allocatorIN5folly7dynamicEEEPS4_EEEENS_28__exception_guard_exceptionsIT_EES9_, symObjAddr: 0xDA20, symBinAddr: 0x10001D780, symSize: 0x4C }
  - { offsetInCU: 0x2CBA5, offset: 0x556D3, size: 0x8, addend: 0x0, symName: __ZNSt3__119__allocator_destroyB8ue170006INS_9allocatorIN5folly7dynamicEEENS_16reverse_iteratorIPS3_EES7_EEvRT_T0_T1_, symObjAddr: 0xDCB0, symBinAddr: 0x10001DA10, symSize: 0x70 }
  - { offsetInCU: 0x2CC07, offset: 0x55735, size: 0x8, addend: 0x0, symName: __ZNSt3__1neB8ue170006IPN5folly7dynamicES3_EEbRKNS_16reverse_iteratorIT_EERKNS4_IT0_EE, symObjAddr: 0xDD54, symBinAddr: 0x10001DAB4, symSize: 0x48 }
  - { offsetInCU: 0x2CC53, offset: 0x55781, size: 0x8, addend: 0x0, symName: __ZNSt3__112__to_addressB8ue170006INS_16reverse_iteratorIPN5folly7dynamicEEEvEEu7__decayIDTclsr19__to_address_helperIT_EE6__callclsr3stdE7declvalIRKS6_EEEEES8_, symObjAddr: 0xDD9C, symBinAddr: 0x10001DAFC, symSize: 0x24 }
  - { offsetInCU: 0x2CE1F, offset: 0x5594D, size: 0x8, addend: 0x0, symName: __ZNSt3__116forward_as_tupleB8ue170006IJRKNS_12basic_stringIcNS_11char_traitsIcEENS_9allocatorIcEEEEEEENS_5tupleIJDpOT_EEESC_, symObjAddr: 0xF270, symBinAddr: 0x10001EA5C, symSize: 0x2C }
  - { offsetInCU: 0x2CE58, offset: 0x55986, size: 0x8, addend: 0x0, symName: __ZNSt3__13getB8ue170006ILm0EJRKNS_12basic_stringIcNS_11char_traitsIcEENS_9allocatorIcEEEEEEERNS_13tuple_elementIXT_ENS_5tupleIJDpT0_EEEE4typeERSD_, symObjAddr: 0xF598, symBinAddr: 0x10001ED80, symSize: 0x24 }
  - { offsetInCU: 0x2CEE3, offset: 0x55A11, size: 0x8, addend: 0x0, symName: __ZNSt3__1eqB8ue170006IPNS_12basic_stringIcNS_11char_traitsIcEENS_9allocatorIcEEEEEEbRKNS_11__wrap_iterIT_EESC_, symObjAddr: 0xF6D8, symBinAddr: 0x10001EEC0, symSize: 0x48 }
  - { offsetInCU: 0x2CF26, offset: 0x55A54, size: 0x8, addend: 0x0, symName: __ZNSt3__142__uninitialized_allocator_move_if_noexceptB8ue170006INS_9allocatorIN5folly7dynamicEEENS_16reverse_iteratorIPS3_EES7_S7_EET2_RT_T0_T1_S8_, symObjAddr: 0xFDDC, symBinAddr: 0x10001F5C4, symSize: 0x11C }
  - { offsetInCU: 0x2CFC7, offset: 0x55AF5, size: 0x8, addend: 0x0, symName: __ZNSt3__14swapB8ue170006IPN5folly7dynamicEEENS_9enable_ifIXaasr21is_move_constructibleIT_EE5valuesr18is_move_assignableIS5_EE5valueEvE4typeERS5_S8_, symObjAddr: 0xFEF8, symBinAddr: 0x10001F6E0, symSize: 0x3C }
  - { offsetInCU: 0x2D018, offset: 0x55B46, size: 0x8, addend: 0x0, symName: __ZNSt3__122__make_exception_guardB8ue170006INS_29_AllocatorDestroyRangeReverseINS_9allocatorIN5folly7dynamicEEENS_16reverse_iteratorIPS4_EEEEEENS_28__exception_guard_exceptionsIT_EESB_, symObjAddr: 0xFF34, symBinAddr: 0x10001F71C, symSize: 0x4C }
  - { offsetInCU: 0x2D04F, offset: 0x55B7D, size: 0x8, addend: 0x0, symName: __ZNSt3__119__allocator_destroyB8ue170006INS_9allocatorIN5folly7dynamicEEENS_16reverse_iteratorINS5_IPS3_EEEES8_EEvRT_T0_T1_, symObjAddr: 0x101AC, symBinAddr: 0x10001F994, symSize: 0x70 }
  - { offsetInCU: 0x2D0B3, offset: 0x55BE1, size: 0x8, addend: 0x0, symName: __ZNSt3__1neB8ue170006INS_16reverse_iteratorIPN5folly7dynamicEEES5_EEbRKNS1_IT_EERKNS1_IT0_EE, symObjAddr: 0x10258, symBinAddr: 0x10001FA40, symSize: 0x60 }
  - { offsetInCU: 0x2D0FF, offset: 0x55C2D, size: 0x8, addend: 0x0, symName: __ZNSt3__112__to_addressB8ue170006INS_16reverse_iteratorINS1_IPN5folly7dynamicEEEEEvEEu7__decayIDTclsr19__to_address_helperIT_EE6__callclsr3stdE7declvalIRKS7_EEEEES9_, symObjAddr: 0x102B8, symBinAddr: 0x10001FAA0, symSize: 0x24 }
  - { offsetInCU: 0x2D15E, offset: 0x55C8C, size: 0x8, addend: 0x0, symName: __ZNSt3__1eqB8ue170006IPN5hf3fs17monitor_collector15OperationRecordEEEbRKNS_11__wrap_iterIT_EES9_, symObjAddr: 0x10B9C, symBinAddr: 0x1000202C0, symSize: 0x48 }
  - { offsetInCU: 0x2D1A1, offset: 0x55CCF, size: 0x8, addend: 0x0, symName: __ZNSt3__1eqB8ue170006IPyEEbRKNS_11__wrap_iterIT_EES6_, symObjAddr: 0x10BFC, symBinAddr: 0x100020320, symSize: 0x48 }
  - { offsetInCU: 0x2D1E4, offset: 0x55D12, size: 0x8, addend: 0x0, symName: __ZNSt3__1eqB8ue170006IPKN5hf3fs17monitor_collector15OperationRecordEEEbRKNS_11__wrap_iterIT_EESA_, symObjAddr: 0x10C9C, symBinAddr: 0x1000203C0, symSize: 0x48 }
  - { offsetInCU: 0x2D227, offset: 0x55D55, size: 0x8, addend: 0x0, symName: __ZNSt3__111max_elementB8ue170006IPKiNS_6__lessIvvEEEET_S5_S5_T0_, symObjAddr: 0x10CFC, symBinAddr: 0x100020420, symSize: 0x30 }
  - { offsetInCU: 0x2D281, offset: 0x55DAF, size: 0x8, addend: 0x0, symName: __ZNSt3__113__max_elementB8ue170006IRNS_6__lessIvvEEPKiEET0_S6_S6_T_, symObjAddr: 0x10D64, symBinAddr: 0x100020488, symSize: 0x9C }
  - { offsetInCU: 0x2D2F8, offset: 0x55E26, size: 0x8, addend: 0x0, symName: __ZNSt3__1neB8ue170006IPcEEbRKNS_11__wrap_iterIT_EES6_, symObjAddr: 0x11038, symBinAddr: 0x1000206C4, symSize: 0x34 }
  - { offsetInCU: 0x2D33B, offset: 0x55E69, size: 0x8, addend: 0x0, symName: __ZNSt3__1eqB8ue170006IPcEEbRKNS_11__wrap_iterIT_EES6_, symObjAddr: 0x110A4, symBinAddr: 0x100020730, symSize: 0x48 }
  - { offsetInCU: 0x2D4EC, offset: 0x5601A, size: 0x8, addend: 0x0, symName: '__ZNSt3__116forward_as_tupleB8ue170006IJZN5hf3fs17monitor_collector19MLWorkloadAnalyticsC1ERKNS3_6ConfigEE3$_0EEENS_5tupleIJDpOT_EEESB_', symObjAddr: 0x12D18, symBinAddr: 0x100021044, symSize: 0x2C }
  - { offsetInCU: 0x2D526, offset: 0x56054, size: 0x8, addend: 0x0, symName: '__ZNSt3__116forward_as_tupleB8ue170006IJNS_9allocatorIZN5hf3fs17monitor_collector19MLWorkloadAnalyticsC1ERKNS4_6ConfigEE3$_0EEEEENS_5tupleIJDpOT_EEESD_', symObjAddr: 0x12D44, symBinAddr: 0x100021070, symSize: 0x2C }
  - { offsetInCU: 0x2D58A, offset: 0x560B8, size: 0x8, addend: 0x0, symName: '__ZNSt3__13getB8ue170006ILm0EJOZN5hf3fs17monitor_collector19MLWorkloadAnalyticsC1ERKNS3_6ConfigEE3$_0EEERNS_13tuple_elementIXT_ENS_5tupleIJDpT0_EEEE4typeERSD_', symObjAddr: 0x13050, symBinAddr: 0x10002137C, symSize: 0x24 }
  - { offsetInCU: 0x2D5CD, offset: 0x560FB, size: 0x8, addend: 0x0, symName: '__ZNSt3__13getB8ue170006ILm0EJONS_9allocatorIZN5hf3fs17monitor_collector19MLWorkloadAnalyticsC1ERKNS4_6ConfigEE3$_0EEEEERNS_13tuple_elementIXT_ENS_5tupleIJDpT0_EEEE4typeERSF_', symObjAddr: 0x1308C, symBinAddr: 0x1000213B8, symSize: 0x24 }
  - { offsetInCU: 0x2DB19, offset: 0x56647, size: 0x8, addend: 0x0, symName: '__ZNSt3__116forward_as_tupleB8ue170006IJRKZN5hf3fs17monitor_collector19MLWorkloadAnalyticsC1ERKNS3_6ConfigEE3$_0EEENS_5tupleIJDpOT_EEESD_', symObjAddr: 0x13620, symBinAddr: 0x10002194C, symSize: 0x2C }
  - { offsetInCU: 0x2DB68, offset: 0x56696, size: 0x8, addend: 0x0, symName: '__ZNSt3__13getB8ue170006ILm0EJRKZN5hf3fs17monitor_collector19MLWorkloadAnalyticsC1ERKNS3_6ConfigEE3$_0EEERNS_13tuple_elementIXT_ENS_5tupleIJDpT0_EEEE4typeERSE_', symObjAddr: 0x13804, symBinAddr: 0x100021B30, symSize: 0x24 }
  - { offsetInCU: 0x2DBAB, offset: 0x566D9, size: 0x8, addend: 0x0, symName: '__ZNSt3__116forward_as_tupleB8ue170006IJRKNS_9allocatorIZN5hf3fs17monitor_collector19MLWorkloadAnalyticsC1ERKNS4_6ConfigEE3$_0EEEEENS_5tupleIJDpOT_EEESF_', symObjAddr: 0x13B60, symBinAddr: 0x100021E8C, symSize: 0x2C }
  - { offsetInCU: 0x2DBFA, offset: 0x56728, size: 0x8, addend: 0x0, symName: '__ZNSt3__13getB8ue170006ILm0EJRKNS_9allocatorIZN5hf3fs17monitor_collector19MLWorkloadAnalyticsC1ERKNS4_6ConfigEE3$_0EEEEERNS_13tuple_elementIXT_ENS_5tupleIJDpT0_EEEE4typeERSG_', symObjAddr: 0x13D44, symBinAddr: 0x100022070, symSize: 0x24 }
  - { offsetInCU: 0x2DCAD, offset: 0x567DB, size: 0x8, addend: 0x0, symName: '__ZNSt3__18__invokeB8ue170006IRZN5hf3fs17monitor_collector19MLWorkloadAnalyticsC1ERKNS3_6ConfigEE3$_0JEEEDTclclsr3stdE7declvalIT_EEspclsr3stdE7declvalIT0_EEEEOS9_DpOSA_', symObjAddr: 0x13E00, symBinAddr: 0x10002212C, symSize: 0x24 }
  - { offsetInCU: 0x2DE53, offset: 0x56981, size: 0x8, addend: 0x0, symName: '__ZNSt3__116forward_as_tupleB8ue170006IJZN5hf3fs17monitor_collector19MLWorkloadAnalytics4initEvE3$_1EEENS_5tupleIJDpOT_EEES8_', symObjAddr: 0x14738, symBinAddr: 0x100022A64, symSize: 0x2C }
  - { offsetInCU: 0x2DE8D, offset: 0x569BB, size: 0x8, addend: 0x0, symName: '__ZNSt3__116forward_as_tupleB8ue170006IJNS_9allocatorIZN5hf3fs17monitor_collector19MLWorkloadAnalytics4initEvE3$_1EEEEENS_5tupleIJDpOT_EEESA_', symObjAddr: 0x14764, symBinAddr: 0x100022A90, symSize: 0x2C }
  - { offsetInCU: 0x2DEF1, offset: 0x56A1F, size: 0x8, addend: 0x0, symName: '__ZNSt3__13getB8ue170006ILm0EJOZN5hf3fs17monitor_collector19MLWorkloadAnalytics4initEvE3$_1EEERNS_13tuple_elementIXT_ENS_5tupleIJDpT0_EEEE4typeERSA_', symObjAddr: 0x14A7C, symBinAddr: 0x100022DA8, symSize: 0x24 }
  - { offsetInCU: 0x2DF34, offset: 0x56A62, size: 0x8, addend: 0x0, symName: '__ZNSt3__13getB8ue170006ILm0EJONS_9allocatorIZN5hf3fs17monitor_collector19MLWorkloadAnalytics4initEvE3$_1EEEEERNS_13tuple_elementIXT_ENS_5tupleIJDpT0_EEEE4typeERSC_', symObjAddr: 0x14AB8, symBinAddr: 0x100022DE4, symSize: 0x24 }
  - { offsetInCU: 0x2E480, offset: 0x56FAE, size: 0x8, addend: 0x0, symName: '__ZNSt3__116forward_as_tupleB8ue170006IJRKZN5hf3fs17monitor_collector19MLWorkloadAnalytics4initEvE3$_1EEENS_5tupleIJDpOT_EEESA_', symObjAddr: 0x1504C, symBinAddr: 0x100023378, symSize: 0x2C }
  - { offsetInCU: 0x2E4CF, offset: 0x56FFD, size: 0x8, addend: 0x0, symName: '__ZNSt3__13getB8ue170006ILm0EJRKZN5hf3fs17monitor_collector19MLWorkloadAnalytics4initEvE3$_1EEERNS_13tuple_elementIXT_ENS_5tupleIJDpT0_EEEE4typeERSB_', symObjAddr: 0x1523C, symBinAddr: 0x100023568, symSize: 0x24 }
  - { offsetInCU: 0x2E512, offset: 0x57040, size: 0x8, addend: 0x0, symName: '__ZNSt3__116forward_as_tupleB8ue170006IJRKNS_9allocatorIZN5hf3fs17monitor_collector19MLWorkloadAnalytics4initEvE3$_1EEEEENS_5tupleIJDpOT_EEESC_', symObjAddr: 0x15598, symBinAddr: 0x1000238C4, symSize: 0x2C }
  - { offsetInCU: 0x2E561, offset: 0x5708F, size: 0x8, addend: 0x0, symName: '__ZNSt3__13getB8ue170006ILm0EJRKNS_9allocatorIZN5hf3fs17monitor_collector19MLWorkloadAnalytics4initEvE3$_1EEEEERNS_13tuple_elementIXT_ENS_5tupleIJDpT0_EEEE4typeERSD_', symObjAddr: 0x1577C, symBinAddr: 0x100023AA8, symSize: 0x24 }
  - { offsetInCU: 0x2E5A4, offset: 0x570D2, size: 0x8, addend: 0x0, symName: '__ZNSt3__18__invokeB8ue170006IRZN5hf3fs17monitor_collector19MLWorkloadAnalytics4initEvE3$_1JEEEDTclclsr3stdE7declvalIT_EEspclsr3stdE7declvalIT0_EEEEOS6_DpOS7_', symObjAddr: 0x15838, symBinAddr: 0x100023B64, symSize: 0x24 }
  - { offsetInCU: 0x2E74A, offset: 0x57278, size: 0x8, addend: 0x0, symName: '__ZNSt3__116forward_as_tupleB8ue170006IJZN5hf3fs17monitor_collector19MLWorkloadAnalytics4initEvE3$_2EEENS_5tupleIJDpOT_EEES8_', symObjAddr: 0x161BC, symBinAddr: 0x1000244E8, symSize: 0x2C }
  - { offsetInCU: 0x2E784, offset: 0x572B2, size: 0x8, addend: 0x0, symName: '__ZNSt3__116forward_as_tupleB8ue170006IJNS_9allocatorIZN5hf3fs17monitor_collector19MLWorkloadAnalytics4initEvE3$_2EEEEENS_5tupleIJDpOT_EEESA_', symObjAddr: 0x161E8, symBinAddr: 0x100024514, symSize: 0x2C }
  - { offsetInCU: 0x2E7E8, offset: 0x57316, size: 0x8, addend: 0x0, symName: '__ZNSt3__13getB8ue170006ILm0EJOZN5hf3fs17monitor_collector19MLWorkloadAnalytics4initEvE3$_2EEERNS_13tuple_elementIXT_ENS_5tupleIJDpT0_EEEE4typeERSA_', symObjAddr: 0x16500, symBinAddr: 0x10002482C, symSize: 0x24 }
  - { offsetInCU: 0x2E82B, offset: 0x57359, size: 0x8, addend: 0x0, symName: '__ZNSt3__13getB8ue170006ILm0EJONS_9allocatorIZN5hf3fs17monitor_collector19MLWorkloadAnalytics4initEvE3$_2EEEEERNS_13tuple_elementIXT_ENS_5tupleIJDpT0_EEEE4typeERSC_', symObjAddr: 0x1653C, symBinAddr: 0x100024868, symSize: 0x24 }
  - { offsetInCU: 0x2ED77, offset: 0x578A5, size: 0x8, addend: 0x0, symName: '__ZNSt3__116forward_as_tupleB8ue170006IJRKZN5hf3fs17monitor_collector19MLWorkloadAnalytics4initEvE3$_2EEENS_5tupleIJDpOT_EEESA_', symObjAddr: 0x16AD0, symBinAddr: 0x100024DFC, symSize: 0x2C }
  - { offsetInCU: 0x2EDC6, offset: 0x578F4, size: 0x8, addend: 0x0, symName: '__ZNSt3__13getB8ue170006ILm0EJRKZN5hf3fs17monitor_collector19MLWorkloadAnalytics4initEvE3$_2EEERNS_13tuple_elementIXT_ENS_5tupleIJDpT0_EEEE4typeERSB_', symObjAddr: 0x16CC0, symBinAddr: 0x100024FEC, symSize: 0x24 }
  - { offsetInCU: 0x2EE09, offset: 0x57937, size: 0x8, addend: 0x0, symName: '__ZNSt3__116forward_as_tupleB8ue170006IJRKNS_9allocatorIZN5hf3fs17monitor_collector19MLWorkloadAnalytics4initEvE3$_2EEEEENS_5tupleIJDpOT_EEESC_', symObjAddr: 0x1701C, symBinAddr: 0x100025348, symSize: 0x2C }
  - { offsetInCU: 0x2EE58, offset: 0x57986, size: 0x8, addend: 0x0, symName: '__ZNSt3__13getB8ue170006ILm0EJRKNS_9allocatorIZN5hf3fs17monitor_collector19MLWorkloadAnalytics4initEvE3$_2EEEEERNS_13tuple_elementIXT_ENS_5tupleIJDpT0_EEEE4typeERSD_', symObjAddr: 0x17200, symBinAddr: 0x10002552C, symSize: 0x24 }
  - { offsetInCU: 0x2EE9B, offset: 0x579C9, size: 0x8, addend: 0x0, symName: '__ZNSt3__18__invokeB8ue170006IRZN5hf3fs17monitor_collector19MLWorkloadAnalytics4initEvE3$_2JEEEDTclclsr3stdE7declvalIT_EEspclsr3stdE7declvalIT0_EEEEOS6_DpOS7_', symObjAddr: 0x172BC, symBinAddr: 0x1000255E8, symSize: 0x24 }
  - { offsetInCU: 0x2EED3, offset: 0x57A01, size: 0x8, addend: 0x0, symName: __ZNSt3__17launderB8ue170006IKNS_4pairIKyNS_6vectorIN5hf3fs17monitor_collector15OperationRecordENS_9allocatorIS6_EEEEEEEEPT_SD_, symObjAddr: 0x17BC4, symBinAddr: 0x100025E9C, symSize: 0x24 }
  - { offsetInCU: 0x2EF0B, offset: 0x57A39, size: 0x8, addend: 0x0, symName: __ZNSt3__19__launderB8ue170006IKNS_4pairIKyNS_6vectorIN5hf3fs17monitor_collector15OperationRecordENS_9allocatorIS6_EEEEEEEEPT_SD_, symObjAddr: 0x17BE8, symBinAddr: 0x100025EC0, symSize: 0x14 }
  - { offsetInCU: 0x2EF41, offset: 0x57A6F, size: 0x8, addend: 0x0, symName: __ZNSt3__119__allocate_at_leastB8ue170006INS_9allocatorIN5hf3fs17monitor_collector15OperationRecordEEEEENS_19__allocation_resultINS_16allocator_traitsIT_E7pointerEEERS8_m, symObjAddr: 0x18644, symBinAddr: 0x10002691C, symSize: 0x40 }
  - { offsetInCU: 0x2EF84, offset: 0x57AB2, size: 0x8, addend: 0x0, symName: __ZNSt3__142__uninitialized_allocator_move_if_noexceptB8ue170006INS_9allocatorIN5hf3fs17monitor_collector15OperationRecordEEENS_16reverse_iteratorIPS4_EES8_S8_EET2_RT_T0_T1_S9_, symObjAddr: 0x18818, symBinAddr: 0x100026AF0, symSize: 0x12C }
  - { offsetInCU: 0x2F025, offset: 0x57B53, size: 0x8, addend: 0x0, symName: __ZNSt3__14swapB8ue170006IPN5hf3fs17monitor_collector15OperationRecordEEENS_9enable_ifIXaasr21is_move_constructibleIT_EE5valuesr18is_move_assignableIS6_EE5valueEvE4typeERS6_S9_, symObjAddr: 0x18990, symBinAddr: 0x100026C68, symSize: 0x3C }
  - { offsetInCU: 0x2F076, offset: 0x57BA4, size: 0x8, addend: 0x0, symName: __ZNSt3__122__make_exception_guardB8ue170006INS_29_AllocatorDestroyRangeReverseINS_9allocatorIN5hf3fs17monitor_collector15OperationRecordEEENS_16reverse_iteratorIPS5_EEEEEENS_28__exception_guard_exceptionsIT_EESC_, symObjAddr: 0x18A94, symBinAddr: 0x100026D6C, symSize: 0x4C }
  - { offsetInCU: 0x2F0AC, offset: 0x57BDA, size: 0x8, addend: 0x0, symName: __ZNSt3__1neB8ue170006IPN5hf3fs17monitor_collector15OperationRecordES4_EEbRKNS_16reverse_iteratorIT_EERKNS5_IT0_EE, symObjAddr: 0x18B24, symBinAddr: 0x100026DFC, symSize: 0x48 }
  - { offsetInCU: 0x2F0F8, offset: 0x57C26, size: 0x8, addend: 0x0, symName: __ZNSt3__112__to_addressB8ue170006INS_16reverse_iteratorIPN5hf3fs17monitor_collector15OperationRecordEEEvEEu7__decayIDTclsr19__to_address_helperIT_EE6__callclsr3stdE7declvalIRKS7_EEEEES9_, symObjAddr: 0x18BA0, symBinAddr: 0x100026E78, symSize: 0x24 }
  - { offsetInCU: 0x2F158, offset: 0x57C86, size: 0x8, addend: 0x0, symName: __ZNSt3__119__allocator_destroyB8ue170006INS_9allocatorIN5hf3fs17monitor_collector15OperationRecordEEENS_16reverse_iteratorINS6_IPS4_EEEES9_EEvRT_T0_T1_, symObjAddr: 0x18F30, symBinAddr: 0x100027208, symSize: 0x70 }
  - { offsetInCU: 0x2F1BC, offset: 0x57CEA, size: 0x8, addend: 0x0, symName: __ZNSt3__1neB8ue170006INS_16reverse_iteratorIPN5hf3fs17monitor_collector15OperationRecordEEES6_EEbRKNS1_IT_EERKNS1_IT0_EE, symObjAddr: 0x18FDC, symBinAddr: 0x1000272B4, symSize: 0x60 }
  - { offsetInCU: 0x2F208, offset: 0x57D36, size: 0x8, addend: 0x0, symName: __ZNSt3__112__to_addressB8ue170006INS_16reverse_iteratorINS1_IPN5hf3fs17monitor_collector15OperationRecordEEEEEvEEu7__decayIDTclsr19__to_address_helperIT_EE6__callclsr3stdE7declvalIRKS8_EEEEESA_, symObjAddr: 0x1903C, symBinAddr: 0x100027314, symSize: 0x24 }
  - { offsetInCU: 0x2F267, offset: 0x57D95, size: 0x8, addend: 0x0, symName: __ZNSt3__1miB8ue170006IPKN5hf3fs17monitor_collector15OperationRecordEPS3_EEDTmicldtfp_4baseEcldtfp0_4baseEERKNS_11__wrap_iterIT_EERKNS8_IT0_EE, symObjAddr: 0x193A4, symBinAddr: 0x10002767C, symSize: 0x48 }
  - { offsetInCU: 0x2F2B3, offset: 0x57DE1, size: 0x8, addend: 0x0, symName: __ZNSt3__14moveB8ue170006IPN5hf3fs17monitor_collector15OperationRecordES4_EET0_T_S6_S5_, symObjAddr: 0x19438, symBinAddr: 0x100027710, symSize: 0x40 }
  - { offsetInCU: 0x2F30D, offset: 0x57E3B, size: 0x8, addend: 0x0, symName: __ZNSt3__1miB8ue170006IPKN5hf3fs17monitor_collector15OperationRecordES5_EEDTmicldtfp_4baseEcldtfp0_4baseEERKNS_11__wrap_iterIT_EERKNS7_IT0_EE, symObjAddr: 0x19478, symBinAddr: 0x100027750, symSize: 0x48 }
  - { offsetInCU: 0x2F359, offset: 0x57E87, size: 0x8, addend: 0x0, symName: __ZNSt3__16__moveB8ue170006INS_17_ClassicAlgPolicyEPN5hf3fs17monitor_collector15OperationRecordES5_S5_EENS_4pairIT0_T2_EES7_T1_S8_, symObjAddr: 0x19590, symBinAddr: 0x100027868, symSize: 0x44 }
  - { offsetInCU: 0x2F3C5, offset: 0x57EF3, size: 0x8, addend: 0x0, symName: __ZNSt3__123__dispatch_copy_or_moveB8ue170006INS_17_ClassicAlgPolicyENS_11__move_loopIS1_EENS_14__move_trivialEPN5hf3fs17monitor_collector15OperationRecordES8_S8_EENS_4pairIT2_T4_EESA_T3_SB_, symObjAddr: 0x195D4, symBinAddr: 0x1000278AC, symSize: 0x44 }
  - { offsetInCU: 0x2F443, offset: 0x57F71, size: 0x8, addend: 0x0, symName: __ZNSt3__121__unwrap_and_dispatchB8ue170006INS_10__overloadINS_11__move_loopINS_17_ClassicAlgPolicyEEENS_14__move_trivialEEEPN5hf3fs17monitor_collector15OperationRecordESA_SA_Li0EEENS_4pairIT0_T2_EESC_T1_SD_, symObjAddr: 0x19618, symBinAddr: 0x1000278F0, symSize: 0xB4 }
  - { offsetInCU: 0x2F4D1, offset: 0x57FFF, size: 0x8, addend: 0x0, symName: __ZNSt3__114__unwrap_rangeB8ue170006IPN5hf3fs17monitor_collector15OperationRecordES4_EENS_4pairIT0_S6_EET_S8_, symObjAddr: 0x196CC, symBinAddr: 0x1000279A4, symSize: 0x60 }
  - { offsetInCU: 0x2F700, offset: 0x5822E, size: 0x8, addend: 0x0, symName: __ZNSt3__113__unwrap_iterB8ue170006IPN5hf3fs17monitor_collector15OperationRecordENS_18__unwrap_iter_implIS4_Lb1EEELi0EEEDTclsrT0_8__unwrapclsr3stdE7declvalIT_EEEES8_, symObjAddr: 0x197BC, symBinAddr: 0x100027A94, symSize: 0x24 }
  - { offsetInCU: 0x2F744, offset: 0x58272, size: 0x8, addend: 0x0, symName: __ZNSt3__19make_pairB8ue170006IPN5hf3fs17monitor_collector15OperationRecordES4_EENS_4pairINS_18__unwrap_ref_decayIT_E4typeENS6_IT0_E4typeEEEOS7_OSA_, symObjAddr: 0x197E0, symBinAddr: 0x100027AB8, symSize: 0x38 }
  - { offsetInCU: 0x2F793, offset: 0x582C1, size: 0x8, addend: 0x0, symName: __ZNSt3__114__rewrap_rangeB8ue170006IPN5hf3fs17monitor_collector15OperationRecordES4_EET_S5_T0_, symObjAddr: 0x19818, symBinAddr: 0x100027AF0, symSize: 0x2C }
  - { offsetInCU: 0x2F7DF, offset: 0x5830D, size: 0x8, addend: 0x0, symName: __ZNSt3__113__rewrap_iterB8ue170006IPN5hf3fs17monitor_collector15OperationRecordES4_NS_18__unwrap_iter_implIS4_Lb1EEEEET_S7_T0_, symObjAddr: 0x19844, symBinAddr: 0x100027B1C, symSize: 0x3C }
  - { offsetInCU: 0x2FA59, offset: 0x58587, size: 0x8, addend: 0x0, symName: __ZNSt3__125__throw_bad_function_callB8ue170006Ev, symObjAddr: 0x19AE0, symBinAddr: 0x100027DB8, symSize: 0x38 }
  - { offsetInCU: 0x2FAA9, offset: 0x585D7, size: 0x8, addend: 0x0, symName: __ZNSt3__116forward_as_tupleB8ue170006IJRKyEEENS_5tupleIJDpOT_EEES6_, symObjAddr: 0x1A0E4, symBinAddr: 0x1000283BC, symSize: 0x2C }
  - { offsetInCU: 0x2FB00, offset: 0x5862E, size: 0x8, addend: 0x0, symName: __ZNSt3__13getB8ue170006ILm0EJRKyEEERNS_13tuple_elementIXT_ENS_5tupleIJDpT0_EEEE4typeERS7_, symObjAddr: 0x1A838, symBinAddr: 0x100028B10, symSize: 0x24 }
  - { offsetInCU: 0x2FCF9, offset: 0x58827, size: 0x8, addend: 0x0, symName: '__ZNSt3__116forward_as_tupleB8ue170006IJZN5hf3fs17monitor_collector19MLWorkloadAnalytics15recordOperationERKNS2_15OperationRecordEE3$_4EEENS_5tupleIJDpOT_EEESB_', symObjAddr: 0x1BBDC, symBinAddr: 0x100029EB4, symSize: 0x2C }
  - { offsetInCU: 0x2FD33, offset: 0x58861, size: 0x8, addend: 0x0, symName: '__ZNSt3__116forward_as_tupleB8ue170006IJNS_9allocatorIZN5hf3fs17monitor_collector19MLWorkloadAnalytics15recordOperationERKNS3_15OperationRecordEE3$_4EEEEENS_5tupleIJDpOT_EEESD_', symObjAddr: 0x1BC08, symBinAddr: 0x100029EE0, symSize: 0x2C }
  - { offsetInCU: 0x2FD97, offset: 0x588C5, size: 0x8, addend: 0x0, symName: '__ZNSt3__13getB8ue170006ILm0EJOZN5hf3fs17monitor_collector19MLWorkloadAnalytics15recordOperationERKNS2_15OperationRecordEE3$_4EEERNS_13tuple_elementIXT_ENS_5tupleIJDpT0_EEEE4typeERSD_', symObjAddr: 0x1BF20, symBinAddr: 0x10002A1F8, symSize: 0x24 }
  - { offsetInCU: 0x2FDDA, offset: 0x58908, size: 0x8, addend: 0x0, symName: '__ZNSt3__13getB8ue170006ILm0EJONS_9allocatorIZN5hf3fs17monitor_collector19MLWorkloadAnalytics15recordOperationERKNS3_15OperationRecordEE3$_4EEEEERNS_13tuple_elementIXT_ENS_5tupleIJDpT0_EEEE4typeERSF_', symObjAddr: 0x1BF5C, symBinAddr: 0x10002A234, symSize: 0x24 }
  - { offsetInCU: 0x30326, offset: 0x58E54, size: 0x8, addend: 0x0, symName: '__ZNSt3__116forward_as_tupleB8ue170006IJRKZN5hf3fs17monitor_collector19MLWorkloadAnalytics15recordOperationERKNS2_15OperationRecordEE3$_4EEENS_5tupleIJDpOT_EEESD_', symObjAddr: 0x1C4F0, symBinAddr: 0x10002A7C8, symSize: 0x2C }
  - { offsetInCU: 0x30375, offset: 0x58EA3, size: 0x8, addend: 0x0, symName: '__ZNSt3__13getB8ue170006ILm0EJRKZN5hf3fs17monitor_collector19MLWorkloadAnalytics15recordOperationERKNS2_15OperationRecordEE3$_4EEERNS_13tuple_elementIXT_ENS_5tupleIJDpT0_EEEE4typeERSE_', symObjAddr: 0x1C6E0, symBinAddr: 0x10002A9B8, symSize: 0x24 }
  - { offsetInCU: 0x303B8, offset: 0x58EE6, size: 0x8, addend: 0x0, symName: '__ZNSt3__116forward_as_tupleB8ue170006IJRKNS_9allocatorIZN5hf3fs17monitor_collector19MLWorkloadAnalytics15recordOperationERKNS3_15OperationRecordEE3$_4EEEEENS_5tupleIJDpOT_EEESF_', symObjAddr: 0x1CA3C, symBinAddr: 0x10002AD14, symSize: 0x2C }
  - { offsetInCU: 0x30407, offset: 0x58F35, size: 0x8, addend: 0x0, symName: '__ZNSt3__13getB8ue170006ILm0EJRKNS_9allocatorIZN5hf3fs17monitor_collector19MLWorkloadAnalytics15recordOperationERKNS3_15OperationRecordEE3$_4EEEEERNS_13tuple_elementIXT_ENS_5tupleIJDpT0_EEEE4typeERSG_', symObjAddr: 0x1CC20, symBinAddr: 0x10002AEF8, symSize: 0x24 }
  - { offsetInCU: 0x30486, offset: 0x58FB4, size: 0x8, addend: 0x0, symName: '__ZNSt3__18__invokeB8ue170006IRZN5hf3fs17monitor_collector19MLWorkloadAnalytics15recordOperationERKNS2_15OperationRecordEE3$_4JEEEDTclclsr3stdE7declvalIT_EEspclsr3stdE7declvalIT0_EEEEOS9_DpOSA_', symObjAddr: 0x1CCF0, symBinAddr: 0x10002AFC8, symSize: 0x2C }
  - { offsetInCU: 0x304C2, offset: 0x58FF0, size: 0x8, addend: 0x0, symName: __ZNSt3__111make_sharedB8ue170006IN5hf3fs17monitor_collector13WorkloadStatsEJEvEENS_10shared_ptrIT_EEDpOT0_, symObjAddr: 0x1DDE8, symBinAddr: 0x10002B9A4, symSize: 0x38 }
  - { offsetInCU: 0x304F0, offset: 0x5901E, size: 0x8, addend: 0x0, symName: __ZNSt3__14findB8ue170006INS_11__wrap_iterIPNS_12basic_stringIcNS_11char_traitsIcEENS_9allocatorIcEEEEEES7_EET_SA_SA_RKT0_, symObjAddr: 0x1DF88, symBinAddr: 0x10002BB44, symSize: 0x78 }
  - { offsetInCU: 0x30558, offset: 0x59086, size: 0x8, addend: 0x0, symName: __ZNSt3__115allocate_sharedB8ue170006IN5hf3fs17monitor_collector13WorkloadStatsENS_9allocatorIS3_EEJEvEENS_10shared_ptrIT_EERKT0_DpOT1_, symObjAddr: 0x1E184, symBinAddr: 0x10002BD28, symSize: 0x90 }
  - { offsetInCU: 0x308BC, offset: 0x593EA, size: 0x8, addend: 0x0, symName: __ZNSt3__112__to_addressB8ue170006INS_12basic_stringIcNS_11char_traitsIcEENS_9allocatorIcEEEEEEPT_S8_, symObjAddr: 0x1F574, symBinAddr: 0x10002D118, symSize: 0x14 }
  - { offsetInCU: 0x30924, offset: 0x59452, size: 0x8, addend: 0x0, symName: __ZNSt3__17launderB8ue170006INS_4pairIKNS_12basic_stringIcNS_11char_traitsIcEENS_9allocatorIcEEEEyEEEEPT_SB_, symObjAddr: 0x1FA00, symBinAddr: 0x10002D590, symSize: 0x24 }
  - { offsetInCU: 0x3095C, offset: 0x5948A, size: 0x8, addend: 0x0, symName: __ZNSt3__19__launderB8ue170006INS_4pairIKNS_12basic_stringIcNS_11char_traitsIcEENS_9allocatorIcEEEEyEEEEPT_SB_, symObjAddr: 0x1FA24, symBinAddr: 0x10002D5B4, symSize: 0x14 }
  - { offsetInCU: 0x309C5, offset: 0x594F3, size: 0x8, addend: 0x0, symName: __ZNSt3__18distanceB8ue170006IPKcEENS_15iterator_traitsIT_E15difference_typeES4_S4_, symObjAddr: 0x203A4, symBinAddr: 0x10002DEEC, symSize: 0x2C }
  - { offsetInCU: 0x30A09, offset: 0x59537, size: 0x8, addend: 0x0, symName: __ZNSt3__110__distanceB8ue170006IPKcEENS_15iterator_traitsIT_E15difference_typeES4_S4_NS_26random_access_iterator_tagE, symObjAddr: 0x20548, symBinAddr: 0x10002E090, symSize: 0x20 }
  - { offsetInCU: 0x30A57, offset: 0x59585, size: 0x8, addend: 0x0, symName: __ZNSt3__121__is_pointer_in_rangeB8ue170006IccLi0EEEbPKT_S3_PKT0_, symObjAddr: 0x20568, symBinAddr: 0x10002E0B0, symSize: 0x68 }
  - { offsetInCU: 0x30AB7, offset: 0x595E5, size: 0x8, addend: 0x0, symName: __ZNSt3__119__allocate_at_leastB8ue170006INS_9allocatorIcEEEENS_19__allocation_resultINS_16allocator_traitsIT_E7pointerEEERS5_m, symObjAddr: 0x209A0, symBinAddr: 0x10002E334, symSize: 0x40 }
  - { offsetInCU: 0x30AFA, offset: 0x59628, size: 0x8, addend: 0x0, symName: __ZNSt3__17launderB8ue170006IKNS_4pairIKNS_12basic_stringIcNS_11char_traitsIcEENS_9allocatorIcEEEEyEEEEPT_SC_, symObjAddr: 0x218A8, symBinAddr: 0x10002EFD8, symSize: 0x24 }
  - { offsetInCU: 0x30B32, offset: 0x59660, size: 0x8, addend: 0x0, symName: __ZNSt3__19__launderB8ue170006IKNS_4pairIKNS_12basic_stringIcNS_11char_traitsIcEENS_9allocatorIcEEEEyEEEEPT_SC_, symObjAddr: 0x218CC, symBinAddr: 0x10002EFFC, symSize: 0x14 }
  - { offsetInCU: 0x30BB9, offset: 0x596E7, size: 0x8, addend: 0x0, symName: __ZNSt3__113__rewrap_iterB8ue170006INS_11__wrap_iterIPNS_12basic_stringIcNS_11char_traitsIcEENS_9allocatorIcEEEEEES8_NS_18__unwrap_iter_implIS9_Lb1EEEEET_SC_T0_, symObjAddr: 0x22504, symBinAddr: 0x10002FC34, symSize: 0x4C }
  - { offsetInCU: 0x30C0E, offset: 0x5973C, size: 0x8, addend: 0x0, symName: __ZNSt3__111__find_implB8ue170006IPNS_12basic_stringIcNS_11char_traitsIcEENS_9allocatorIcEEEES7_S6_NS_10__identityEEET_S9_T0_RKT1_RT2_, symObjAddr: 0x22550, symBinAddr: 0x10002FC80, symSize: 0x7C }
  - { offsetInCU: 0x30C88, offset: 0x597B6, size: 0x8, addend: 0x0, symName: __ZNSt3__113__unwrap_iterB8ue170006INS_11__wrap_iterIPNS_12basic_stringIcNS_11char_traitsIcEENS_9allocatorIcEEEEEENS_18__unwrap_iter_implIS9_Lb1EEELi0EEEDTclsrT0_8__unwrapclsr3stdE7declvalIT_EEEESD_, symObjAddr: 0x225CC, symBinAddr: 0x10002FCFC, symSize: 0x2C }
  - { offsetInCU: 0x30D1F, offset: 0x5984D, size: 0x8, addend: 0x0, symName: __ZNSt3__112__to_addressB8ue170006INS_11__wrap_iterIPNS_12basic_stringIcNS_11char_traitsIcEENS_9allocatorIcEEEEEEvEEu7__decayIDTclsr19__to_address_helperIT_EE6__callclsr3stdE7declvalIRKSA_EEEEESC_, symObjAddr: 0x22690, symBinAddr: 0x10002FDC0, symSize: 0x24 }
  - { offsetInCU: 0x30DFA, offset: 0x59928, size: 0x8, addend: 0x0, symName: __ZNSt3__18__invokeB8ue170006IRNS_10__identityEJRNS_12basic_stringIcNS_11char_traitsIcEENS_9allocatorIcEEEEEEEDTclclsr3stdE7declvalIT_EEspclsr3stdE7declvalIT0_EEEEOSA_DpOSB_, symObjAddr: 0x22740, symBinAddr: 0x10002FE70, symSize: 0x2C }
  - { offsetInCU: 0x30E78, offset: 0x599A6, size: 0x8, addend: 0x0, symName: __ZNSt3__1miB8ue170006IPKNS_12basic_stringIcNS_11char_traitsIcEENS_9allocatorIcEEEES8_EEDTmicldtfp_4baseEcldtfp0_4baseEERKNS_11__wrap_iterIT_EERKNSA_IT0_EE, symObjAddr: 0x227AC, symBinAddr: 0x10002FEDC, symSize: 0x48 }
  - { offsetInCU: 0x30EC4, offset: 0x599F2, size: 0x8, addend: 0x0, symName: __ZNSt3__14moveB8ue170006IPNS_12basic_stringIcNS_11char_traitsIcEENS_9allocatorIcEEEES7_EET0_T_S9_S8_, symObjAddr: 0x2286C, symBinAddr: 0x10002FF9C, symSize: 0x40 }
  - { offsetInCU: 0x30F1E, offset: 0x59A4C, size: 0x8, addend: 0x0, symName: __ZNSt3__16__moveB8ue170006INS_17_ClassicAlgPolicyEPNS_12basic_stringIcNS_11char_traitsIcEENS_9allocatorIcEEEES8_S8_EENS_4pairIT0_T2_EESA_T1_SB_, symObjAddr: 0x22A48, symBinAddr: 0x100030178, symSize: 0x44 }
  - { offsetInCU: 0x30F8A, offset: 0x59AB8, size: 0x8, addend: 0x0, symName: __ZNSt3__123__dispatch_copy_or_moveB8ue170006INS_17_ClassicAlgPolicyENS_11__move_loopIS1_EENS_14__move_trivialEPNS_12basic_stringIcNS_11char_traitsIcEENS_9allocatorIcEEEESB_SB_EENS_4pairIT2_T4_EESD_T3_SE_, symObjAddr: 0x22A8C, symBinAddr: 0x1000301BC, symSize: 0x44 }
  - { offsetInCU: 0x31008, offset: 0x59B36, size: 0x8, addend: 0x0, symName: __ZNSt3__121__unwrap_and_dispatchB8ue170006INS_10__overloadINS_11__move_loopINS_17_ClassicAlgPolicyEEENS_14__move_trivialEEEPNS_12basic_stringIcNS_11char_traitsIcEENS_9allocatorIcEEEESD_SD_Li0EEENS_4pairIT0_T2_EESF_T1_SG_, symObjAddr: 0x22AD0, symBinAddr: 0x100030200, symSize: 0xB4 }
  - { offsetInCU: 0x31096, offset: 0x59BC4, size: 0x8, addend: 0x0, symName: __ZNSt3__114__unwrap_rangeB8ue170006IPNS_12basic_stringIcNS_11char_traitsIcEENS_9allocatorIcEEEES7_EENS_4pairIT0_S9_EET_SB_, symObjAddr: 0x22B84, symBinAddr: 0x1000302B4, symSize: 0x60 }
  - { offsetInCU: 0x311B6, offset: 0x59CE4, size: 0x8, addend: 0x0, symName: __ZNSt3__113__unwrap_iterB8ue170006IPNS_12basic_stringIcNS_11char_traitsIcEENS_9allocatorIcEEEENS_18__unwrap_iter_implIS7_Lb1EEELi0EEEDTclsrT0_8__unwrapclsr3stdE7declvalIT_EEEESB_, symObjAddr: 0x22C74, symBinAddr: 0x1000303A4, symSize: 0x24 }
  - { offsetInCU: 0x311FA, offset: 0x59D28, size: 0x8, addend: 0x0, symName: __ZNSt3__19make_pairB8ue170006IPNS_12basic_stringIcNS_11char_traitsIcEENS_9allocatorIcEEEES7_EENS_4pairINS_18__unwrap_ref_decayIT_E4typeENS9_IT0_E4typeEEEOSA_OSD_, symObjAddr: 0x22C98, symBinAddr: 0x1000303C8, symSize: 0x38 }
  - { offsetInCU: 0x31249, offset: 0x59D77, size: 0x8, addend: 0x0, symName: __ZNSt3__114__rewrap_rangeB8ue170006IPNS_12basic_stringIcNS_11char_traitsIcEENS_9allocatorIcEEEES7_EET_S8_T0_, symObjAddr: 0x22CD0, symBinAddr: 0x100030400, symSize: 0x2C }
  - { offsetInCU: 0x31295, offset: 0x59DC3, size: 0x8, addend: 0x0, symName: __ZNSt3__113__rewrap_iterB8ue170006IPNS_12basic_stringIcNS_11char_traitsIcEENS_9allocatorIcEEEES7_NS_18__unwrap_iter_implIS7_Lb1EEEEET_SA_T0_, symObjAddr: 0x22CFC, symBinAddr: 0x10003042C, symSize: 0x3C }
  - { offsetInCU: 0x31361, offset: 0x59E8F, size: 0x8, addend: 0x0, symName: __ZNSt3__119__allocate_at_leastB8ue170006INS_9allocatorINS_12basic_stringIcNS_11char_traitsIcEENS1_IcEEEEEEEENS_19__allocation_resultINS_16allocator_traitsIT_E7pointerEEERSA_m, symObjAddr: 0x235F8, symBinAddr: 0x100030D14, symSize: 0x40 }
  - { offsetInCU: 0x313A4, offset: 0x59ED2, size: 0x8, addend: 0x0, symName: __ZNSt3__142__uninitialized_allocator_move_if_noexceptB8ue170006INS_9allocatorINS_12basic_stringIcNS_11char_traitsIcEENS1_IcEEEEEENS_16reverse_iteratorIPS6_EESA_SA_EET2_RT_T0_T1_SB_, symObjAddr: 0x237B0, symBinAddr: 0x100030ECC, symSize: 0x12C }
  - { offsetInCU: 0x31445, offset: 0x59F73, size: 0x8, addend: 0x0, symName: __ZNSt3__14swapB8ue170006IPNS_12basic_stringIcNS_11char_traitsIcEENS_9allocatorIcEEEEEENS_9enable_ifIXaasr21is_move_constructibleIT_EE5valuesr18is_move_assignableIS9_EE5valueEvE4typeERS9_SC_, symObjAddr: 0x23928, symBinAddr: 0x100031044, symSize: 0x3C }
  - { offsetInCU: 0x31496, offset: 0x59FC4, size: 0x8, addend: 0x0, symName: __ZNSt3__122__make_exception_guardB8ue170006INS_29_AllocatorDestroyRangeReverseINS_9allocatorINS_12basic_stringIcNS_11char_traitsIcEENS2_IcEEEEEENS_16reverse_iteratorIPS7_EEEEEENS_28__exception_guard_exceptionsIT_EESE_, symObjAddr: 0x23A2C, symBinAddr: 0x100031148, symSize: 0x4C }
  - { offsetInCU: 0x314CC, offset: 0x59FFA, size: 0x8, addend: 0x0, symName: __ZNSt3__1neB8ue170006IPNS_12basic_stringIcNS_11char_traitsIcEENS_9allocatorIcEEEES7_EEbRKNS_16reverse_iteratorIT_EERKNS8_IT0_EE, symObjAddr: 0x23ABC, symBinAddr: 0x1000311D8, symSize: 0x48 }
  - { offsetInCU: 0x31518, offset: 0x5A046, size: 0x8, addend: 0x0, symName: __ZNSt3__112__to_addressB8ue170006INS_16reverse_iteratorIPNS_12basic_stringIcNS_11char_traitsIcEENS_9allocatorIcEEEEEEvEEu7__decayIDTclsr19__to_address_helperIT_EE6__callclsr3stdE7declvalIRKSA_EEEEESC_, symObjAddr: 0x23B38, symBinAddr: 0x100031254, symSize: 0x24 }
  - { offsetInCU: 0x31578, offset: 0x5A0A6, size: 0x8, addend: 0x0, symName: __ZNSt3__119__allocator_destroyB8ue170006INS_9allocatorINS_12basic_stringIcNS_11char_traitsIcEENS1_IcEEEEEENS_16reverse_iteratorINS8_IPS6_EEEESB_EEvRT_T0_T1_, symObjAddr: 0x23E18, symBinAddr: 0x100031534, symSize: 0x70 }
  - { offsetInCU: 0x315DC, offset: 0x5A10A, size: 0x8, addend: 0x0, symName: __ZNSt3__1neB8ue170006INS_16reverse_iteratorIPNS_12basic_stringIcNS_11char_traitsIcEENS_9allocatorIcEEEEEES9_EEbRKNS1_IT_EERKNS1_IT0_EE, symObjAddr: 0x23EC4, symBinAddr: 0x1000315E0, symSize: 0x60 }
  - { offsetInCU: 0x31628, offset: 0x5A156, size: 0x8, addend: 0x0, symName: __ZNSt3__112__to_addressB8ue170006INS_16reverse_iteratorINS1_IPNS_12basic_stringIcNS_11char_traitsIcEENS_9allocatorIcEEEEEEEEvEEu7__decayIDTclsr19__to_address_helperIT_EE6__callclsr3stdE7declvalIRKSB_EEEEESD_, symObjAddr: 0x23F24, symBinAddr: 0x100031640, symSize: 0x24 }
  - { offsetInCU: 0x31688, offset: 0x5A1B6, size: 0x8, addend: 0x0, symName: __ZNSt3__14swapB8ue170006IPN5hf3fs17monitor_collector13WorkloadStatsEEENS_9enable_ifIXaasr21is_move_constructibleIT_EE5valuesr18is_move_assignableIS6_EE5valueEvE4typeERS6_S9_, symObjAddr: 0x2577C, symBinAddr: 0x100032210, symSize: 0x3C }
  - { offsetInCU: 0x316DA, offset: 0x5A208, size: 0x8, addend: 0x0, symName: __ZNSt3__14swapB8ue170006IPNS_19__shared_weak_countEEENS_9enable_ifIXaasr21is_move_constructibleIT_EE5valuesr18is_move_assignableIS4_EE5valueEvE4typeERS4_S7_, symObjAddr: 0x257B8, symBinAddr: 0x10003224C, symSize: 0x3C }
  - { offsetInCU: 0x31899, offset: 0x5A3C7, size: 0x8, addend: 0x0, symName: '__ZNSt3__116forward_as_tupleB8ue170006IJZN5hf3fs17monitor_collector19MLWorkloadAnalytics15recordOperationERKNS2_15OperationRecordEE3$_6EEENS_5tupleIJDpOT_EEESB_', symObjAddr: 0x25F3C, symBinAddr: 0x1000329D0, symSize: 0x2C }
  - { offsetInCU: 0x318D3, offset: 0x5A401, size: 0x8, addend: 0x0, symName: '__ZNSt3__116forward_as_tupleB8ue170006IJNS_9allocatorIZN5hf3fs17monitor_collector19MLWorkloadAnalytics15recordOperationERKNS3_15OperationRecordEE3$_6EEEEENS_5tupleIJDpOT_EEESD_', symObjAddr: 0x25F68, symBinAddr: 0x1000329FC, symSize: 0x2C }
  - { offsetInCU: 0x31937, offset: 0x5A465, size: 0x8, addend: 0x0, symName: '__ZNSt3__13getB8ue170006ILm0EJOZN5hf3fs17monitor_collector19MLWorkloadAnalytics15recordOperationERKNS2_15OperationRecordEE3$_6EEERNS_13tuple_elementIXT_ENS_5tupleIJDpT0_EEEE4typeERSD_', symObjAddr: 0x26280, symBinAddr: 0x100032D14, symSize: 0x24 }
  - { offsetInCU: 0x3197A, offset: 0x5A4A8, size: 0x8, addend: 0x0, symName: '__ZNSt3__13getB8ue170006ILm0EJONS_9allocatorIZN5hf3fs17monitor_collector19MLWorkloadAnalytics15recordOperationERKNS3_15OperationRecordEE3$_6EEEEERNS_13tuple_elementIXT_ENS_5tupleIJDpT0_EEEE4typeERSF_', symObjAddr: 0x262BC, symBinAddr: 0x100032D50, symSize: 0x24 }
  - { offsetInCU: 0x31EC6, offset: 0x5A9F4, size: 0x8, addend: 0x0, symName: '__ZNSt3__116forward_as_tupleB8ue170006IJRKZN5hf3fs17monitor_collector19MLWorkloadAnalytics15recordOperationERKNS2_15OperationRecordEE3$_6EEENS_5tupleIJDpOT_EEESD_', symObjAddr: 0x26858, symBinAddr: 0x1000332EC, symSize: 0x2C }
  - { offsetInCU: 0x31F15, offset: 0x5AA43, size: 0x8, addend: 0x0, symName: '__ZNSt3__13getB8ue170006ILm0EJRKZN5hf3fs17monitor_collector19MLWorkloadAnalytics15recordOperationERKNS2_15OperationRecordEE3$_6EEERNS_13tuple_elementIXT_ENS_5tupleIJDpT0_EEEE4typeERSE_', symObjAddr: 0x26A48, symBinAddr: 0x1000334DC, symSize: 0x24 }
  - { offsetInCU: 0x31F58, offset: 0x5AA86, size: 0x8, addend: 0x0, symName: '__ZNSt3__116forward_as_tupleB8ue170006IJRKNS_9allocatorIZN5hf3fs17monitor_collector19MLWorkloadAnalytics15recordOperationERKNS3_15OperationRecordEE3$_6EEEEENS_5tupleIJDpOT_EEESF_', symObjAddr: 0x26DA8, symBinAddr: 0x10003383C, symSize: 0x2C }
  - { offsetInCU: 0x31FA7, offset: 0x5AAD5, size: 0x8, addend: 0x0, symName: '__ZNSt3__13getB8ue170006ILm0EJRKNS_9allocatorIZN5hf3fs17monitor_collector19MLWorkloadAnalytics15recordOperationERKNS3_15OperationRecordEE3$_6EEEEERNS_13tuple_elementIXT_ENS_5tupleIJDpT0_EEEE4typeERSG_', symObjAddr: 0x26F8C, symBinAddr: 0x100033A20, symSize: 0x24 }
  - { offsetInCU: 0x32026, offset: 0x5AB54, size: 0x8, addend: 0x0, symName: '__ZNSt3__18__invokeB8ue170006IRZN5hf3fs17monitor_collector19MLWorkloadAnalytics15recordOperationERKNS2_15OperationRecordEE3$_6JEEEDTclclsr3stdE7declvalIT_EEspclsr3stdE7declvalIT0_EEEEOS9_DpOSA_', symObjAddr: 0x2705C, symBinAddr: 0x100033AF0, symSize: 0x2C }
  - { offsetInCU: 0x32096, offset: 0x5ABC4, size: 0x8, addend: 0x0, symName: __ZNSt3__134__libcpp_atomic_refcount_incrementB8ue170006IlEET_RS1_, symObjAddr: 0x27560, symBinAddr: 0x100033FC4, symSize: 0x30 }
  - { offsetInCU: 0x320E9, offset: 0x5AC17, size: 0x8, addend: 0x0, symName: __ZNSt3__1neB8ue170006ERKNS_25__hash_map_const_iteratorINS_21__hash_const_iteratorIPNS_11__hash_nodeINS_17__hash_value_typeIyNS_10shared_ptrIN5hf3fs17monitor_collector13WorkloadStatsEEEEEPvEEEEEESG_, symObjAddr: 0x27E08, symBinAddr: 0x10003486C, symSize: 0x30 }
  - { offsetInCU: 0x32126, offset: 0x5AC54, size: 0x8, addend: 0x0, symName: __ZNSt3__1neB8ue170006ERKNS_21__hash_const_iteratorIPNS_11__hash_nodeINS_17__hash_value_typeIyNS_10shared_ptrIN5hf3fs17monitor_collector13WorkloadStatsEEEEEPvEEEESE_, symObjAddr: 0x27EDC, symBinAddr: 0x100034940, symSize: 0x34 }
  - { offsetInCU: 0x32164, offset: 0x5AC92, size: 0x8, addend: 0x0, symName: __ZNSt3__1eqB8ue170006ERKNS_21__hash_const_iteratorIPNS_11__hash_nodeINS_17__hash_value_typeIyNS_10shared_ptrIN5hf3fs17monitor_collector13WorkloadStatsEEEEEPvEEEESE_, symObjAddr: 0x27F10, symBinAddr: 0x100034974, symSize: 0x30 }
  - { offsetInCU: 0x321D3, offset: 0x5AD01, size: 0x8, addend: 0x0, symName: __ZNSt3__119__allocate_at_leastB8ue170006INS_9allocatorINS_10shared_ptrIN5hf3fs17monitor_collector13WorkloadStatsEEEEEEENS_19__allocation_resultINS_16allocator_traitsIT_E7pointerEEERSA_m, symObjAddr: 0x28F90, symBinAddr: 0x1000359F4, symSize: 0x40 }
  - { offsetInCU: 0x32216, offset: 0x5AD44, size: 0x8, addend: 0x0, symName: __ZNSt3__142__uninitialized_allocator_move_if_noexceptB8ue170006INS_9allocatorINS_10shared_ptrIN5hf3fs17monitor_collector13WorkloadStatsEEEEENS_16reverse_iteratorIPS6_EESA_SA_EET2_RT_T0_T1_SB_, symObjAddr: 0x29144, symBinAddr: 0x100035BA8, symSize: 0x12C }
  - { offsetInCU: 0x322B7, offset: 0x5ADE5, size: 0x8, addend: 0x0, symName: __ZNSt3__14swapB8ue170006IPNS_10shared_ptrIN5hf3fs17monitor_collector13WorkloadStatsEEEEENS_9enable_ifIXaasr21is_move_constructibleIT_EE5valuesr18is_move_assignableIS8_EE5valueEvE4typeERS8_SB_, symObjAddr: 0x292BC, symBinAddr: 0x100035D20, symSize: 0x3C }
  - { offsetInCU: 0x32308, offset: 0x5AE36, size: 0x8, addend: 0x0, symName: __ZNSt3__122__make_exception_guardB8ue170006INS_29_AllocatorDestroyRangeReverseINS_9allocatorINS_10shared_ptrIN5hf3fs17monitor_collector13WorkloadStatsEEEEENS_16reverse_iteratorIPS7_EEEEEENS_28__exception_guard_exceptionsIT_EESE_, symObjAddr: 0x293A4, symBinAddr: 0x100035E08, symSize: 0x4C }
  - { offsetInCU: 0x3233E, offset: 0x5AE6C, size: 0x8, addend: 0x0, symName: __ZNSt3__1neB8ue170006IPNS_10shared_ptrIN5hf3fs17monitor_collector13WorkloadStatsEEES6_EEbRKNS_16reverse_iteratorIT_EERKNS7_IT0_EE, symObjAddr: 0x29434, symBinAddr: 0x100035E98, symSize: 0x48 }
  - { offsetInCU: 0x3238A, offset: 0x5AEB8, size: 0x8, addend: 0x0, symName: __ZNSt3__112__to_addressB8ue170006INS_16reverse_iteratorIPNS_10shared_ptrIN5hf3fs17monitor_collector13WorkloadStatsEEEEEvEEu7__decayIDTclsr19__to_address_helperIT_EE6__callclsr3stdE7declvalIRKS9_EEEEESB_, symObjAddr: 0x294B0, symBinAddr: 0x100035F14, symSize: 0x24 }
  - { offsetInCU: 0x323EA, offset: 0x5AF18, size: 0x8, addend: 0x0, symName: __ZNSt3__119__allocator_destroyB8ue170006INS_9allocatorINS_10shared_ptrIN5hf3fs17monitor_collector13WorkloadStatsEEEEENS_16reverse_iteratorINS8_IPS6_EEEESB_EEvRT_T0_T1_, symObjAddr: 0x29790, symBinAddr: 0x1000361F4, symSize: 0x70 }
  - { offsetInCU: 0x3244E, offset: 0x5AF7C, size: 0x8, addend: 0x0, symName: __ZNSt3__1neB8ue170006INS_16reverse_iteratorIPNS_10shared_ptrIN5hf3fs17monitor_collector13WorkloadStatsEEEEES8_EEbRKNS1_IT_EERKNS1_IT0_EE, symObjAddr: 0x2983C, symBinAddr: 0x1000362A0, symSize: 0x60 }
  - { offsetInCU: 0x3249A, offset: 0x5AFC8, size: 0x8, addend: 0x0, symName: __ZNSt3__112__to_addressB8ue170006INS_16reverse_iteratorINS1_IPNS_10shared_ptrIN5hf3fs17monitor_collector13WorkloadStatsEEEEEEEvEEu7__decayIDTclsr19__to_address_helperIT_EE6__callclsr3stdE7declvalIRKSA_EEEEESC_, symObjAddr: 0x2989C, symBinAddr: 0x100036300, symSize: 0x24 }
  - { offsetInCU: 0x324F9, offset: 0x5B027, size: 0x8, addend: 0x0, symName: __ZNSt3__1neB8ue170006ERKNS_15__hash_iteratorIPNS_11__hash_nodeINS_17__hash_value_typeINS_12basic_stringIcNS_11char_traitsIcEENS_9allocatorIcEEEEyEEPvEEEESF_, symObjAddr: 0x29D48, symBinAddr: 0x100036778, symSize: 0x34 }
  - { offsetInCU: 0x32537, offset: 0x5B065, size: 0x8, addend: 0x0, symName: __ZNSt3__1eqB8ue170006ERKNS_15__hash_iteratorIPNS_11__hash_nodeINS_17__hash_value_typeINS_12basic_stringIcNS_11char_traitsIcEENS_9allocatorIcEEEEyEEPvEEEESF_, symObjAddr: 0x29D7C, symBinAddr: 0x1000367AC, symSize: 0x30 }
  - { offsetInCU: 0x32573, offset: 0x5B0A1, size: 0x8, addend: 0x0, symName: __ZNSt3__1neB8ue170006ERKNS_15__hash_iteratorIPNS_11__hash_nodeINS_17__hash_value_typeIyNS_6vectorIN5hf3fs17monitor_collector15OperationRecordENS_9allocatorIS6_EEEEEEPvEEEESG_, symObjAddr: 0x29DCC, symBinAddr: 0x1000367FC, symSize: 0x34 }
  - { offsetInCU: 0x325B1, offset: 0x5B0DF, size: 0x8, addend: 0x0, symName: __ZNSt3__1eqB8ue170006ERKNS_15__hash_iteratorIPNS_11__hash_nodeINS_17__hash_value_typeIyNS_6vectorIN5hf3fs17monitor_collector15OperationRecordENS_9allocatorIS6_EEEEEEPvEEEESG_, symObjAddr: 0x29E00, symBinAddr: 0x100036830, symSize: 0x30 }
  - { offsetInCU: 0x32621, offset: 0x5B14F, size: 0x8, addend: 0x0, symName: __ZNSt3__112__to_addressB8ue170006IyEEPT_S2_, symObjAddr: 0x2A2F0, symBinAddr: 0x100036D20, symSize: 0x14 }
  - { offsetInCU: 0x32656, offset: 0x5B184, size: 0x8, addend: 0x0, symName: __ZNSt3__119__allocate_at_leastB8ue170006INS_9allocatorIyEEEENS_19__allocation_resultINS_16allocator_traitsIT_E7pointerEEERS5_m, symObjAddr: 0x2AB80, symBinAddr: 0x1000375B0, symSize: 0x40 }
  - { offsetInCU: 0x32699, offset: 0x5B1C7, size: 0x8, addend: 0x0, symName: __ZNSt3__142__uninitialized_allocator_move_if_noexceptB8ue170006INS_9allocatorIyEENS_16reverse_iteratorIPyEES5_yvEET1_RT_T0_S9_S6_, symObjAddr: 0x2AD34, symBinAddr: 0x100037764, symSize: 0x78 }
  - { offsetInCU: 0x32717, offset: 0x5B245, size: 0x8, addend: 0x0, symName: __ZNSt3__14swapB8ue170006IPyEENS_9enable_ifIXaasr21is_move_constructibleIT_EE5valuesr18is_move_assignableIS3_EE5valueEvE4typeERS3_S6_, symObjAddr: 0x2ADF8, symBinAddr: 0x100037828, symSize: 0x3C }
  - { offsetInCU: 0x32768, offset: 0x5B296, size: 0x8, addend: 0x0, symName: __ZNSt3__14moveB8ue170006INS_16reverse_iteratorIPyEES3_EET0_T_S5_S4_, symObjAddr: 0x2AEE0, symBinAddr: 0x100037910, symSize: 0x78 }
  - { offsetInCU: 0x327C2, offset: 0x5B2F0, size: 0x8, addend: 0x0, symName: __ZNSt3__16__moveB8ue170006INS_17_ClassicAlgPolicyENS_16reverse_iteratorIPyEES4_S4_EENS_4pairIT0_T2_EES6_T1_S7_, symObjAddr: 0x2AF58, symBinAddr: 0x100037988, symSize: 0x64 }
  - { offsetInCU: 0x3282E, offset: 0x5B35C, size: 0x8, addend: 0x0, symName: __ZNSt3__123__dispatch_copy_or_moveB8ue170006INS_17_ClassicAlgPolicyENS_11__move_loopIS1_EENS_14__move_trivialENS_16reverse_iteratorIPyEES7_S7_EENS_4pairIT2_T4_EES9_T3_SA_, symObjAddr: 0x2AFBC, symBinAddr: 0x1000379EC, symSize: 0x64 }
  - { offsetInCU: 0x328AC, offset: 0x5B3DA, size: 0x8, addend: 0x0, symName: __ZNSt3__121__unwrap_and_dispatchB8ue170006INS_10__overloadINS_11__move_loopINS_17_ClassicAlgPolicyEEENS_14__move_trivialEEENS_16reverse_iteratorIPyEES9_S9_Li0EEENS_4pairIT0_T2_EESB_T1_SC_, symObjAddr: 0x2B020, symBinAddr: 0x100037A50, symSize: 0x12C }
  - { offsetInCU: 0x3293C, offset: 0x5B46A, size: 0x8, addend: 0x0, symName: __ZNSt3__114__unwrap_rangeB8ue170006INS_16reverse_iteratorIPyEES3_EENS_4pairIT0_S5_EET_S7_, symObjAddr: 0x2B14C, symBinAddr: 0x100037B7C, symSize: 0x84 }
  - { offsetInCU: 0x32A5C, offset: 0x5B58A, size: 0x8, addend: 0x0, symName: __ZNSt3__113__unwrap_iterB8ue170006INS_16reverse_iteratorIPyEENS_18__unwrap_iter_implIS3_Lb0EEELi0EEEDTclsrT0_8__unwrapclsr3stdE7declvalIT_EEEES7_, symObjAddr: 0x2B270, symBinAddr: 0x100037CA0, symSize: 0x44 }
  - { offsetInCU: 0x32AA0, offset: 0x5B5CE, size: 0x8, addend: 0x0, symName: __ZNSt3__19make_pairB8ue170006INS_16reverse_iteratorIPyEES3_EENS_4pairINS_18__unwrap_ref_decayIT_E4typeENS5_IT0_E4typeEEEOS6_OS9_, symObjAddr: 0x2B2B4, symBinAddr: 0x100037CE4, symSize: 0x38 }
  - { offsetInCU: 0x32AEF, offset: 0x5B61D, size: 0x8, addend: 0x0, symName: __ZNSt3__114__rewrap_rangeB8ue170006INS_16reverse_iteratorIPyEES3_EET_S4_T0_, symObjAddr: 0x2B2EC, symBinAddr: 0x100037D1C, symSize: 0x5C }
  - { offsetInCU: 0x32B3B, offset: 0x5B669, size: 0x8, addend: 0x0, symName: __ZNSt3__113__rewrap_iterB8ue170006INS_16reverse_iteratorIPyEES3_NS_18__unwrap_iter_implIS3_Lb0EEEEET_S6_T0_, symObjAddr: 0x2B348, symBinAddr: 0x100037D78, symSize: 0x74 }
  - { offsetInCU: 0x32B90, offset: 0x5B6BE, size: 0x8, addend: 0x0, symName: __ZNSt3__1neB8ue170006IPyS1_EEbRKNS_16reverse_iteratorIT_EERKNS2_IT0_EE, symObjAddr: 0x2B3BC, symBinAddr: 0x100037DEC, symSize: 0x48 }
  - { offsetInCU: 0x32C49, offset: 0x5B777, size: 0x8, addend: 0x0, symName: __ZNSt3__112__to_addressB8ue170006INS_4pairIyyEEEEPT_S4_, symObjAddr: 0x2BE40, symBinAddr: 0x100038870, symSize: 0x14 }
  - { offsetInCU: 0x32C7E, offset: 0x5B7AC, size: 0x8, addend: 0x0, symName: __ZNSt3__119__allocate_at_leastB8ue170006INS_9allocatorINS_4pairIyyEEEEEENS_19__allocation_resultINS_16allocator_traitsIT_E7pointerEEERS7_m, symObjAddr: 0x2C784, symBinAddr: 0x1000391B4, symSize: 0x40 }
  - { offsetInCU: 0x32CC1, offset: 0x5B7EF, size: 0x8, addend: 0x0, symName: __ZNSt3__142__uninitialized_allocator_move_if_noexceptB8ue170006INS_9allocatorINS_4pairIyyEEEENS_16reverse_iteratorIPS3_EES7_S7_EET2_RT_T0_T1_S8_, symObjAddr: 0x2C938, symBinAddr: 0x100039368, symSize: 0x12C }
  - { offsetInCU: 0x32D62, offset: 0x5B890, size: 0x8, addend: 0x0, symName: __ZNSt3__14swapB8ue170006IPNS_4pairIyyEEEENS_9enable_ifIXaasr21is_move_constructibleIT_EE5valuesr18is_move_assignableIS5_EE5valueEvE4typeERS5_S8_, symObjAddr: 0x2CAB0, symBinAddr: 0x1000394E0, symSize: 0x3C }
  - { offsetInCU: 0x32DB3, offset: 0x5B8E1, size: 0x8, addend: 0x0, symName: __ZNSt3__122__make_exception_guardB8ue170006INS_29_AllocatorDestroyRangeReverseINS_9allocatorINS_4pairIyyEEEENS_16reverse_iteratorIPS4_EEEEEENS_28__exception_guard_exceptionsIT_EESB_, symObjAddr: 0x2CB98, symBinAddr: 0x1000395C8, symSize: 0x4C }
  - { offsetInCU: 0x32DE9, offset: 0x5B917, size: 0x8, addend: 0x0, symName: __ZNSt3__1neB8ue170006IPNS_4pairIyyEES3_EEbRKNS_16reverse_iteratorIT_EERKNS4_IT0_EE, symObjAddr: 0x2CC28, symBinAddr: 0x100039658, symSize: 0x48 }
  - { offsetInCU: 0x32E35, offset: 0x5B963, size: 0x8, addend: 0x0, symName: __ZNSt3__112__to_addressB8ue170006INS_16reverse_iteratorIPNS_4pairIyyEEEEvEEu7__decayIDTclsr19__to_address_helperIT_EE6__callclsr3stdE7declvalIRKS6_EEEEES8_, symObjAddr: 0x2CCA4, symBinAddr: 0x1000396D4, symSize: 0x24 }
  - { offsetInCU: 0x32E95, offset: 0x5B9C3, size: 0x8, addend: 0x0, symName: __ZNSt3__119__allocator_destroyB8ue170006INS_9allocatorINS_4pairIyyEEEENS_16reverse_iteratorINS5_IPS3_EEEES8_EEvRT_T0_T1_, symObjAddr: 0x2CF7C, symBinAddr: 0x1000399AC, symSize: 0x70 }
  - { offsetInCU: 0x32EF9, offset: 0x5BA27, size: 0x8, addend: 0x0, symName: __ZNSt3__1neB8ue170006INS_16reverse_iteratorIPNS_4pairIyyEEEES5_EEbRKNS1_IT_EERKNS1_IT0_EE, symObjAddr: 0x2D028, symBinAddr: 0x100039A58, symSize: 0x60 }
  - { offsetInCU: 0x32F45, offset: 0x5BA73, size: 0x8, addend: 0x0, symName: __ZNSt3__112__to_addressB8ue170006INS_16reverse_iteratorINS1_IPNS_4pairIyyEEEEEEvEEu7__decayIDTclsr19__to_address_helperIT_EE6__callclsr3stdE7declvalIRKS7_EEEEES9_, symObjAddr: 0x2D088, symBinAddr: 0x100039AB8, symSize: 0x24 }
  - { offsetInCU: 0x32FA4, offset: 0x5BAD2, size: 0x8, addend: 0x0, symName: __ZNSt3__115allocate_sharedB8ue170006IN5hf3fs17monitor_collector13WorkloadStatsENS_9allocatorIS3_EEJRS3_EvEENS_10shared_ptrIT_EERKT0_DpOT1_, symObjAddr: 0x2D3F0, symBinAddr: 0x100039E20, symSize: 0x98 }
  - { offsetInCU: 0x3303B, offset: 0x5BB69, size: 0x8, addend: 0x0, symName: __ZNSt3__1neB8ue170006ERKNS_25__hash_map_const_iteratorINS_21__hash_const_iteratorIPNS_11__hash_nodeINS_17__hash_value_typeINS_12basic_stringIcNS_11char_traitsIcEENS_9allocatorIcEEEEyEEPvEEEEEESH_, symObjAddr: 0x2DF64, symBinAddr: 0x10003A994, symSize: 0x30 }
  - { offsetInCU: 0x33078, offset: 0x5BBA6, size: 0x8, addend: 0x0, symName: __ZNSt3__1neB8ue170006ERKNS_21__hash_const_iteratorIPNS_11__hash_nodeINS_17__hash_value_typeINS_12basic_stringIcNS_11char_traitsIcEENS_9allocatorIcEEEEyEEPvEEEESF_, symObjAddr: 0x2E038, symBinAddr: 0x10003AA68, symSize: 0x34 }
  - { offsetInCU: 0x330B6, offset: 0x5BBE4, size: 0x8, addend: 0x0, symName: __ZNSt3__1eqB8ue170006ERKNS_21__hash_const_iteratorIPNS_11__hash_nodeINS_17__hash_value_typeINS_12basic_stringIcNS_11char_traitsIcEENS_9allocatorIcEEEEyEEPvEEEESF_, symObjAddr: 0x2E06C, symBinAddr: 0x10003AA9C, symSize: 0x30 }
  - { offsetInCU: 0x33125, offset: 0x5BC53, size: 0x8, addend: 0x0, symName: __ZNSt3__122__make_exception_guardB8ue170006INS_6vectorINS_12basic_stringIcNS_11char_traitsIcEENS_9allocatorIcEEEENS5_IS7_EEE16__destroy_vectorEEENS_28__exception_guard_exceptionsIT_EESC_, symObjAddr: 0x2EB04, symBinAddr: 0x10003B534, symSize: 0x40 }
  - { offsetInCU: 0x3315A, offset: 0x5BC88, size: 0x8, addend: 0x0, symName: __ZNSt3__130__uninitialized_allocator_copyB8ue170006INS_9allocatorINS_12basic_stringIcNS_11char_traitsIcEENS1_IcEEEEEEPS6_S8_S8_EET2_RT_T0_T1_S9_, symObjAddr: 0x2ED24, symBinAddr: 0x10003B754, symSize: 0x80 }
  - { offsetInCU: 0x331F7, offset: 0x5BD25, size: 0x8, addend: 0x0, symName: __ZNSt3__135__uninitialized_allocator_copy_implB8ue170006INS_9allocatorINS_12basic_stringIcNS_11char_traitsIcEENS1_IcEEEEEEPS6_S8_S8_EET2_RT_T0_T1_S9_, symObjAddr: 0x2EDA4, symBinAddr: 0x10003B7D4, symSize: 0xF4 }
  - { offsetInCU: 0x33295, offset: 0x5BDC3, size: 0x8, addend: 0x0, symName: __ZNSt3__122__make_exception_guardB8ue170006INS_29_AllocatorDestroyRangeReverseINS_9allocatorINS_12basic_stringIcNS_11char_traitsIcEENS2_IcEEEEEEPS7_EEEENS_28__exception_guard_exceptionsIT_EESC_, symObjAddr: 0x2EE98, symBinAddr: 0x10003B8C8, symSize: 0x4C }
  - { offsetInCU: 0x332CC, offset: 0x5BDFA, size: 0x8, addend: 0x0, symName: __ZNSt3__119__allocator_destroyB8ue170006INS_9allocatorINS_12basic_stringIcNS_11char_traitsIcEENS1_IcEEEEEENS_16reverse_iteratorIPS6_EESA_EEvRT_T0_T1_, symObjAddr: 0x2F128, symBinAddr: 0x10003BB58, symSize: 0x70 }
  - { offsetInCU: 0x3332F, offset: 0x5BE5D, size: 0x8, addend: 0x0, symName: '__ZNSt3__17find_ifB8ue170006INS_11__wrap_iterIPNS_10shared_ptrIN5hf3fs17monitor_collector13WorkloadStatsEEEEERZNS4_19MLWorkloadAnalytics14generateReportEvE3$_7EET_SC_SC_T0_', symObjAddr: 0x2F1E0, symBinAddr: 0x10003BC10, symSize: 0x80 }
  - { offsetInCU: 0x33389, offset: 0x5BEB7, size: 0x8, addend: 0x0, symName: __ZNSt3__1miB8ue170006IPKNS_10shared_ptrIN5hf3fs17monitor_collector13WorkloadStatsEEEPS5_EEDTmicldtfp_4baseEcldtfp0_4baseEERKNS_11__wrap_iterIT_EERKNSA_IT0_EE, symObjAddr: 0x2F2A8, symBinAddr: 0x10003BCD8, symSize: 0x48 }
  - { offsetInCU: 0x333D5, offset: 0x5BF03, size: 0x8, addend: 0x0, symName: __ZNSt3__1neB8ue170006IPKNS_10shared_ptrIN5hf3fs17monitor_collector13WorkloadStatsEEEEEbRKNS_11__wrap_iterIT_EESC_, symObjAddr: 0x2F2F0, symBinAddr: 0x10003BD20, symSize: 0x34 }
  - { offsetInCU: 0x33418, offset: 0x5BF46, size: 0x8, addend: 0x0, symName: __ZNSt3__14moveB8ue170006IPNS_10shared_ptrIN5hf3fs17monitor_collector13WorkloadStatsEEES6_EET0_T_S8_S7_, symObjAddr: 0x2F370, symBinAddr: 0x10003BDA0, symSize: 0x40 }
  - { offsetInCU: 0x33472, offset: 0x5BFA0, size: 0x8, addend: 0x0, symName: __ZNSt3__1miB8ue170006IPKNS_10shared_ptrIN5hf3fs17monitor_collector13WorkloadStatsEEES7_EEDTmicldtfp_4baseEcldtfp0_4baseEERKNS_11__wrap_iterIT_EERKNS9_IT0_EE, symObjAddr: 0x2F3B0, symBinAddr: 0x10003BDE0, symSize: 0x48 }
  - { offsetInCU: 0x334BE, offset: 0x5BFEC, size: 0x8, addend: 0x0, symName: __ZNSt3__1eqB8ue170006IPKNS_10shared_ptrIN5hf3fs17monitor_collector13WorkloadStatsEEEEEbRKNS_11__wrap_iterIT_EESC_, symObjAddr: 0x2F410, symBinAddr: 0x10003BE40, symSize: 0x48 }
  - { offsetInCU: 0x33501, offset: 0x5C02F, size: 0x8, addend: 0x0, symName: __ZNSt3__16__moveB8ue170006INS_17_ClassicAlgPolicyEPNS_10shared_ptrIN5hf3fs17monitor_collector13WorkloadStatsEEES7_S7_EENS_4pairIT0_T2_EES9_T1_SA_, symObjAddr: 0x2F50C, symBinAddr: 0x10003BF3C, symSize: 0x44 }
  - { offsetInCU: 0x3356D, offset: 0x5C09B, size: 0x8, addend: 0x0, symName: __ZNSt3__123__dispatch_copy_or_moveB8ue170006INS_17_ClassicAlgPolicyENS_11__move_loopIS1_EENS_14__move_trivialEPNS_10shared_ptrIN5hf3fs17monitor_collector13WorkloadStatsEEESA_SA_EENS_4pairIT2_T4_EESC_T3_SD_, symObjAddr: 0x2F550, symBinAddr: 0x10003BF80, symSize: 0x44 }
  - { offsetInCU: 0x335EB, offset: 0x5C119, size: 0x8, addend: 0x0, symName: __ZNSt3__121__unwrap_and_dispatchB8ue170006INS_10__overloadINS_11__move_loopINS_17_ClassicAlgPolicyEEENS_14__move_trivialEEEPNS_10shared_ptrIN5hf3fs17monitor_collector13WorkloadStatsEEESC_SC_Li0EEENS_4pairIT0_T2_EESE_T1_SF_, symObjAddr: 0x2F594, symBinAddr: 0x10003BFC4, symSize: 0xB4 }
  - { offsetInCU: 0x33679, offset: 0x5C1A7, size: 0x8, addend: 0x0, symName: __ZNSt3__114__unwrap_rangeB8ue170006IPNS_10shared_ptrIN5hf3fs17monitor_collector13WorkloadStatsEEES6_EENS_4pairIT0_S8_EET_SA_, symObjAddr: 0x2F648, symBinAddr: 0x10003C078, symSize: 0x60 }
  - { offsetInCU: 0x33799, offset: 0x5C2C7, size: 0x8, addend: 0x0, symName: __ZNSt3__113__unwrap_iterB8ue170006IPNS_10shared_ptrIN5hf3fs17monitor_collector13WorkloadStatsEEENS_18__unwrap_iter_implIS6_Lb1EEELi0EEEDTclsrT0_8__unwrapclsr3stdE7declvalIT_EEEESA_, symObjAddr: 0x2F738, symBinAddr: 0x10003C168, symSize: 0x24 }
  - { offsetInCU: 0x337DD, offset: 0x5C30B, size: 0x8, addend: 0x0, symName: __ZNSt3__19make_pairB8ue170006IPNS_10shared_ptrIN5hf3fs17monitor_collector13WorkloadStatsEEES6_EENS_4pairINS_18__unwrap_ref_decayIT_E4typeENS8_IT0_E4typeEEEOS9_OSC_, symObjAddr: 0x2F75C, symBinAddr: 0x10003C18C, symSize: 0x38 }
  - { offsetInCU: 0x3382C, offset: 0x5C35A, size: 0x8, addend: 0x0, symName: __ZNSt3__114__rewrap_rangeB8ue170006IPNS_10shared_ptrIN5hf3fs17monitor_collector13WorkloadStatsEEES6_EET_S7_T0_, symObjAddr: 0x2F794, symBinAddr: 0x10003C1C4, symSize: 0x2C }
  - { offsetInCU: 0x33878, offset: 0x5C3A6, size: 0x8, addend: 0x0, symName: __ZNSt3__113__rewrap_iterB8ue170006IPNS_10shared_ptrIN5hf3fs17monitor_collector13WorkloadStatsEEES6_NS_18__unwrap_iter_implIS6_Lb1EEEEET_S9_T0_, symObjAddr: 0x2F7C0, symBinAddr: 0x10003C1F0, symSize: 0x3C }
  - { offsetInCU: 0x33944, offset: 0x5C472, size: 0x8, addend: 0x0, symName: __ZNSt3__110__str_findB8ue170006IcmNS_11char_traitsIcEELm18446744073709551615EEET0_PKT_S3_S6_S3_S3_, symObjAddr: 0x2F980, symBinAddr: 0x10003C33C, symSize: 0xE4 }
  - { offsetInCU: 0x339EB, offset: 0x5C519, size: 0x8, addend: 0x0, symName: __ZNSt3__118__search_substringB8ue170006IcNS_11char_traitsIcEEEEPKT_S5_S5_S5_S5_, symObjAddr: 0x2FA64, symBinAddr: 0x10003C420, symSize: 0x154 }
  - { offsetInCU: 0x33A85, offset: 0x5C5B3, size: 0x8, addend: 0x0, symName: __ZNSt3__118__constexpr_memchrB8ue170006IKccEEPT_S3_T0_m, symObjAddr: 0x2FC28, symBinAddr: 0x10003C5E4, symSize: 0x40 }
  - { offsetInCU: 0x33AFD, offset: 0x5C62B, size: 0x8, addend: 0x0, symName: '__ZNSt3__111__sort_implB8ue170006INS_17_ClassicAlgPolicyENS_11__wrap_iterIPNS_4pairIyyEEEEZN5hf3fs17monitor_collector19MLWorkloadAnalytics20cleanupIdleWorkloadsEvE3$_8EEvT0_SB_RT1_', symObjAddr: 0x30744, symBinAddr: 0x10003D100, symSize: 0xA8 }
  - { offsetInCU: 0x33B61, offset: 0x5C68F, size: 0x8, addend: 0x0, symName: __ZNSt3__123__debug_randomize_rangeB8ue170006INS_17_ClassicAlgPolicyENS_11__wrap_iterIPNS_4pairIyyEEEES6_EEvT0_T1_, symObjAddr: 0x307EC, symBinAddr: 0x10003D1A8, symSize: 0x14 }
  - { offsetInCU: 0x33BB3, offset: 0x5C6E1, size: 0x8, addend: 0x0, symName: '__ZNSt3__115__sort_dispatchB8ue170006INS_17_ClassicAlgPolicyEPNS_4pairIyyEEZN5hf3fs17monitor_collector19MLWorkloadAnalytics20cleanupIdleWorkloadsEvE3$_8EEvT0_S9_RT1_', symObjAddr: 0x30800, symBinAddr: 0x10003D1BC, symSize: 0x64 }
  - { offsetInCU: 0x33C31, offset: 0x5C75F, size: 0x8, addend: 0x0, symName: __ZNSt3__113__unwrap_iterB8ue170006INS_11__wrap_iterIPNS_4pairIyyEEEENS_18__unwrap_iter_implIS5_Lb1EEELi0EEEDTclsrT0_8__unwrapclsr3stdE7declvalIT_EEEES9_, symObjAddr: 0x30864, symBinAddr: 0x10003D220, symSize: 0x2C }
  - { offsetInCU: 0x33C76, offset: 0x5C7A4, size: 0x8, addend: 0x0, symName: '__ZNSt3__135__check_strict_weak_ordering_sortedB8ue170006IPNS_4pairIyyEEZN5hf3fs17monitor_collector19MLWorkloadAnalytics20cleanupIdleWorkloadsEvE3$_8EEvT_S8_RT0_', symObjAddr: 0x30890, symBinAddr: 0x10003D24C, symSize: 0x18 }
  - { offsetInCU: 0x33CCC, offset: 0x5C7FA, size: 0x8, addend: 0x0, symName: __ZNSt3__17__log2iB8ue170006IlEET_S1_, symObjAddr: 0x308A8, symBinAddr: 0x10003D264, symSize: 0x54 }
  - { offsetInCU: 0x33D04, offset: 0x5C832, size: 0x8, addend: 0x0, symName: '__ZNSt3__124__sort3_maybe_branchlessB8ue170006INS_17_ClassicAlgPolicyERZN5hf3fs17monitor_collector19MLWorkloadAnalytics20cleanupIdleWorkloadsEvE3$_8PNS_4pairIyyEEEENS_9enable_ifIXntsr21__use_branchless_sortIT0_T1_EE5valueEvE4typeESC_SC_SC_SB_', symObjAddr: 0x30DB0, symBinAddr: 0x10003D76C, symSize: 0x3C }
  - { offsetInCU: 0x33D76, offset: 0x5C8A4, size: 0x8, addend: 0x0, symName: '__ZNSt3__124__sort4_maybe_branchlessB8ue170006INS_17_ClassicAlgPolicyERZN5hf3fs17monitor_collector19MLWorkloadAnalytics20cleanupIdleWorkloadsEvE3$_8PNS_4pairIyyEEEENS_9enable_ifIXntsr21__use_branchless_sortIT0_T1_EE5valueEvE4typeESC_SC_SC_SC_SB_', symObjAddr: 0x30DEC, symBinAddr: 0x10003D7A8, symSize: 0x44 }
  - { offsetInCU: 0x33DF6, offset: 0x5C924, size: 0x8, addend: 0x0, symName: '__ZNSt3__124__sort5_maybe_branchlessB8ue170006INS_17_ClassicAlgPolicyERZN5hf3fs17monitor_collector19MLWorkloadAnalytics20cleanupIdleWorkloadsEvE3$_8PNS_4pairIyyEEEENS_9enable_ifIXntsr21__use_branchless_sortIT0_T1_EE5valueEvE4typeESC_SC_SC_SC_SC_SB_', symObjAddr: 0x30E30, symBinAddr: 0x10003D7EC, symSize: 0x4C }
  - { offsetInCU: 0x33E84, offset: 0x5C9B2, size: 0x8, addend: 0x0, symName: '__ZNSt3__116__insertion_sortB8ue170006INS_17_ClassicAlgPolicyERZN5hf3fs17monitor_collector19MLWorkloadAnalytics20cleanupIdleWorkloadsEvE3$_8PNS_4pairIyyEEEEvT1_SA_T0_', symObjAddr: 0x30E7C, symBinAddr: 0x10003D838, symSize: 0x150 }
  - { offsetInCU: 0x33F4A, offset: 0x5CA78, size: 0x8, addend: 0x0, symName: '__ZNSt3__114__partial_sortB8ue170006INS_17_ClassicAlgPolicyERZN5hf3fs17monitor_collector19MLWorkloadAnalytics20cleanupIdleWorkloadsEvE3$_8PNS_4pairIyyEES9_EET1_SA_SA_T2_RT0_', symObjAddr: 0x310EC, symBinAddr: 0x10003DAA8, symSize: 0x94 }
  - { offsetInCU: 0x33FD3, offset: 0x5CB01, size: 0x8, addend: 0x0, symName: '__ZNSt3__17__sort3B8ue170006INS_17_ClassicAlgPolicyERZN5hf3fs17monitor_collector19MLWorkloadAnalytics20cleanupIdleWorkloadsEvE3$_8PNS_4pairIyyEEEEjT1_SA_SA_T0_', symObjAddr: 0x31180, symBinAddr: 0x10003DB3C, symSize: 0x144 }
  - { offsetInCU: 0x34053, offset: 0x5CB81, size: 0x8, addend: 0x0, symName: __ZNSt3__19iter_swapB8ue170006IPNS_4pairIyyEES3_EEvT_T0_, symObjAddr: 0x31D70, symBinAddr: 0x10003E72C, symSize: 0x2C }
  - { offsetInCU: 0x3409B, offset: 0x5CBC9, size: 0x8, addend: 0x0, symName: __ZNSt3__14swapB8ue170006IyyEENS_9enable_ifIXaasr14__is_swappableIT_EE5valuesr14__is_swappableIT0_EE5valueEvE4typeERNS_4pairIS2_S3_EES8_, symObjAddr: 0x31D9C, symBinAddr: 0x10003E758, symSize: 0x2C }
  - { offsetInCU: 0x340EB, offset: 0x5CC19, size: 0x8, addend: 0x0, symName: __ZNSt3__14swapB8ue170006IyEENS_9enable_ifIXaasr21is_move_constructibleIT_EE5valuesr18is_move_assignableIS2_EE5valueEvE4typeERS2_S5_, symObjAddr: 0x31E0C, symBinAddr: 0x10003E7C8, symSize: 0x3C }
  - { offsetInCU: 0x3413D, offset: 0x5CC6B, size: 0x8, addend: 0x0, symName: '__ZNSt3__17__sort4B8ue170006INS_17_ClassicAlgPolicyERZN5hf3fs17monitor_collector19MLWorkloadAnalytics20cleanupIdleWorkloadsEvE3$_8PNS_4pairIyyEEEEvT1_SA_SA_SA_T0_', symObjAddr: 0x31E48, symBinAddr: 0x10003E804, symSize: 0xB8 }
  - { offsetInCU: 0x341B9, offset: 0x5CCE7, size: 0x8, addend: 0x0, symName: '__ZNSt3__17__sort5B8ue170006INS_17_ClassicAlgPolicyERZN5hf3fs17monitor_collector19MLWorkloadAnalytics20cleanupIdleWorkloadsEvE3$_8PNS_4pairIyyEEEEvT1_SA_SA_SA_SA_T0_', symObjAddr: 0x31F00, symBinAddr: 0x10003E8BC, symSize: 0xE8 }
  - { offsetInCU: 0x34267, offset: 0x5CD95, size: 0x8, addend: 0x0, symName: __ZNSt3__123__debug_randomize_rangeB8ue170006INS_17_ClassicAlgPolicyEPNS_4pairIyyEES4_EEvT0_T1_, symObjAddr: 0x3205C, symBinAddr: 0x10003EA18, symSize: 0x14 }
  - { offsetInCU: 0x342B9, offset: 0x5CDE7, size: 0x8, addend: 0x0, symName: '__ZNSt3__119__partial_sort_implB8ue170006INS_17_ClassicAlgPolicyERZN5hf3fs17monitor_collector19MLWorkloadAnalytics20cleanupIdleWorkloadsEvE3$_8PNS_4pairIyyEES9_EET1_SA_SA_T2_OT0_', symObjAddr: 0x32070, symBinAddr: 0x10003EA2C, symSize: 0x110 }
  - { offsetInCU: 0x34350, offset: 0x5CE7E, size: 0x8, addend: 0x0, symName: '__ZNSt3__111__make_heapB8ue170006INS_17_ClassicAlgPolicyERZN5hf3fs17monitor_collector19MLWorkloadAnalytics20cleanupIdleWorkloadsEvE3$_8PNS_4pairIyyEEEEvT1_SA_OT0_', symObjAddr: 0x32180, symBinAddr: 0x10003EB3C, symSize: 0xB8 }
  - { offsetInCU: 0x343F4, offset: 0x5CF22, size: 0x8, addend: 0x0, symName: '__ZNSt3__111__sort_heapB8ue170006INS_17_ClassicAlgPolicyERZN5hf3fs17monitor_collector19MLWorkloadAnalytics20cleanupIdleWorkloadsEvE3$_8PNS_4pairIyyEEEEvT1_SA_OT0_', symObjAddr: 0x32444, symBinAddr: 0x10003EE00, symSize: 0xA8 }
  - { offsetInCU: 0x34498, offset: 0x5CFC6, size: 0x8, addend: 0x0, symName: '__ZNSt3__110__pop_heapB8ue170006INS_17_ClassicAlgPolicyEZN5hf3fs17monitor_collector19MLWorkloadAnalytics20cleanupIdleWorkloadsEvE3$_8PNS_4pairIyyEEEEvT1_S9_RT0_NS_15iterator_traitsIS9_E15difference_typeE', symObjAddr: 0x324EC, symBinAddr: 0x10003EEA8, symSize: 0xF4 }
  - { offsetInCU: 0x3454A, offset: 0x5D078, size: 0x8, addend: 0x0, symName: '__ZNSt3__19__sift_upB8ue170006INS_17_ClassicAlgPolicyERZN5hf3fs17monitor_collector19MLWorkloadAnalytics20cleanupIdleWorkloadsEvE3$_8PNS_4pairIyyEEEEvT1_SA_OT0_NS_15iterator_traitsISA_E15difference_typeE', symObjAddr: 0x326E0, symBinAddr: 0x10003F09C, symSize: 0x11C }
  - { offsetInCU: 0x345FD, offset: 0x5D12B, size: 0x8, addend: 0x0, symName: '__ZNSt3__122__populate_left_bitsetB8ue170006IRZN5hf3fs17monitor_collector19MLWorkloadAnalytics20cleanupIdleWorkloadsEvE3$_8PNS_4pairIyyEES7_EEvT0_T_RT1_Ry', symObjAddr: 0x327FC, symBinAddr: 0x10003F1B8, symSize: 0xA8 }
  - { offsetInCU: 0x346BB, offset: 0x5D1E9, size: 0x8, addend: 0x0, symName: '__ZNSt3__123__populate_right_bitsetB8ue170006IRZN5hf3fs17monitor_collector19MLWorkloadAnalytics20cleanupIdleWorkloadsEvE3$_8PNS_4pairIyyEES7_EEvT0_T_RT1_Ry', symObjAddr: 0x328A4, symBinAddr: 0x10003F260, symSize: 0xA0 }
  - { offsetInCU: 0x34779, offset: 0x5D2A7, size: 0x8, addend: 0x0, symName: __ZNSt3__117__swap_bitmap_posB8ue170006INS_17_ClassicAlgPolicyEPNS_4pairIyyEEEEvT0_S5_RyS6_, symObjAddr: 0x32944, symBinAddr: 0x10003F300, symSize: 0x100 }
  - { offsetInCU: 0x3481B, offset: 0x5D349, size: 0x8, addend: 0x0, symName: '__ZNSt3__133__bitset_partition_partial_blocksB8ue170006INS_17_ClassicAlgPolicyERZN5hf3fs17monitor_collector19MLWorkloadAnalytics20cleanupIdleWorkloadsEvE3$_8PNS_4pairIyyEES8_EEvRT1_SB_T0_RT2_RySF_', symObjAddr: 0x32A44, symBinAddr: 0x10003F400, symSize: 0x2E8 }
  - { offsetInCU: 0x349A2, offset: 0x5D4D0, size: 0x8, addend: 0x0, symName: __ZNSt3__19make_pairB8ue170006IRPNS_4pairIyyEERbEENS1_INS_18__unwrap_ref_decayIT_E4typeENS6_IT0_E4typeEEEOS7_OSA_, symObjAddr: 0x32F0C, symBinAddr: 0x10003F8C8, symSize: 0x38 }
  - { offsetInCU: 0x349F2, offset: 0x5D520, size: 0x8, addend: 0x0, symName: __ZNSt3__112__libcpp_ctzB8ue170006Ey, symObjAddr: 0x32F44, symBinAddr: 0x10003F900, symSize: 0x20 }
  - { offsetInCU: 0x34A1F, offset: 0x5D54D, size: 0x8, addend: 0x0, symName: __ZNSt3__113__libcpp_blsrB8ue170006Ey, symObjAddr: 0x32F64, symBinAddr: 0x10003F920, symSize: 0x2C }
  - { offsetInCU: 0x34A4C, offset: 0x5D57A, size: 0x8, addend: 0x0, symName: __ZNSt3__112__libcpp_clzB8ue170006Ey, symObjAddr: 0x32FC4, symBinAddr: 0x10003F980, symSize: 0x1C }
  - { offsetInCU: 0x34B9F, offset: 0x5D6CD, size: 0x8, addend: 0x0, symName: __ZNSt3__112__to_addressB8ue170006INS_11__wrap_iterIPNS_4pairIyyEEEEvEEu7__decayIDTclsr19__to_address_helperIT_EE6__callclsr3stdE7declvalIRKS6_EEEEES8_, symObjAddr: 0x3307C, symBinAddr: 0x10003FA38, symSize: 0x24 }
  - { offsetInCU: 0x3657C, offset: 0x5F0AA, size: 0x8, addend: 0x0, symName: __ZN5hf3fs17monitor_collector12_GLOBAL__N_116getCurrentTimeMsEv, symObjAddr: 0x107C, symBinAddr: 0x1000118A4, symSize: 0x4C }
  - { offsetInCU: 0x3659A, offset: 0x5F0C8, size: 0x8, addend: 0x0, symName: __ZN5hf3fs17monitor_collector12_GLOBAL__N_120workloadTypeToStringENS0_12WorkloadTypeE, symObjAddr: 0x272C, symBinAddr: 0x100012EA4, symSize: 0xD4 }
  - { offsetInCU: 0x365C7, offset: 0x5F0F5, size: 0x8, addend: 0x0, symName: __ZN5hf3fs17monitor_collector12_GLOBAL__N_121frameworkTypeToStringENS0_13FrameworkTypeE, symObjAddr: 0x2818, symBinAddr: 0x100012F90, symSize: 0xD4 }
  - { offsetInCU: 0x365F4, offset: 0x5F122, size: 0x8, addend: 0x0, symName: __ZN5hf3fs17monitor_collector12_GLOBAL__N_116getFileExtensionERKNSt3__112basic_stringIcNS2_11char_traitsIcEENS2_9allocatorIcEEEE, symObjAddr: 0x1DE64, symBinAddr: 0x10002BA20, symSize: 0xA4 }
  - { offsetInCU: 0x367F7, offset: 0x5F325, size: 0x8, addend: 0x0, symName: __ZN5hf3fs7successEv, symObjAddr: 0xA90, symBinAddr: 0x1000112B8, symSize: 0x28 }
  - { offsetInCU: 0x36FDA, offset: 0x5FB08, size: 0x8, addend: 0x0, symName: __ZNSt3__16vectorIN5folly7dynamicENS_9allocatorIS2_EEE26__swap_out_circular_bufferERNS_14__split_bufferIS2_RS4_EE, symObjAddr: 0xFA68, symBinAddr: 0x10001F250, symSize: 0x110 }
  - { offsetInCU: 0x3841E, offset: 0x60F4C, size: 0x8, addend: 0x0, symName: __ZN5hf3fs17monitor_collector19MLWorkloadAnalyticsC1ERKNS1_6ConfigE, symObjAddr: 0x4B4, symBinAddr: 0x100010E48, symSize: 0x34 }
  - { offsetInCU: 0x38697, offset: 0x611C5, size: 0x8, addend: 0x0, symName: __ZN5hf3fs17monitor_collector19MLWorkloadAnalytics4initEv, symObjAddr: 0x8F4, symBinAddr: 0x10001111C, symSize: 0x180 }
  - { offsetInCU: 0x38B5A, offset: 0x61688, size: 0x8, addend: 0x0, symName: __ZNSt3__16vectorIN5hf3fs17monitor_collector15OperationRecordENS_9allocatorIS3_EEE26__swap_out_circular_bufferERNS_14__split_bufferIS3_RS5_EE, symObjAddr: 0x182D4, symBinAddr: 0x1000265AC, symSize: 0x110 }
  - { offsetInCU: 0x38C50, offset: 0x6177E, size: 0x8, addend: 0x0, symName: __ZN5hf3fs17monitor_collector19MLWorkloadAnalytics15recordOperationERKNS0_15OperationRecordE, symObjAddr: 0xF04, symBinAddr: 0x10001172C, symSize: 0x178 }
  - { offsetInCU: 0x39053, offset: 0x61B81, size: 0x8, addend: 0x0, symName: __ZNSt3__16vectorINS_12basic_stringIcNS_11char_traitsIcEENS_9allocatorIcEEEENS4_IS6_EEE26__swap_out_circular_bufferERNS_14__split_bufferIS6_RS7_EE, symObjAddr: 0x23288, symBinAddr: 0x1000309A4, symSize: 0x110 }
  - { offsetInCU: 0x39339, offset: 0x61E67, size: 0x8, addend: 0x0, symName: __ZNSt3__16vectorINS_10shared_ptrIN5hf3fs17monitor_collector13WorkloadStatsEEENS_9allocatorIS5_EEE26__swap_out_circular_bufferERNS_14__split_bufferIS5_RS7_EE, symObjAddr: 0x28C30, symBinAddr: 0x100035694, symSize: 0x110 }
  - { offsetInCU: 0x3956B, offset: 0x62099, size: 0x8, addend: 0x0, symName: __ZNSt3__16vectorIyNS_9allocatorIyEEE26__swap_out_circular_bufferERNS_14__split_bufferIyRS2_EE, symObjAddr: 0x2A820, symBinAddr: 0x100037250, symSize: 0x110 }
  - { offsetInCU: 0x39773, offset: 0x622A1, size: 0x8, addend: 0x0, symName: __ZNSt3__16vectorINS_4pairIyyEENS_9allocatorIS2_EEE26__swap_out_circular_bufferERNS_14__split_bufferIS2_RS4_EE, symObjAddr: 0x2C424, symBinAddr: 0x100038E54, symSize: 0x110 }
  - { offsetInCU: 0x3AF21, offset: 0x63A4F, size: 0x8, addend: 0x0, symName: __Z7toloweri, symObjAddr: 0x5C48, symBinAddr: 0x1000162E8, symSize: 0x24 }
  - { offsetInCU: 0x3B6FA, offset: 0x64228, size: 0x8, addend: 0x0, symName: __ZN5folly7dynamicC1Ev, symObjAddr: 0x0, symBinAddr: 0x1000109C0, symSize: 0x2C }
  - { offsetInCU: 0x3B724, offset: 0x64252, size: 0x8, addend: 0x0, symName: __ZN5folly7dynamicD1Ev, symObjAddr: 0x2C, symBinAddr: 0x1000109EC, symSize: 0x2C }
  - { offsetInCU: 0x3B750, offset: 0x6427E, size: 0x8, addend: 0x0, symName: __ZN5hf3fs17monitor_collector19MLWorkloadAnalyticsC2ERKNS1_6ConfigE, symObjAddr: 0x58, symBinAddr: 0x100010A18, symSize: 0x174 }
  - { offsetInCU: 0x3B78C, offset: 0x642BA, size: 0x8, addend: 0x0, symName: __ZN5folly17ConcurrentHashMapIyNSt3__16vectorIN5hf3fs17monitor_collector15OperationRecordENS1_9allocatorIS5_EEEEEC1Ev, symObjAddr: 0x1CC, symBinAddr: 0x100010B8C, symSize: 0x2C }
  - { offsetInCU: 0x3B7B8, offset: 0x642E6, size: 0x8, addend: 0x0, symName: __ZN5folly17ConcurrentHashMapIyNSt3__110shared_ptrIN5hf3fs17monitor_collector13WorkloadStatsEEEEC1Ev, symObjAddr: 0x1F8, symBinAddr: 0x100010BB8, symSize: 0x2C }
  - { offsetInCU: 0x3B7E4, offset: 0x64312, size: 0x8, addend: 0x0, symName: __ZNSt3__16vectorINS_10shared_ptrIN5hf3fs17monitor_collector13WorkloadStatsEEENS_9allocatorIS5_EEEC1B8ue170006Ev, symObjAddr: 0x224, symBinAddr: 0x100010BE4, symSize: 0x2C }
  - { offsetInCU: 0x3B80E, offset: 0x6433C, size: 0x8, addend: 0x0, symName: __ZNSt3__110unique_ptrIN5hf3fs16BackgroundRunnerENS_14default_deleteIS2_EEEC1B8ue170006ILb1EvEEv, symObjAddr: 0x250, symBinAddr: 0x100010C10, symSize: 0x2C }
  - { offsetInCU: 0x3B843, offset: 0x64371, size: 0x8, addend: 0x0, symName: __ZN5hf3fs5utils13CallbackGuardC1Ev, symObjAddr: 0x27C, symBinAddr: 0x100010C3C, symSize: 0x2C }
  - { offsetInCU: 0x3B86D, offset: 0x6439B, size: 0x8, addend: 0x0, symName: __ZN5hf3fs17monitor_collector19MLWorkloadAnalytics6Config16addCallbackGuardENSt3__18functionIFvvEEE, symObjAddr: 0x2A8, symBinAddr: 0x100010C68, symSize: 0xA4 }
  - { offsetInCU: 0x3B8A3, offset: 0x643D1, size: 0x8, addend: 0x0, symName: '__ZNSt3__18functionIFvvEEC1IZN5hf3fs17monitor_collector19MLWorkloadAnalyticsC1ERKNS6_6ConfigEE3$_0vEET_', symObjAddr: 0x34C, symBinAddr: 0x100010D0C, symSize: 0x2C }
  - { offsetInCU: 0x3B8F4, offset: 0x64422, size: 0x8, addend: 0x0, symName: __ZN5hf3fs5utils13CallbackGuardaSEOS1_, symObjAddr: 0x378, symBinAddr: 0x100010D38, symSize: 0x34 }
  - { offsetInCU: 0x3B925, offset: 0x64453, size: 0x8, addend: 0x0, symName: __ZN5hf3fs5utils13CallbackGuardD1Ev, symObjAddr: 0x3AC, symBinAddr: 0x100010D6C, symSize: 0x2C }
  - { offsetInCU: 0x3B951, offset: 0x6447F, size: 0x8, addend: 0x0, symName: __ZNSt3__18functionIFvvEED1Ev, symObjAddr: 0x3D8, symBinAddr: 0x100010D98, symSize: 0x2C }
  - { offsetInCU: 0x3B97D, offset: 0x644AB, size: 0x8, addend: 0x0, symName: __ZNSt3__110unique_ptrIN5hf3fs16BackgroundRunnerENS_14default_deleteIS2_EEED1B8ue170006Ev, symObjAddr: 0x404, symBinAddr: 0x100010DC4, symSize: 0x2C }
  - { offsetInCU: 0x3B9A7, offset: 0x644D5, size: 0x8, addend: 0x0, symName: __ZN5folly17ConcurrentHashMapIyNSt3__110shared_ptrIN5hf3fs17monitor_collector13WorkloadStatsEEEED1Ev, symObjAddr: 0x45C, symBinAddr: 0x100010DF0, symSize: 0x2C }
  - { offsetInCU: 0x3B9D3, offset: 0x64501, size: 0x8, addend: 0x0, symName: __ZN5folly17ConcurrentHashMapIyNSt3__16vectorIN5hf3fs17monitor_collector15OperationRecordENS1_9allocatorIS5_EEEEED1Ev, symObjAddr: 0x488, symBinAddr: 0x100010E1C, symSize: 0x2C }
  - { offsetInCU: 0x3B9FF, offset: 0x6452D, size: 0x8, addend: 0x0, symName: __ZN5hf3fs17monitor_collector19MLWorkloadAnalyticsD2Ev, symObjAddr: 0x4E8, symBinAddr: 0x100010E7C, symSize: 0x128 }
  - { offsetInCU: 0x3BA3F, offset: 0x6456D, size: 0x8, addend: 0x0, symName: __ZNKSt3__110unique_ptrIN5hf3fs16BackgroundRunnerENS_14default_deleteIS2_EEEcvbB8ue170006Ev, symObjAddr: 0x610, symBinAddr: 0x100010FA4, symSize: 0x34 }
  - { offsetInCU: 0x3BA65, offset: 0x64593, size: 0x8, addend: 0x0, symName: __ZN5hf3fs17monitor_collector19MLWorkloadAnalytics11stopAndJoinEv, symObjAddr: 0x644, symBinAddr: 0x100010FD8, symSize: 0x100 }
  - { offsetInCU: 0x3BA8D, offset: 0x645BB, size: 0x8, addend: 0x0, symName: __ZNKR5hf3fs6ResultINS_4VoidENSt3__112basic_stringIcNS2_11char_traitsIcEENS2_9allocatorIcEEEEE5errorEv, symObjAddr: 0x800, symBinAddr: 0x1000110D8, symSize: 0x18 }
  - { offsetInCU: 0x3BAB3, offset: 0x645E1, size: 0x8, addend: 0x0, symName: __ZN5hf3fs17monitor_collector19MLWorkloadAnalyticsD1Ev, symObjAddr: 0x8C8, symBinAddr: 0x1000110F0, symSize: 0x2C }
  - { offsetInCU: 0x3BADF, offset: 0x6460D, size: 0x8, addend: 0x0, symName: __ZNK5hf3fs17monitor_collector19MLWorkloadAnalytics6Config7enabledEv, symObjAddr: 0xA74, symBinAddr: 0x10001129C, symSize: 0x1C }
  - { offsetInCU: 0x3BB05, offset: 0x64633, size: 0x8, addend: 0x0, symName: __ZNK5hf3fs17monitor_collector19MLWorkloadAnalytics6Config20analysis_interval_msEv, symObjAddr: 0xC18, symBinAddr: 0x100011440, symSize: 0x18 }
  - { offsetInCU: 0x3BB30, offset: 0x6465E, size: 0x8, addend: 0x0, symName: __ZNSt3__16chrono8durationIxNS_5ratioILl1ELl1000EEEEC1B8ue170006IyEERKT_PNS_9enable_ifIXaasr14is_convertibleIS8_xEE5valueooL_ZNS_17integral_constantIbLb0EE5valueEEntsr23treat_as_floating_pointIS6_EE5valueEvE4typeE, symObjAddr: 0xC30, symBinAddr: 0x100011458, symSize: 0x3C }
  - { offsetInCU: 0x3BB7C, offset: 0x646AA, size: 0x8, addend: 0x0, symName: __ZNSt3__110unique_ptrIN5hf3fs16BackgroundRunnerENS_14default_deleteIS2_EEEaSB8ue170006EOS5_, symObjAddr: 0xC6C, symBinAddr: 0x100011494, symSize: 0x50 }
  - { offsetInCU: 0x3BBB0, offset: 0x646DE, size: 0x8, addend: 0x0, symName: __ZNKSt3__110unique_ptrIN5hf3fs16BackgroundRunnerENS_14default_deleteIS2_EEEptB8ue170006Ev, symObjAddr: 0xCBC, symBinAddr: 0x1000114E4, symSize: 0x28 }
  - { offsetInCU: 0x3BBD6, offset: 0x64704, size: 0x8, addend: 0x0, symName: __ZN5hf3fs16BackgroundRunner5startEv, symObjAddr: 0xCE4, symBinAddr: 0x10001150C, symSize: 0x10 }
  - { offsetInCU: 0x3BBFC, offset: 0x6472A, size: 0x8, addend: 0x0, symName: __ZNK5hf3fs17monitor_collector19MLWorkloadAnalytics6Config18report_interval_msEv, symObjAddr: 0xE54, symBinAddr: 0x10001167C, symSize: 0x18 }
  - { offsetInCU: 0x3BC22, offset: 0x64750, size: 0x8, addend: 0x0, symName: __ZN5hf3fs16BackgroundRunner4stopEv, symObjAddr: 0xE6C, symBinAddr: 0x100011694, symSize: 0x10 }
  - { offsetInCU: 0x3BC48, offset: 0x64776, size: 0x8, addend: 0x0, symName: __ZN5hf3fs16BackgroundRunner4joinEv, symObjAddr: 0xE7C, symBinAddr: 0x1000116A4, symSize: 0x10 }
  - { offsetInCU: 0x3BC6E, offset: 0x6479C, size: 0x8, addend: 0x0, symName: __ZNSt3__110unique_ptrIN5hf3fs16BackgroundRunnerENS_14default_deleteIS2_EEE5resetB8ue170006EPS2_, symObjAddr: 0xE8C, symBinAddr: 0x1000116B4, symSize: 0x78 }
  - { offsetInCU: 0x3BCFF, offset: 0x6482D, size: 0x8, addend: 0x0, symName: '__ZN5folly17ConcurrentHashMapIyNSt3__16vectorIN5hf3fs17monitor_collector15OperationRecordENS1_9allocatorIS5_EEEEE6upsertIZNS4_19MLWorkloadAnalytics15recordOperationERKS5_E3$_3EEvRKyOT_NS1_8functionIFS8_vEEE', symObjAddr: 0x10C8, symBinAddr: 0x1000118F0, symSize: 0xF0 }
  - { offsetInCU: 0x3BD67, offset: 0x64895, size: 0x8, addend: 0x0, symName: '__ZNSt3__18functionIFNS_6vectorIN5hf3fs17monitor_collector15OperationRecordENS_9allocatorIS4_EEEEvEEC1IZNS3_19MLWorkloadAnalytics15recordOperationERKS4_E3$_4vEET_', symObjAddr: 0x11B8, symBinAddr: 0x1000119E0, symSize: 0x34 }
  - { offsetInCU: 0x3BDAC, offset: 0x648DA, size: 0x8, addend: 0x0, symName: __ZNSt3__18functionIFNS_6vectorIN5hf3fs17monitor_collector15OperationRecordENS_9allocatorIS4_EEEEvEED1Ev, symObjAddr: 0x11EC, symBinAddr: 0x100011A14, symSize: 0x2C }
  - { offsetInCU: 0x3BE25, offset: 0x64953, size: 0x8, addend: 0x0, symName: '__ZN5folly17ConcurrentHashMapIyNSt3__110shared_ptrIN5hf3fs17monitor_collector13WorkloadStatsEEEE6upsertIZNS4_19MLWorkloadAnalytics15recordOperationERKNS4_15OperationRecordEE3$_5EEvRKyOT_NS1_8functionIFS6_vEEE', symObjAddr: 0x1218, symBinAddr: 0x100011A40, symSize: 0xF0 }
  - { offsetInCU: 0x3BE8D, offset: 0x649BB, size: 0x8, addend: 0x0, symName: '__ZNSt3__18functionIFNS_10shared_ptrIN5hf3fs17monitor_collector13WorkloadStatsEEEvEEC1IZNS3_19MLWorkloadAnalytics15recordOperationERKNS3_15OperationRecordEE3$_6vEET_', symObjAddr: 0x1308, symBinAddr: 0x100011B30, symSize: 0x3C }
  - { offsetInCU: 0x3BED2, offset: 0x64A00, size: 0x8, addend: 0x0, symName: __ZNSt3__18functionIFNS_10shared_ptrIN5hf3fs17monitor_collector13WorkloadStatsEEEvEED1Ev, symObjAddr: 0x1344, symBinAddr: 0x100011B6C, symSize: 0x2C }
  - { offsetInCU: 0x3BEFE, offset: 0x64A2C, size: 0x8, addend: 0x0, symName: __ZN5hf3fs17monitor_collector19MLWorkloadAnalytics16getWorkloadStatsEyRKNSt3__112basic_stringIcNS2_11char_traitsIcEENS2_9allocatorIcEEEE, symObjAddr: 0x1370, symBinAddr: 0x100011B98, symSize: 0xEC }
  - { offsetInCU: 0x3BF54, offset: 0x64A82, size: 0x8, addend: 0x0, symName: __ZN5folly17ConcurrentHashMapIyNSt3__110shared_ptrIN5hf3fs17monitor_collector13WorkloadStatsEEEE4findERKy, symObjAddr: 0x145C, symBinAddr: 0x100011C84, symSize: 0x34 }
  - { offsetInCU: 0x3BF88, offset: 0x64AB6, size: 0x8, addend: 0x0, symName: __ZN5folly17ConcurrentHashMapIyNSt3__110shared_ptrIN5hf3fs17monitor_collector13WorkloadStatsEEEE3endEv, symObjAddr: 0x14C0, symBinAddr: 0x100011CE8, symSize: 0x2C }
  - { offsetInCU: 0x3BFAE, offset: 0x64ADC, size: 0x8, addend: 0x0, symName: __ZNSt3__110shared_ptrIN5hf3fs17monitor_collector13WorkloadStatsEEC1B8ue170006EDn, symObjAddr: 0x14EC, symBinAddr: 0x100011D14, symSize: 0x34 }
  - { offsetInCU: 0x3BFE3, offset: 0x64B11, size: 0x8, addend: 0x0, symName: __ZNKSt3__119__hash_map_iteratorINS_15__hash_iteratorIPNS_11__hash_nodeINS_17__hash_value_typeIyNS_10shared_ptrIN5hf3fs17monitor_collector13WorkloadStatsEEEEEPvEEEEEptB8ue170006Ev, symObjAddr: 0x1584, symBinAddr: 0x100011D7C, symSize: 0x2C }
  - { offsetInCU: 0x3C009, offset: 0x64B37, size: 0x8, addend: 0x0, symName: __ZNSt3__110shared_ptrIN5hf3fs17monitor_collector13WorkloadStatsEEC1B8ue170006ERKS4_, symObjAddr: 0x15C8, symBinAddr: 0x100011DA8, symSize: 0x34 }
  - { offsetInCU: 0x3C042, offset: 0x64B70, size: 0x8, addend: 0x0, symName: __ZN5hf3fs17monitor_collector19MLWorkloadAnalytics19getAllWorkloadStatsEv, symObjAddr: 0x15FC, symBinAddr: 0x100011DDC, symSize: 0x30 }
  - { offsetInCU: 0x3C06B, offset: 0x64B99, size: 0x8, addend: 0x0, symName: __ZNK5folly17ConcurrentHashMapIyNSt3__110shared_ptrIN5hf3fs17monitor_collector13WorkloadStatsEEEE16getShallowCopiesEv, symObjAddr: 0x162C, symBinAddr: 0x100011E0C, symSize: 0x38 }
  - { offsetInCU: 0x3C091, offset: 0x64BBF, size: 0x8, addend: 0x0, symName: __ZN5hf3fs17monitor_collector19MLWorkloadAnalytics26getHistoricalWorkloadStatsEyy, symObjAddr: 0x1664, symBinAddr: 0x100011E44, symSize: 0x14C }
  - { offsetInCU: 0x3C133, offset: 0x64C61, size: 0x8, addend: 0x0, symName: __ZNSt3__16vectorINS_10shared_ptrIN5hf3fs17monitor_collector13WorkloadStatsEEENS_9allocatorIS5_EEE5beginB8ue170006Ev, symObjAddr: 0x17B0, symBinAddr: 0x100011F90, symSize: 0x30 }
  - { offsetInCU: 0x3C15B, offset: 0x64C89, size: 0x8, addend: 0x0, symName: __ZNSt3__16vectorINS_10shared_ptrIN5hf3fs17monitor_collector13WorkloadStatsEEENS_9allocatorIS5_EEE3endB8ue170006Ev, symObjAddr: 0x17E0, symBinAddr: 0x100011FC0, symSize: 0x30 }
  - { offsetInCU: 0x3C183, offset: 0x64CB1, size: 0x8, addend: 0x0, symName: __ZNKSt3__111__wrap_iterIPNS_10shared_ptrIN5hf3fs17monitor_collector13WorkloadStatsEEEEdeB8ue170006Ev, symObjAddr: 0x1844, symBinAddr: 0x100012024, symSize: 0x18 }
  - { offsetInCU: 0x3C1A9, offset: 0x64CD7, size: 0x8, addend: 0x0, symName: __ZNSt3__16vectorINS_10shared_ptrIN5hf3fs17monitor_collector13WorkloadStatsEEENS_9allocatorIS5_EEE9push_backB8ue170006ERKS5_, symObjAddr: 0x185C, symBinAddr: 0x10001203C, symSize: 0x6C }
  - { offsetInCU: 0x3C1E0, offset: 0x64D0E, size: 0x8, addend: 0x0, symName: __ZNSt3__111__wrap_iterIPNS_10shared_ptrIN5hf3fs17monitor_collector13WorkloadStatsEEEEppB8ue170006Ev, symObjAddr: 0x18C8, symBinAddr: 0x1000120A8, symSize: 0x20 }
  - { offsetInCU: 0x3C206, offset: 0x64D34, size: 0x8, addend: 0x0, symName: __ZN5hf3fs17monitor_collector19MLWorkloadAnalytics17getWorkloadReportEv, symObjAddr: 0x18E8, symBinAddr: 0x1000120C8, symSize: 0xB9C }
  - { offsetInCU: 0x3C3B2, offset: 0x64EE0, size: 0x8, addend: 0x0, symName: __ZN5folly7dynamicC1ERKS0_, symObjAddr: 0x2484, symBinAddr: 0x100012C64, symSize: 0x34 }
  - { offsetInCU: 0x3C3E7, offset: 0x64F15, size: 0x8, addend: 0x0, symName: __ZNSt3__113unordered_mapIyNS_10shared_ptrIN5hf3fs17monitor_collector13WorkloadStatsEEENS_4hashIyEENS_8equal_toIyEENS_9allocatorINS_4pairIKyS5_EEEEE5beginB8ue170006Ev, symObjAddr: 0x24B8, symBinAddr: 0x100012C98, symSize: 0x38 }
  - { offsetInCU: 0x3C40D, offset: 0x64F3B, size: 0x8, addend: 0x0, symName: __ZNKSt3__119__hash_map_iteratorINS_15__hash_iteratorIPNS_11__hash_nodeINS_17__hash_value_typeIyNS_10shared_ptrIN5hf3fs17monitor_collector13WorkloadStatsEEEEEPvEEEEEdeB8ue170006Ev, symObjAddr: 0x2558, symBinAddr: 0x100012CD0, symSize: 0x28 }
  - { offsetInCU: 0x3C433, offset: 0x64F61, size: 0x8, addend: 0x0, symName: __ZN5folly7dynamicC1Ey, symObjAddr: 0x25C8, symBinAddr: 0x100012D40, symSize: 0x34 }
  - { offsetInCU: 0x3C46B, offset: 0x64F99, size: 0x8, addend: 0x0, symName: __ZN5folly7dynamicixEPKc, symObjAddr: 0x25FC, symBinAddr: 0x100012D74, symSize: 0x78 }
  - { offsetInCU: 0x3C4A5, offset: 0x64FD3, size: 0x8, addend: 0x0, symName: __ZN5folly7dynamicaSEOS0_, symObjAddr: 0x2674, symBinAddr: 0x100012DEC, symSize: 0x84 }
  - { offsetInCU: 0x3C4D6, offset: 0x65004, size: 0x8, addend: 0x0, symName: __ZN5folly7dynamicC1ERKNSt3__112basic_stringIcNS1_11char_traitsIcEENS1_9allocatorIcEEEE, symObjAddr: 0x26F8, symBinAddr: 0x100012E70, symSize: 0x34 }
  - { offsetInCU: 0x3C50E, offset: 0x6503C, size: 0x8, addend: 0x0, symName: __ZN5folly7dynamicC1Ed, symObjAddr: 0x2904, symBinAddr: 0x10001307C, symSize: 0x34 }
  - { offsetInCU: 0x3C546, offset: 0x65074, size: 0x8, addend: 0x0, symName: __ZNSt3__113unordered_mapINS_12basic_stringIcNS_11char_traitsIcEENS_9allocatorIcEEEEyNS_4hashIS6_EENS_8equal_toIS6_EENS4_INS_4pairIKS6_yEEEEE5beginB8ue170006Ev, symObjAddr: 0x2938, symBinAddr: 0x1000130B0, symSize: 0x38 }
  - { offsetInCU: 0x3C56C, offset: 0x6509A, size: 0x8, addend: 0x0, symName: __ZNSt3__113unordered_mapINS_12basic_stringIcNS_11char_traitsIcEENS_9allocatorIcEEEEyNS_4hashIS6_EENS_8equal_toIS6_EENS4_INS_4pairIKS6_yEEEEE3endB8ue170006Ev, symObjAddr: 0x2970, symBinAddr: 0x1000130E8, symSize: 0x38 }
  - { offsetInCU: 0x3C592, offset: 0x650C0, size: 0x8, addend: 0x0, symName: __ZNKSt3__119__hash_map_iteratorINS_15__hash_iteratorIPNS_11__hash_nodeINS_17__hash_value_typeINS_12basic_stringIcNS_11char_traitsIcEENS_9allocatorIcEEEEyEEPvEEEEEdeB8ue170006Ev, symObjAddr: 0x29D8, symBinAddr: 0x100013150, symSize: 0x28 }
  - { offsetInCU: 0x3C5B8, offset: 0x650E6, size: 0x8, addend: 0x0, symName: __ZN5folly7dynamicixERKNSt3__112basic_stringIcNS1_11char_traitsIcEENS1_9allocatorIcEEEE, symObjAddr: 0x2A48, symBinAddr: 0x1000131C0, symSize: 0x34 }
  - { offsetInCU: 0x3C5EC, offset: 0x6511A, size: 0x8, addend: 0x0, symName: __ZNSt3__119__hash_map_iteratorINS_15__hash_iteratorIPNS_11__hash_nodeINS_17__hash_value_typeINS_12basic_stringIcNS_11char_traitsIcEENS_9allocatorIcEEEEyEEPvEEEEEppB8ue170006Ev, symObjAddr: 0x2A7C, symBinAddr: 0x1000131F4, symSize: 0x2C }
  - { offsetInCU: 0x3C612, offset: 0x65140, size: 0x8, addend: 0x0, symName: __ZNSt3__16vectorINS_12basic_stringIcNS_11char_traitsIcEENS_9allocatorIcEEEENS4_IS6_EEE5beginB8ue170006Ev, symObjAddr: 0x2AA8, symBinAddr: 0x100013220, symSize: 0x30 }
  - { offsetInCU: 0x3C63A, offset: 0x65168, size: 0x8, addend: 0x0, symName: __ZNSt3__16vectorINS_12basic_stringIcNS_11char_traitsIcEENS_9allocatorIcEEEENS4_IS6_EEE3endB8ue170006Ev, symObjAddr: 0x2AD8, symBinAddr: 0x100013250, symSize: 0x30 }
  - { offsetInCU: 0x3C662, offset: 0x65190, size: 0x8, addend: 0x0, symName: __ZNKSt3__111__wrap_iterIPNS_12basic_stringIcNS_11char_traitsIcEENS_9allocatorIcEEEEEdeB8ue170006Ev, symObjAddr: 0x2B3C, symBinAddr: 0x1000132B4, symSize: 0x18 }
  - { offsetInCU: 0x3C688, offset: 0x651B6, size: 0x8, addend: 0x0, symName: __ZN5folly7dynamic9push_backES0_, symObjAddr: 0x2B54, symBinAddr: 0x1000132CC, symSize: 0x38 }
  - { offsetInCU: 0x3C6BD, offset: 0x651EB, size: 0x8, addend: 0x0, symName: __ZNSt3__111__wrap_iterIPNS_12basic_stringIcNS_11char_traitsIcEENS_9allocatorIcEEEEEppB8ue170006Ev, symObjAddr: 0x2B8C, symBinAddr: 0x100013304, symSize: 0x20 }
  - { offsetInCU: 0x3C6E3, offset: 0x65211, size: 0x8, addend: 0x0, symName: __ZN5folly7dynamicC1EOS0_, symObjAddr: 0x2BAC, symBinAddr: 0x100013324, symSize: 0x34 }
  - { offsetInCU: 0x3C718, offset: 0x65246, size: 0x8, addend: 0x0, symName: __ZNSt3__119__hash_map_iteratorINS_15__hash_iteratorIPNS_11__hash_nodeINS_17__hash_value_typeIyNS_10shared_ptrIN5hf3fs17monitor_collector13WorkloadStatsEEEEEPvEEEEEppB8ue170006Ev, symObjAddr: 0x2BE0, symBinAddr: 0x100013358, symSize: 0x2C }
  - { offsetInCU: 0x3C73E, offset: 0x6526C, size: 0x8, addend: 0x0, symName: __ZN5folly7dynamicC1Ei, symObjAddr: 0x2C0C, symBinAddr: 0x100013384, symSize: 0x34 }
  - { offsetInCU: 0x3C776, offset: 0x652A4, size: 0x8, addend: 0x0, symName: __ZN5hf3fs17monitor_collector19MLWorkloadAnalytics19runWorkloadAnalysisEv, symObjAddr: 0x2CA8, symBinAddr: 0x1000133F4, symSize: 0x104 }
  - { offsetInCU: 0x3C7AE, offset: 0x652DC, size: 0x8, addend: 0x0, symName: __ZN5hf3fs17monitor_collector19MLWorkloadAnalytics20cleanupIdleWorkloadsEv, symObjAddr: 0x2DAC, symBinAddr: 0x1000134F8, symSize: 0x5D0 }
  - { offsetInCU: 0x3C9F0, offset: 0x6551E, size: 0x8, addend: 0x0, symName: __ZN5hf3fs17monitor_collector19MLWorkloadAnalytics16analyzeWorkloadsEv, symObjAddr: 0x337C, symBinAddr: 0x100013AC8, symSize: 0x8A8 }
  - { offsetInCU: 0x3CC8C, offset: 0x657BA, size: 0x8, addend: 0x0, symName: __ZNK5hf3fs17monitor_collector19MLWorkloadAnalytics6Config21min_ops_for_detectionEv, symObjAddr: 0x3C6C, symBinAddr: 0x1000143B8, symSize: 0x18 }
  - { offsetInCU: 0x3CCB2, offset: 0x657E0, size: 0x8, addend: 0x0, symName: __ZN5hf3fs17monitor_collector19MLWorkloadAnalytics18detectWorkloadTypeERKNSt3__110shared_ptrINS0_13WorkloadStatsEEE, symObjAddr: 0x3C84, symBinAddr: 0x1000143D0, symSize: 0x50C }
  - { offsetInCU: 0x3CDF6, offset: 0x65924, size: 0x8, addend: 0x0, symName: __ZN5hf3fs17monitor_collector19MLWorkloadAnalytics19detectFrameworkTypeERKNSt3__110shared_ptrINS0_13WorkloadStatsEEE, symObjAddr: 0x4190, symBinAddr: 0x1000148DC, symSize: 0x530 }
  - { offsetInCU: 0x3CF4A, offset: 0x65A78, size: 0x8, addend: 0x0, symName: __ZN5folly17ConcurrentHashMapIyNSt3__16vectorIN5hf3fs17monitor_collector15OperationRecordENS1_9allocatorIS5_EEEEE4findERKy, symObjAddr: 0x46C0, symBinAddr: 0x100014E0C, symSize: 0x34 }
  - { offsetInCU: 0x3CF7E, offset: 0x65AAC, size: 0x8, addend: 0x0, symName: __ZN5folly17ConcurrentHashMapIyNSt3__16vectorIN5hf3fs17monitor_collector15OperationRecordENS1_9allocatorIS5_EEEEE3endEv, symObjAddr: 0x4724, symBinAddr: 0x100014E70, symSize: 0x2C }
  - { offsetInCU: 0x3CFA4, offset: 0x65AD2, size: 0x8, addend: 0x0, symName: __ZNKSt3__119__hash_map_iteratorINS_15__hash_iteratorIPNS_11__hash_nodeINS_17__hash_value_typeIyNS_6vectorIN5hf3fs17monitor_collector15OperationRecordENS_9allocatorIS7_EEEEEEPvEEEEEptB8ue170006Ev, symObjAddr: 0x4750, symBinAddr: 0x100014E9C, symSize: 0x2C }
  - { offsetInCU: 0x3CFCA, offset: 0x65AF8, size: 0x8, addend: 0x0, symName: __ZNKSt3__16vectorIN5hf3fs17monitor_collector15OperationRecordENS_9allocatorIS3_EEE5emptyB8ue170006Ev, symObjAddr: 0x477C, symBinAddr: 0x100014EC8, symSize: 0x28 }
  - { offsetInCU: 0x3CFF0, offset: 0x65B1E, size: 0x8, addend: 0x0, symName: __ZNSt3__16vectorIyNS_9allocatorIyEEEC1B8ue170006Ev, symObjAddr: 0x47A4, symBinAddr: 0x100014EF0, symSize: 0x2C }
  - { offsetInCU: 0x3D01A, offset: 0x65B48, size: 0x8, addend: 0x0, symName: __ZNSt3__16vectorIN5hf3fs17monitor_collector15OperationRecordENS_9allocatorIS3_EEE5beginB8ue170006Ev, symObjAddr: 0x47D0, symBinAddr: 0x100014F1C, symSize: 0x30 }
  - { offsetInCU: 0x3D042, offset: 0x65B70, size: 0x8, addend: 0x0, symName: __ZNSt3__16vectorIN5hf3fs17monitor_collector15OperationRecordENS_9allocatorIS3_EEE3endB8ue170006Ev, symObjAddr: 0x4800, symBinAddr: 0x100014F4C, symSize: 0x30 }
  - { offsetInCU: 0x3D06A, offset: 0x65B98, size: 0x8, addend: 0x0, symName: __ZNKSt3__111__wrap_iterIPN5hf3fs17monitor_collector15OperationRecordEEdeB8ue170006Ev, symObjAddr: 0x4864, symBinAddr: 0x100014FB0, symSize: 0x18 }
  - { offsetInCU: 0x3D090, offset: 0x65BBE, size: 0x8, addend: 0x0, symName: __ZNSt3__16vectorIyNS_9allocatorIyEEE9push_backB8ue170006ERKy, symObjAddr: 0x487C, symBinAddr: 0x100014FC8, symSize: 0x6C }
  - { offsetInCU: 0x3D0C7, offset: 0x65BF5, size: 0x8, addend: 0x0, symName: __ZNSt3__111__wrap_iterIPN5hf3fs17monitor_collector15OperationRecordEEppB8ue170006Ev, symObjAddr: 0x48E8, symBinAddr: 0x100015034, symSize: 0x20 }
  - { offsetInCU: 0x3D0ED, offset: 0x65C1B, size: 0x8, addend: 0x0, symName: __ZNKSt3__16vectorIyNS_9allocatorIyEEE4sizeB8ue170006Ev, symObjAddr: 0x4908, symBinAddr: 0x100015054, symSize: 0x28 }
  - { offsetInCU: 0x3D113, offset: 0x65C41, size: 0x8, addend: 0x0, symName: __ZNSt3__16vectorIyNS_9allocatorIyEEE9push_backB8ue170006EOy, symObjAddr: 0x4930, symBinAddr: 0x10001507C, symSize: 0x6C }
  - { offsetInCU: 0x3D14A, offset: 0x65C78, size: 0x8, addend: 0x0, symName: __ZNSt3__16vectorIyNS_9allocatorIyEEEixB8ue170006Em, symObjAddr: 0x499C, symBinAddr: 0x1000150E8, symSize: 0x24 }
  - { offsetInCU: 0x3D181, offset: 0x65CAF, size: 0x8, addend: 0x0, symName: __ZNSt3__16vectorIyNS_9allocatorIyEEE5beginB8ue170006Ev, symObjAddr: 0x4A30, symBinAddr: 0x10001517C, symSize: 0x30 }
  - { offsetInCU: 0x3D1A9, offset: 0x65CD7, size: 0x8, addend: 0x0, symName: __ZNSt3__16vectorIyNS_9allocatorIyEEE3endB8ue170006Ev, symObjAddr: 0x4A60, symBinAddr: 0x1000151AC, symSize: 0x30 }
  - { offsetInCU: 0x3D1D1, offset: 0x65CFF, size: 0x8, addend: 0x0, symName: __ZNKSt3__111__wrap_iterIPyEdeB8ue170006Ev, symObjAddr: 0x4AC4, symBinAddr: 0x100015210, symSize: 0x18 }
  - { offsetInCU: 0x3D1F7, offset: 0x65D25, size: 0x8, addend: 0x0, symName: __Z3absB8ue170006x, symObjAddr: 0x4ADC, symBinAddr: 0x100015228, symSize: 0x28 }
  - { offsetInCU: 0x3D224, offset: 0x65D52, size: 0x8, addend: 0x0, symName: __ZNSt3__111__wrap_iterIPyEppB8ue170006Ev, symObjAddr: 0x4B04, symBinAddr: 0x100015250, symSize: 0x20 }
  - { offsetInCU: 0x3D24A, offset: 0x65D78, size: 0x8, addend: 0x0, symName: __ZNSt3__16vectorIyNS_9allocatorIyEEED1B8ue170006Ev, symObjAddr: 0x4B24, symBinAddr: 0x100015270, symSize: 0x2C }
  - { offsetInCU: 0x3D274, offset: 0x65DA2, size: 0x8, addend: 0x0, symName: __ZNSt3__16vectorINS_4pairIyyEENS_9allocatorIS2_EEEC1B8ue170006Ev, symObjAddr: 0x4B50, symBinAddr: 0x10001529C, symSize: 0x2C }
  - { offsetInCU: 0x3D29E, offset: 0x65DCC, size: 0x8, addend: 0x0, symName: __ZNSt3__16vectorINS_4pairIyyEENS_9allocatorIS2_EEE12emplace_backIJRyS7_EEERS2_DpOT_, symObjAddr: 0x4B7C, symBinAddr: 0x1000152C8, symSize: 0x80 }
  - { offsetInCU: 0x3D2F4, offset: 0x65E22, size: 0x8, addend: 0x0, symName: __ZNKSt3__16vectorINS_4pairIyyEENS_9allocatorIS2_EEE4sizeB8ue170006Ev, symObjAddr: 0x4BFC, symBinAddr: 0x100015348, symSize: 0x28 }
  - { offsetInCU: 0x3D31A, offset: 0x65E48, size: 0x8, addend: 0x0, symName: __ZNSt3__16vectorINS_4pairIyyEENS_9allocatorIS2_EEED1B8ue170006Ev, symObjAddr: 0x4C24, symBinAddr: 0x100015370, symSize: 0x2C }
  - { offsetInCU: 0x3D344, offset: 0x65E72, size: 0x8, addend: 0x0, symName: __ZN5hf3fs17monitor_collector19MLWorkloadAnalytics14generateReportEv, symObjAddr: 0x4CA8, symBinAddr: 0x10001539C, symSize: 0x4F8 }
  - { offsetInCU: 0x3D484, offset: 0x65FB2, size: 0x8, addend: 0x0, symName: __ZNKSt3__110shared_ptrIN5hf3fs17monitor_collector13WorkloadStatsEEdeB8ue170006Ev, symObjAddr: 0x51E0, symBinAddr: 0x1000158D4, symSize: 0x18 }
  - { offsetInCU: 0x3D4AA, offset: 0x65FD8, size: 0x8, addend: 0x0, symName: __ZNKSt3__16vectorINS_10shared_ptrIN5hf3fs17monitor_collector13WorkloadStatsEEENS_9allocatorIS5_EEE5emptyB8ue170006Ev, symObjAddr: 0x5224, symBinAddr: 0x1000158EC, symSize: 0x28 }
  - { offsetInCU: 0x3D4D0, offset: 0x65FFE, size: 0x8, addend: 0x0, symName: __ZN5hf3fs17monitor_collector19MLWorkloadAnalytics18storeWorkloadStatsERKNSt3__16vectorINS2_10shared_ptrINS0_13WorkloadStatsEEENS2_9allocatorIS6_EEEE, symObjAddr: 0x524C, symBinAddr: 0x100015914, symSize: 0x74 }
  - { offsetInCU: 0x3D508, offset: 0x66036, size: 0x8, addend: 0x0, symName: __ZNK5hf3fs17monitor_collector19MLWorkloadAnalytics6Config23history_retention_hoursEv, symObjAddr: 0x52C0, symBinAddr: 0x100015988, symSize: 0x18 }
  - { offsetInCU: 0x3D52E, offset: 0x6605C, size: 0x8, addend: 0x0, symName: __ZNSt3__16vectorINS_10shared_ptrIN5hf3fs17monitor_collector13WorkloadStatsEEENS_9allocatorIS5_EEE5eraseENS_11__wrap_iterIPKS5_EESC_, symObjAddr: 0x52D8, symBinAddr: 0x1000159A0, symSize: 0xD0 }
  - { offsetInCU: 0x3D589, offset: 0x660B7, size: 0x8, addend: 0x0, symName: __ZNSt3__111__wrap_iterIPKNS_10shared_ptrIN5hf3fs17monitor_collector13WorkloadStatsEEEEC1B8ue170006IPS5_EERKNS0_IT_EEPNS_9enable_ifIXsr14is_convertibleISB_S7_EE5valueEvE4typeE, symObjAddr: 0x54A4, symBinAddr: 0x100015B6C, symSize: 0x3C }
  - { offsetInCU: 0x3D5D5, offset: 0x66103, size: 0x8, addend: 0x0, symName: __ZNK5folly17ConcurrentHashMapIyNSt3__110shared_ptrIN5hf3fs17monitor_collector13WorkloadStatsEEEE4sizeEv, symObjAddr: 0x54E0, symBinAddr: 0x100015BA8, symSize: 0x24 }
  - { offsetInCU: 0x3D5FB, offset: 0x66129, size: 0x8, addend: 0x0, symName: __ZNKSt3__112basic_stringIcNS_11char_traitsIcEENS_9allocatorIcEEE4findB8ue170006EPKcm, symObjAddr: 0x55D8, symBinAddr: 0x100015C78, symSize: 0x74 }
  - { offsetInCU: 0x3D641, offset: 0x6616F, size: 0x8, addend: 0x0, symName: __ZN5hf3fs17monitor_collector19MLWorkloadAnalytics20hasCheckpointPatternERKNSt3__110shared_ptrINS0_13WorkloadStatsEEE, symObjAddr: 0x564C, symBinAddr: 0x100015CEC, symSize: 0x3C8 }
  - { offsetInCU: 0x3D7C6, offset: 0x662F4, size: 0x8, addend: 0x0, symName: __ZNKSt3__16vectorIN5hf3fs17monitor_collector15OperationRecordENS_9allocatorIS3_EEE5beginB8ue170006Ev, symObjAddr: 0x5A44, symBinAddr: 0x1000160E4, symSize: 0x30 }
  - { offsetInCU: 0x3D7EE, offset: 0x6631C, size: 0x8, addend: 0x0, symName: __ZNKSt3__16vectorIN5hf3fs17monitor_collector15OperationRecordENS_9allocatorIS3_EEE3endB8ue170006Ev, symObjAddr: 0x5A74, symBinAddr: 0x100016114, symSize: 0x30 }
  - { offsetInCU: 0x3D816, offset: 0x66344, size: 0x8, addend: 0x0, symName: __ZNKSt3__111__wrap_iterIPKN5hf3fs17monitor_collector15OperationRecordEEdeB8ue170006Ev, symObjAddr: 0x5AD8, symBinAddr: 0x100016178, symSize: 0x18 }
  - { offsetInCU: 0x3D83C, offset: 0x6636A, size: 0x8, addend: 0x0, symName: __ZNSt3__111__wrap_iterIPKN5hf3fs17monitor_collector15OperationRecordEEppB8ue170006Ev, symObjAddr: 0x5AF0, symBinAddr: 0x100016190, symSize: 0x20 }
  - { offsetInCU: 0x3D862, offset: 0x66390, size: 0x8, addend: 0x0, symName: __ZNSt3__112basic_stringIcNS_11char_traitsIcEENS_9allocatorIcEEE5beginB8ue170006Ev, symObjAddr: 0x5BA8, symBinAddr: 0x100016248, symSize: 0x4C }
  - { offsetInCU: 0x3D888, offset: 0x663B6, size: 0x8, addend: 0x0, symName: __ZNSt3__112basic_stringIcNS_11char_traitsIcEENS_9allocatorIcEEE3endB8ue170006Ev, symObjAddr: 0x5BF4, symBinAddr: 0x100016294, symSize: 0x54 }
  - { offsetInCU: 0x3D8AE, offset: 0x663DC, size: 0x8, addend: 0x0, symName: __ZNK5hf3fs17monitor_collector19MLWorkloadAnalytics6Config24workload_idle_timeout_msEv, symObjAddr: 0x5CBC, symBinAddr: 0x10001635C, symSize: 0x18 }
  - { offsetInCU: 0x3D8D4, offset: 0x66402, size: 0x8, addend: 0x0, symName: __ZN5folly17ConcurrentHashMapIyNSt3__110shared_ptrIN5hf3fs17monitor_collector13WorkloadStatsEEEE5eraseERKy, symObjAddr: 0x5CD4, symBinAddr: 0x100016374, symSize: 0x2C }
  - { offsetInCU: 0x3D908, offset: 0x66436, size: 0x8, addend: 0x0, symName: __ZN5folly17ConcurrentHashMapIyNSt3__16vectorIN5hf3fs17monitor_collector15OperationRecordENS1_9allocatorIS5_EEEEE5eraseERKy, symObjAddr: 0x5D00, symBinAddr: 0x1000163A0, symSize: 0x2C }
  - { offsetInCU: 0x3D93C, offset: 0x6646A, size: 0x8, addend: 0x0, symName: __ZNK5hf3fs17monitor_collector19MLWorkloadAnalytics6Config22max_workloads_to_trackEv, symObjAddr: 0x5D2C, symBinAddr: 0x1000163CC, symSize: 0x18 }
  - { offsetInCU: 0x3D968, offset: 0x66496, size: 0x8, addend: 0x0, symName: __ZNSt3__16vectorINS_4pairIyyEENS_9allocatorIS2_EEE12emplace_backIJRKyyEEERS2_DpOT_, symObjAddr: 0x5D44, symBinAddr: 0x1000163E4, symSize: 0x80 }
  - { offsetInCU: 0x3D9BE, offset: 0x664EC, size: 0x8, addend: 0x0, symName: __ZNSt3__16vectorINS_4pairIyyEENS_9allocatorIS2_EEE5beginB8ue170006Ev, symObjAddr: 0x5E04, symBinAddr: 0x1000164A4, symSize: 0x30 }
  - { offsetInCU: 0x3D9E6, offset: 0x66514, size: 0x8, addend: 0x0, symName: __ZNSt3__16vectorINS_4pairIyyEENS_9allocatorIS2_EEE3endB8ue170006Ev, symObjAddr: 0x5E34, symBinAddr: 0x1000164D4, symSize: 0x30 }
  - { offsetInCU: 0x3DA0E, offset: 0x6653C, size: 0x8, addend: 0x0, symName: __ZNSt3__16vectorINS_4pairIyyEENS_9allocatorIS2_EEEixB8ue170006Em, symObjAddr: 0x5E64, symBinAddr: 0x100016504, symSize: 0x24 }
  - { offsetInCU: 0x3DA45, offset: 0x66573, size: 0x8, addend: 0x0, symName: __ZN5folly7dynamicC2Ev, symObjAddr: 0x5E88, symBinAddr: 0x100016528, symSize: 0x5C }
  - { offsetInCU: 0x3DA6F, offset: 0x6659D, size: 0x8, addend: 0x0, symName: __ZNSt3__113unordered_mapINS_12basic_stringIcNS_11char_traitsIcEENS_9allocatorIcEEEEN5folly7dynamicENS_4hashIS6_EENS_8equal_toIS6_EENS4_INS_4pairIKS6_S8_EEEEEC1B8ue170006Ev, symObjAddr: 0x5EE4, symBinAddr: 0x100016584, symSize: 0x2C }
  - { offsetInCU: 0x3DA99, offset: 0x665C7, size: 0x8, addend: 0x0, symName: __ZNSt3__16vectorIN5folly7dynamicENS_9allocatorIS2_EEEC1B8ue170006Ev, symObjAddr: 0x5F10, symBinAddr: 0x1000165B0, symSize: 0x2C }
  - { offsetInCU: 0x3DAC3, offset: 0x665F1, size: 0x8, addend: 0x0, symName: __ZNSt3__113unordered_mapINS_12basic_stringIcNS_11char_traitsIcEENS_9allocatorIcEEEEN5folly7dynamicENS_4hashIS6_EENS_8equal_toIS6_EENS4_INS_4pairIKS6_S8_EEEEEC2B8ue170006Ev, symObjAddr: 0x5F3C, symBinAddr: 0x1000165DC, symSize: 0x2C }
  - { offsetInCU: 0x3DAED, offset: 0x6661B, size: 0x8, addend: 0x0, symName: __ZNSt3__112__hash_tableINS_17__hash_value_typeINS_12basic_stringIcNS_11char_traitsIcEENS_9allocatorIcEEEEN5folly7dynamicEEENS_22__unordered_map_hasherIS7_SA_NS_4hashIS7_EENS_8equal_toIS7_EELb1EEENS_21__unordered_map_equalIS7_SA_SF_SD_Lb1EEENS5_ISA_EEEC1Ev, symObjAddr: 0x5F68, symBinAddr: 0x100016608, symSize: 0x2C }
  - { offsetInCU: 0x3DB19, offset: 0x66647, size: 0x8, addend: 0x0, symName: __ZNSt3__112__hash_tableINS_17__hash_value_typeINS_12basic_stringIcNS_11char_traitsIcEENS_9allocatorIcEEEEN5folly7dynamicEEENS_22__unordered_map_hasherIS7_SA_NS_4hashIS7_EENS_8equal_toIS7_EELb1EEENS_21__unordered_map_equalIS7_SA_SF_SD_Lb1EEENS5_ISA_EEEC2Ev, symObjAddr: 0x5F94, symBinAddr: 0x100016634, symSize: 0x7C }
  - { offsetInCU: 0x3DB45, offset: 0x66673, size: 0x8, addend: 0x0, symName: __ZNSt3__110unique_ptrIA_PNS_16__hash_node_baseIPNS_11__hash_nodeINS_17__hash_value_typeINS_12basic_stringIcNS_11char_traitsIcEENS_9allocatorIcEEEEN5folly7dynamicEEEPvEEEENS_25__bucket_list_deallocatorINS7_ISH_EEEEEC1B8ue170006ILb1EvEEv, symObjAddr: 0x6010, symBinAddr: 0x1000166B0, symSize: 0x2C }
  - { offsetInCU: 0x3DB7A, offset: 0x666A8, size: 0x8, addend: 0x0, symName: __ZNSt3__117__compressed_pairINS_16__hash_node_baseIPNS_11__hash_nodeINS_17__hash_value_typeINS_12basic_stringIcNS_11char_traitsIcEENS_9allocatorIcEEEEN5folly7dynamicEEEPvEEEENS7_ISE_EEEC1B8ue170006ILb1EvEEv, symObjAddr: 0x603C, symBinAddr: 0x1000166DC, symSize: 0x2C }
  - { offsetInCU: 0x3DBBB, offset: 0x666E9, size: 0x8, addend: 0x0, symName: __ZNSt3__117__compressed_pairImNS_22__unordered_map_hasherINS_12basic_stringIcNS_11char_traitsIcEENS_9allocatorIcEEEENS_17__hash_value_typeIS7_N5folly7dynamicEEENS_4hashIS7_EENS_8equal_toIS7_EELb1EEEEC1B8ue170006IiNS_18__default_init_tagEEEOT_OT0_, symObjAddr: 0x6068, symBinAddr: 0x100016708, symSize: 0x3C }
  - { offsetInCU: 0x3DC19, offset: 0x66747, size: 0x8, addend: 0x0, symName: __ZNSt3__117__compressed_pairIfNS_21__unordered_map_equalINS_12basic_stringIcNS_11char_traitsIcEENS_9allocatorIcEEEENS_17__hash_value_typeIS7_N5folly7dynamicEEENS_8equal_toIS7_EENS_4hashIS7_EELb1EEEEC1B8ue170006IfNS_18__default_init_tagEEEOT_OT0_, symObjAddr: 0x60A4, symBinAddr: 0x100016744, symSize: 0x3C }
  - { offsetInCU: 0x3DC71, offset: 0x6679F, size: 0x8, addend: 0x0, symName: __ZNSt3__110unique_ptrIA_PNS_16__hash_node_baseIPNS_11__hash_nodeINS_17__hash_value_typeINS_12basic_stringIcNS_11char_traitsIcEENS_9allocatorIcEEEEN5folly7dynamicEEEPvEEEENS_25__bucket_list_deallocatorINS7_ISH_EEEEEC2B8ue170006ILb1EvEEv, symObjAddr: 0x60E0, symBinAddr: 0x100016780, symSize: 0x3C }
  - { offsetInCU: 0x3DCAC, offset: 0x667DA, size: 0x8, addend: 0x0, symName: __ZNSt3__117__compressed_pairIPPNS_16__hash_node_baseIPNS_11__hash_nodeINS_17__hash_value_typeINS_12basic_stringIcNS_11char_traitsIcEENS_9allocatorIcEEEEN5folly7dynamicEEEPvEEEENS_25__bucket_list_deallocatorINS7_ISH_EEEEEC1B8ue170006INS_16__value_init_tagESO_EEOT_OT0_, symObjAddr: 0x611C, symBinAddr: 0x1000167BC, symSize: 0x3C }
  - { offsetInCU: 0x3DD04, offset: 0x66832, size: 0x8, addend: 0x0, symName: __ZNSt3__117__compressed_pairIPPNS_16__hash_node_baseIPNS_11__hash_nodeINS_17__hash_value_typeINS_12basic_stringIcNS_11char_traitsIcEENS_9allocatorIcEEEEN5folly7dynamicEEEPvEEEENS_25__bucket_list_deallocatorINS7_ISH_EEEEEC2B8ue170006INS_16__value_init_tagESO_EEOT_OT0_, symObjAddr: 0x6158, symBinAddr: 0x1000167F8, symSize: 0x40 }
  - { offsetInCU: 0x3DD5C, offset: 0x6688A, size: 0x8, addend: 0x0, symName: __ZNSt3__122__compressed_pair_elemIPPNS_16__hash_node_baseIPNS_11__hash_nodeINS_17__hash_value_typeINS_12basic_stringIcNS_11char_traitsIcEENS_9allocatorIcEEEEN5folly7dynamicEEEPvEEEELi0ELb0EEC2B8ue170006ENS_16__value_init_tagE, symObjAddr: 0x6198, symBinAddr: 0x100016838, symSize: 0x18 }
  - { offsetInCU: 0x3DD91, offset: 0x668BF, size: 0x8, addend: 0x0, symName: __ZNSt3__122__compressed_pair_elemINS_25__bucket_list_deallocatorINS_9allocatorIPNS_16__hash_node_baseIPNS_11__hash_nodeINS_17__hash_value_typeINS_12basic_stringIcNS_11char_traitsIcEENS2_IcEEEEN5folly7dynamicEEEPvEEEEEEEELi1ELb0EEC2B8ue170006ENS_16__value_init_tagE, symObjAddr: 0x61B0, symBinAddr: 0x100016850, symSize: 0x2C }
  - { offsetInCU: 0x3DDC6, offset: 0x668F4, size: 0x8, addend: 0x0, symName: __ZNSt3__125__bucket_list_deallocatorINS_9allocatorIPNS_16__hash_node_baseIPNS_11__hash_nodeINS_17__hash_value_typeINS_12basic_stringIcNS_11char_traitsIcEENS1_IcEEEEN5folly7dynamicEEEPvEEEEEEEC1B8ue170006Ev, symObjAddr: 0x61DC, symBinAddr: 0x10001687C, symSize: 0x2C }
  - { offsetInCU: 0x3DDF0, offset: 0x6691E, size: 0x8, addend: 0x0, symName: __ZNSt3__125__bucket_list_deallocatorINS_9allocatorIPNS_16__hash_node_baseIPNS_11__hash_nodeINS_17__hash_value_typeINS_12basic_stringIcNS_11char_traitsIcEENS1_IcEEEEN5folly7dynamicEEEPvEEEEEEEC2B8ue170006Ev, symObjAddr: 0x6208, symBinAddr: 0x1000168A8, symSize: 0x40 }
  - { offsetInCU: 0x3DE1A, offset: 0x66948, size: 0x8, addend: 0x0, symName: __ZNSt3__117__compressed_pairImNS_9allocatorIPNS_16__hash_node_baseIPNS_11__hash_nodeINS_17__hash_value_typeINS_12basic_stringIcNS_11char_traitsIcEENS1_IcEEEEN5folly7dynamicEEEPvEEEEEEEC1B8ue170006IiNS_18__default_init_tagEEEOT_OT0_, symObjAddr: 0x6248, symBinAddr: 0x1000168E8, symSize: 0x3C }
  - { offsetInCU: 0x3DE72, offset: 0x669A0, size: 0x8, addend: 0x0, symName: __ZNSt3__117__compressed_pairImNS_9allocatorIPNS_16__hash_node_baseIPNS_11__hash_nodeINS_17__hash_value_typeINS_12basic_stringIcNS_11char_traitsIcEENS1_IcEEEEN5folly7dynamicEEEPvEEEEEEEC2B8ue170006IiNS_18__default_init_tagEEEOT_OT0_, symObjAddr: 0x6284, symBinAddr: 0x100016924, symSize: 0x40 }
  - { offsetInCU: 0x3DECA, offset: 0x669F8, size: 0x8, addend: 0x0, symName: __ZNSt3__122__compressed_pair_elemImLi0ELb0EEC2B8ue170006IivEEOT_, symObjAddr: 0x62C4, symBinAddr: 0x100016964, symSize: 0x24 }
  - { offsetInCU: 0x3DF0C, offset: 0x66A3A, size: 0x8, addend: 0x0, symName: __ZNSt3__122__compressed_pair_elemINS_9allocatorIPNS_16__hash_node_baseIPNS_11__hash_nodeINS_17__hash_value_typeINS_12basic_stringIcNS_11char_traitsIcEENS1_IcEEEEN5folly7dynamicEEEPvEEEEEELi1ELb1EEC2B8ue170006ENS_18__default_init_tagE, symObjAddr: 0x62E8, symBinAddr: 0x100016988, symSize: 0x2C }
  - { offsetInCU: 0x3DF41, offset: 0x66A6F, size: 0x8, addend: 0x0, symName: __ZNSt3__19allocatorIPNS_16__hash_node_baseIPNS_11__hash_nodeINS_17__hash_value_typeINS_12basic_stringIcNS_11char_traitsIcEENS0_IcEEEEN5folly7dynamicEEEPvEEEEEC2B8ue170006Ev, symObjAddr: 0x6314, symBinAddr: 0x1000169B4, symSize: 0x2C }
  - { offsetInCU: 0x3DF6B, offset: 0x66A99, size: 0x8, addend: 0x0, symName: __ZNSt3__116__non_trivial_ifILb1ENS_9allocatorIPNS_16__hash_node_baseIPNS_11__hash_nodeINS_17__hash_value_typeINS_12basic_stringIcNS_11char_traitsIcEENS1_IcEEEEN5folly7dynamicEEEPvEEEEEEEC2B8ue170006Ev, symObjAddr: 0x6340, symBinAddr: 0x1000169E0, symSize: 0x14 }
  - { offsetInCU: 0x3DF95, offset: 0x66AC3, size: 0x8, addend: 0x0, symName: __ZNSt3__117__compressed_pairINS_16__hash_node_baseIPNS_11__hash_nodeINS_17__hash_value_typeINS_12basic_stringIcNS_11char_traitsIcEENS_9allocatorIcEEEEN5folly7dynamicEEEPvEEEENS7_ISE_EEEC2B8ue170006ILb1EvEEv, symObjAddr: 0x6354, symBinAddr: 0x1000169F4, symSize: 0x34 }
  - { offsetInCU: 0x3DFCA, offset: 0x66AF8, size: 0x8, addend: 0x0, symName: __ZNSt3__122__compressed_pair_elemINS_16__hash_node_baseIPNS_11__hash_nodeINS_17__hash_value_typeINS_12basic_stringIcNS_11char_traitsIcEENS_9allocatorIcEEEEN5folly7dynamicEEEPvEEEELi0ELb0EEC2B8ue170006ENS_16__value_init_tagE, symObjAddr: 0x6388, symBinAddr: 0x100016A28, symSize: 0x2C }
  - { offsetInCU: 0x3DFFF, offset: 0x66B2D, size: 0x8, addend: 0x0, symName: __ZNSt3__122__compressed_pair_elemINS_9allocatorINS_11__hash_nodeINS_17__hash_value_typeINS_12basic_stringIcNS_11char_traitsIcEENS1_IcEEEEN5folly7dynamicEEEPvEEEELi1ELb1EEC2B8ue170006ENS_16__value_init_tagE, symObjAddr: 0x63B4, symBinAddr: 0x100016A54, symSize: 0x2C }
  - { offsetInCU: 0x3E034, offset: 0x66B62, size: 0x8, addend: 0x0, symName: __ZNSt3__116__hash_node_baseIPNS_11__hash_nodeINS_17__hash_value_typeINS_12basic_stringIcNS_11char_traitsIcEENS_9allocatorIcEEEEN5folly7dynamicEEEPvEEEC1B8ue170006Ev, symObjAddr: 0x63E0, symBinAddr: 0x100016A80, symSize: 0x2C }
  - { offsetInCU: 0x3E05E, offset: 0x66B8C, size: 0x8, addend: 0x0, symName: __ZNSt3__116__hash_node_baseIPNS_11__hash_nodeINS_17__hash_value_typeINS_12basic_stringIcNS_11char_traitsIcEENS_9allocatorIcEEEEN5folly7dynamicEEEPvEEEC2B8ue170006Ev, symObjAddr: 0x640C, symBinAddr: 0x100016AAC, symSize: 0x18 }
  - { offsetInCU: 0x3E088, offset: 0x66BB6, size: 0x8, addend: 0x0, symName: __ZNSt3__19allocatorINS_11__hash_nodeINS_17__hash_value_typeINS_12basic_stringIcNS_11char_traitsIcEENS0_IcEEEEN5folly7dynamicEEEPvEEEC2B8ue170006Ev, symObjAddr: 0x6424, symBinAddr: 0x100016AC4, symSize: 0x2C }
  - { offsetInCU: 0x3E0B2, offset: 0x66BE0, size: 0x8, addend: 0x0, symName: __ZNSt3__116__non_trivial_ifILb1ENS_9allocatorINS_11__hash_nodeINS_17__hash_value_typeINS_12basic_stringIcNS_11char_traitsIcEENS1_IcEEEEN5folly7dynamicEEEPvEEEEEC2B8ue170006Ev, symObjAddr: 0x6450, symBinAddr: 0x100016AF0, symSize: 0x14 }
  - { offsetInCU: 0x3E0DC, offset: 0x66C0A, size: 0x8, addend: 0x0, symName: __ZNSt3__117__compressed_pairImNS_22__unordered_map_hasherINS_12basic_stringIcNS_11char_traitsIcEENS_9allocatorIcEEEENS_17__hash_value_typeIS7_N5folly7dynamicEEENS_4hashIS7_EENS_8equal_toIS7_EELb1EEEEC2B8ue170006IiNS_18__default_init_tagEEEOT_OT0_, symObjAddr: 0x6464, symBinAddr: 0x100016B04, symSize: 0x40 }
  - { offsetInCU: 0x3E134, offset: 0x66C62, size: 0x8, addend: 0x0, symName: __ZNSt3__122__compressed_pair_elemINS_22__unordered_map_hasherINS_12basic_stringIcNS_11char_traitsIcEENS_9allocatorIcEEEENS_17__hash_value_typeIS7_N5folly7dynamicEEENS_4hashIS7_EENS_8equal_toIS7_EELb1EEELi1ELb1EEC2B8ue170006ENS_18__default_init_tagE, symObjAddr: 0x64A4, symBinAddr: 0x100016B44, symSize: 0x2C }
  - { offsetInCU: 0x3E169, offset: 0x66C97, size: 0x8, addend: 0x0, symName: __ZNSt3__122__unordered_map_hasherINS_12basic_stringIcNS_11char_traitsIcEENS_9allocatorIcEEEENS_17__hash_value_typeIS6_N5folly7dynamicEEENS_4hashIS6_EENS_8equal_toIS6_EELb1EEC2B8ue170006Ev, symObjAddr: 0x64D0, symBinAddr: 0x100016B70, symSize: 0x14 }
  - { offsetInCU: 0x3E193, offset: 0x66CC1, size: 0x8, addend: 0x0, symName: __ZNSt3__117__compressed_pairIfNS_21__unordered_map_equalINS_12basic_stringIcNS_11char_traitsIcEENS_9allocatorIcEEEENS_17__hash_value_typeIS7_N5folly7dynamicEEENS_8equal_toIS7_EENS_4hashIS7_EELb1EEEEC2B8ue170006IfNS_18__default_init_tagEEEOT_OT0_, symObjAddr: 0x64E4, symBinAddr: 0x100016B84, symSize: 0x40 }
  - { offsetInCU: 0x3E1EB, offset: 0x66D19, size: 0x8, addend: 0x0, symName: __ZNSt3__122__compressed_pair_elemIfLi0ELb0EEC2B8ue170006IfvEEOT_, symObjAddr: 0x6524, symBinAddr: 0x100016BC4, symSize: 0x24 }
  - { offsetInCU: 0x3E22D, offset: 0x66D5B, size: 0x8, addend: 0x0, symName: __ZNSt3__122__compressed_pair_elemINS_21__unordered_map_equalINS_12basic_stringIcNS_11char_traitsIcEENS_9allocatorIcEEEENS_17__hash_value_typeIS7_N5folly7dynamicEEENS_8equal_toIS7_EENS_4hashIS7_EELb1EEELi1ELb1EEC2B8ue170006ENS_18__default_init_tagE, symObjAddr: 0x6548, symBinAddr: 0x100016BE8, symSize: 0x2C }
  - { offsetInCU: 0x3E262, offset: 0x66D90, size: 0x8, addend: 0x0, symName: __ZNSt3__121__unordered_map_equalINS_12basic_stringIcNS_11char_traitsIcEENS_9allocatorIcEEEENS_17__hash_value_typeIS6_N5folly7dynamicEEENS_8equal_toIS6_EENS_4hashIS6_EELb1EEC2B8ue170006Ev, symObjAddr: 0x6574, symBinAddr: 0x100016C14, symSize: 0x14 }
  - { offsetInCU: 0x3E28C, offset: 0x66DBA, size: 0x8, addend: 0x0, symName: __ZNSt3__16vectorIN5folly7dynamicENS_9allocatorIS2_EEEC2B8ue170006Ev, symObjAddr: 0x6588, symBinAddr: 0x100016C28, symSize: 0x4C }
  - { offsetInCU: 0x3E2BC, offset: 0x66DEA, size: 0x8, addend: 0x0, symName: __ZNSt3__117__compressed_pairIPN5folly7dynamicENS_9allocatorIS2_EEEC1B8ue170006IDnNS_18__default_init_tagEEEOT_OT0_, symObjAddr: 0x65D4, symBinAddr: 0x100016C74, symSize: 0x3C }
  - { offsetInCU: 0x3E314, offset: 0x66E42, size: 0x8, addend: 0x0, symName: __ZNSt3__117__compressed_pairIPN5folly7dynamicENS_9allocatorIS2_EEEC2B8ue170006IDnNS_18__default_init_tagEEEOT_OT0_, symObjAddr: 0x6610, symBinAddr: 0x100016CB0, symSize: 0x40 }
  - { offsetInCU: 0x3E36C, offset: 0x66E9A, size: 0x8, addend: 0x0, symName: __ZNSt3__122__compressed_pair_elemIPN5folly7dynamicELi0ELb0EEC2B8ue170006IDnvEEOT_, symObjAddr: 0x6650, symBinAddr: 0x100016CF0, symSize: 0x1C }
  - { offsetInCU: 0x3E3AE, offset: 0x66EDC, size: 0x8, addend: 0x0, symName: __ZNSt3__122__compressed_pair_elemINS_9allocatorIN5folly7dynamicEEELi1ELb1EEC2B8ue170006ENS_18__default_init_tagE, symObjAddr: 0x666C, symBinAddr: 0x100016D0C, symSize: 0x2C }
  - { offsetInCU: 0x3E3E3, offset: 0x66F11, size: 0x8, addend: 0x0, symName: __ZNSt3__19allocatorIN5folly7dynamicEEC2B8ue170006Ev, symObjAddr: 0x6698, symBinAddr: 0x100016D38, symSize: 0x2C }
  - { offsetInCU: 0x3E40D, offset: 0x66F3B, size: 0x8, addend: 0x0, symName: __ZNSt3__116__non_trivial_ifILb1ENS_9allocatorIN5folly7dynamicEEEEC2B8ue170006Ev, symObjAddr: 0x66C4, symBinAddr: 0x100016D64, symSize: 0x14 }
  - { offsetInCU: 0x3E437, offset: 0x66F65, size: 0x8, addend: 0x0, symName: __ZN5folly7dynamicD2Ev, symObjAddr: 0x66D8, symBinAddr: 0x100016D78, symSize: 0x48 }
  - { offsetInCU: 0x3E463, offset: 0x66F91, size: 0x8, addend: 0x0, symName: __ZNSt3__16vectorIN5folly7dynamicENS_9allocatorIS2_EEED1B8ue170006Ev, symObjAddr: 0x6720, symBinAddr: 0x100016DC0, symSize: 0x2C }
  - { offsetInCU: 0x3E48D, offset: 0x66FBB, size: 0x8, addend: 0x0, symName: __ZNSt3__113unordered_mapINS_12basic_stringIcNS_11char_traitsIcEENS_9allocatorIcEEEEN5folly7dynamicENS_4hashIS6_EENS_8equal_toIS6_EENS4_INS_4pairIKS6_S8_EEEEED1B8ue170006Ev, symObjAddr: 0x674C, symBinAddr: 0x100016DEC, symSize: 0x2C }
  - { offsetInCU: 0x3E4B7, offset: 0x66FE5, size: 0x8, addend: 0x0, symName: __ZNSt3__16vectorIN5folly7dynamicENS_9allocatorIS2_EEED2B8ue170006Ev, symObjAddr: 0x6778, symBinAddr: 0x100016E18, symSize: 0x44 }
  - { offsetInCU: 0x3E4E1, offset: 0x6700F, size: 0x8, addend: 0x0, symName: __ZNSt3__16vectorIN5folly7dynamicENS_9allocatorIS2_EEE16__destroy_vectorC1B8ue170006ERS5_, symObjAddr: 0x67BC, symBinAddr: 0x100016E5C, symSize: 0x34 }
  - { offsetInCU: 0x3E51A, offset: 0x67048, size: 0x8, addend: 0x0, symName: __ZNSt3__16vectorIN5folly7dynamicENS_9allocatorIS2_EEE16__destroy_vectorclB8ue170006Ev, symObjAddr: 0x67F0, symBinAddr: 0x100016E90, symSize: 0x90 }
  - { offsetInCU: 0x3E540, offset: 0x6706E, size: 0x8, addend: 0x0, symName: __ZNSt3__16vectorIN5folly7dynamicENS_9allocatorIS2_EEE16__destroy_vectorC2B8ue170006ERS5_, symObjAddr: 0x6880, symBinAddr: 0x100016F20, symSize: 0x20 }
  - { offsetInCU: 0x3E579, offset: 0x670A7, size: 0x8, addend: 0x0, symName: __ZNSt3__16vectorIN5folly7dynamicENS_9allocatorIS2_EEE7__clearB8ue170006Ev, symObjAddr: 0x68A0, symBinAddr: 0x100016F40, symSize: 0x28 }
  - { offsetInCU: 0x3E59F, offset: 0x670CD, size: 0x8, addend: 0x0, symName: __ZNKSt3__16vectorIN5folly7dynamicENS_9allocatorIS2_EEE17__annotate_deleteB8ue170006Ev, symObjAddr: 0x68C8, symBinAddr: 0x100016F68, symSize: 0xD4 }
  - { offsetInCU: 0x3E5C5, offset: 0x670F3, size: 0x8, addend: 0x0, symName: __ZNSt3__116allocator_traitsINS_9allocatorIN5folly7dynamicEEEE10deallocateB8ue170006ERS4_PS3_m, symObjAddr: 0x699C, symBinAddr: 0x10001703C, symSize: 0x34 }
  - { offsetInCU: 0x3E607, offset: 0x67135, size: 0x8, addend: 0x0, symName: __ZNSt3__16vectorIN5folly7dynamicENS_9allocatorIS2_EEE7__allocB8ue170006Ev, symObjAddr: 0x69D0, symBinAddr: 0x100017070, symSize: 0x28 }
  - { offsetInCU: 0x3E62D, offset: 0x6715B, size: 0x8, addend: 0x0, symName: __ZNKSt3__16vectorIN5folly7dynamicENS_9allocatorIS2_EEE8capacityB8ue170006Ev, symObjAddr: 0x69F8, symBinAddr: 0x100017098, symSize: 0x40 }
  - { offsetInCU: 0x3E653, offset: 0x67181, size: 0x8, addend: 0x0, symName: __ZNSt3__16vectorIN5folly7dynamicENS_9allocatorIS2_EEE22__base_destruct_at_endB8ue170006EPS2_, symObjAddr: 0x6A38, symBinAddr: 0x1000170D8, symSize: 0x8C }
  - { offsetInCU: 0x3E697, offset: 0x671C5, size: 0x8, addend: 0x0, symName: __ZNSt3__116allocator_traitsINS_9allocatorIN5folly7dynamicEEEE7destroyB8ue170006IS3_vEEvRS4_PT_, symObjAddr: 0x6AC4, symBinAddr: 0x100017164, symSize: 0x2C }
  - { offsetInCU: 0x3E6D4, offset: 0x67202, size: 0x8, addend: 0x0, symName: __ZNSt3__19allocatorIN5folly7dynamicEE7destroyB8ue170006EPS2_, symObjAddr: 0x6B04, symBinAddr: 0x1000171A4, symSize: 0x28 }
  - { offsetInCU: 0x3E708, offset: 0x67236, size: 0x8, addend: 0x0, symName: __ZNKSt3__16vectorIN5folly7dynamicENS_9allocatorIS2_EEE31__annotate_contiguous_containerB8ue170006EPKvS7_S7_S7_, symObjAddr: 0x6B2C, symBinAddr: 0x1000171CC, symSize: 0x20 }
  - { offsetInCU: 0x3E75A, offset: 0x67288, size: 0x8, addend: 0x0, symName: __ZNKSt3__16vectorIN5folly7dynamicENS_9allocatorIS2_EEE4dataB8ue170006Ev, symObjAddr: 0x6B4C, symBinAddr: 0x1000171EC, symSize: 0x28 }
  - { offsetInCU: 0x3E780, offset: 0x672AE, size: 0x8, addend: 0x0, symName: __ZNKSt3__16vectorIN5folly7dynamicENS_9allocatorIS2_EEE4sizeB8ue170006Ev, symObjAddr: 0x6B74, symBinAddr: 0x100017214, symSize: 0x28 }
  - { offsetInCU: 0x3E7A6, offset: 0x672D4, size: 0x8, addend: 0x0, symName: __ZNSt3__19allocatorIN5folly7dynamicEE10deallocateB8ue170006EPS2_m, symObjAddr: 0x6B9C, symBinAddr: 0x10001723C, symSize: 0x44 }
  - { offsetInCU: 0x3E7E8, offset: 0x67316, size: 0x8, addend: 0x0, symName: __ZNSt3__117__compressed_pairIPN5folly7dynamicENS_9allocatorIS2_EEE6secondB8ue170006Ev, symObjAddr: 0x6D08, symBinAddr: 0x100017280, symSize: 0x24 }
  - { offsetInCU: 0x3E80E, offset: 0x6733C, size: 0x8, addend: 0x0, symName: __ZNSt3__122__compressed_pair_elemINS_9allocatorIN5folly7dynamicEEELi1ELb1EE5__getB8ue170006Ev, symObjAddr: 0x6D2C, symBinAddr: 0x1000172A4, symSize: 0x14 }
  - { offsetInCU: 0x3E834, offset: 0x67362, size: 0x8, addend: 0x0, symName: __ZNKSt3__16vectorIN5folly7dynamicENS_9allocatorIS2_EEE9__end_capB8ue170006Ev, symObjAddr: 0x6D40, symBinAddr: 0x1000172B8, symSize: 0x28 }
  - { offsetInCU: 0x3E85A, offset: 0x67388, size: 0x8, addend: 0x0, symName: __ZNKSt3__117__compressed_pairIPN5folly7dynamicENS_9allocatorIS2_EEE5firstB8ue170006Ev, symObjAddr: 0x6D68, symBinAddr: 0x1000172E0, symSize: 0x24 }
  - { offsetInCU: 0x3E880, offset: 0x673AE, size: 0x8, addend: 0x0, symName: __ZNKSt3__122__compressed_pair_elemIPN5folly7dynamicELi0ELb0EE5__getB8ue170006Ev, symObjAddr: 0x6D8C, symBinAddr: 0x100017304, symSize: 0x14 }
  - { offsetInCU: 0x3E8A6, offset: 0x673D4, size: 0x8, addend: 0x0, symName: __ZNSt3__113unordered_mapINS_12basic_stringIcNS_11char_traitsIcEENS_9allocatorIcEEEEN5folly7dynamicENS_4hashIS6_EENS_8equal_toIS6_EENS4_INS_4pairIKS6_S8_EEEEED2B8ue170006Ev, symObjAddr: 0x6DA0, symBinAddr: 0x100017318, symSize: 0x2C }
  - { offsetInCU: 0x3E8D0, offset: 0x673FE, size: 0x8, addend: 0x0, symName: __ZNSt3__112__hash_tableINS_17__hash_value_typeINS_12basic_stringIcNS_11char_traitsIcEENS_9allocatorIcEEEEN5folly7dynamicEEENS_22__unordered_map_hasherIS7_SA_NS_4hashIS7_EENS_8equal_toIS7_EELb1EEENS_21__unordered_map_equalIS7_SA_SF_SD_Lb1EEENS5_ISA_EEED1Ev, symObjAddr: 0x6DCC, symBinAddr: 0x100017344, symSize: 0x2C }
  - { offsetInCU: 0x3E8FC, offset: 0x6742A, size: 0x8, addend: 0x0, symName: __ZNSt3__112__hash_tableINS_17__hash_value_typeINS_12basic_stringIcNS_11char_traitsIcEENS_9allocatorIcEEEEN5folly7dynamicEEENS_22__unordered_map_hasherIS7_SA_NS_4hashIS7_EENS_8equal_toIS7_EELb1EEENS_21__unordered_map_equalIS7_SA_SF_SD_Lb1EEENS5_ISA_EEED2Ev, symObjAddr: 0x6DF8, symBinAddr: 0x100017370, symSize: 0x48 }
  - { offsetInCU: 0x3E928, offset: 0x67456, size: 0x8, addend: 0x0, symName: __ZNSt3__112__hash_tableINS_17__hash_value_typeINS_12basic_stringIcNS_11char_traitsIcEENS_9allocatorIcEEEEN5folly7dynamicEEENS_22__unordered_map_hasherIS7_SA_NS_4hashIS7_EENS_8equal_toIS7_EELb1EEENS_21__unordered_map_equalIS7_SA_SF_SD_Lb1EEENS5_ISA_EEE17__deallocate_nodeEPNS_16__hash_node_baseIPNS_11__hash_nodeISA_PvEEEE, symObjAddr: 0x6E40, symBinAddr: 0x1000173B8, symSize: 0xA8 }
  - { offsetInCU: 0x3E992, offset: 0x674C0, size: 0x8, addend: 0x0, symName: __ZNSt3__117__compressed_pairINS_16__hash_node_baseIPNS_11__hash_nodeINS_17__hash_value_typeINS_12basic_stringIcNS_11char_traitsIcEENS_9allocatorIcEEEEN5folly7dynamicEEEPvEEEENS7_ISE_EEE5firstB8ue170006Ev, symObjAddr: 0x6EE8, symBinAddr: 0x100017460, symSize: 0x24 }
  - { offsetInCU: 0x3E9B8, offset: 0x674E6, size: 0x8, addend: 0x0, symName: __ZNSt3__110unique_ptrIA_PNS_16__hash_node_baseIPNS_11__hash_nodeINS_17__hash_value_typeINS_12basic_stringIcNS_11char_traitsIcEENS_9allocatorIcEEEEN5folly7dynamicEEEPvEEEENS_25__bucket_list_deallocatorINS7_ISH_EEEEED1B8ue170006Ev, symObjAddr: 0x6F0C, symBinAddr: 0x100017484, symSize: 0x2C }
  - { offsetInCU: 0x3E9E2, offset: 0x67510, size: 0x8, addend: 0x0, symName: __ZNSt3__112__hash_tableINS_17__hash_value_typeINS_12basic_stringIcNS_11char_traitsIcEENS_9allocatorIcEEEEN5folly7dynamicEEENS_22__unordered_map_hasherIS7_SA_NS_4hashIS7_EENS_8equal_toIS7_EELb1EEENS_21__unordered_map_equalIS7_SA_SF_SD_Lb1EEENS5_ISA_EEE12__node_allocB8ue170006Ev, symObjAddr: 0x6F38, symBinAddr: 0x1000174B0, symSize: 0x28 }
  - { offsetInCU: 0x3EA08, offset: 0x67536, size: 0x8, addend: 0x0, symName: __ZNSt3__116__hash_node_baseIPNS_11__hash_nodeINS_17__hash_value_typeINS_12basic_stringIcNS_11char_traitsIcEENS_9allocatorIcEEEEN5folly7dynamicEEEPvEEE8__upcastB8ue170006Ev, symObjAddr: 0x6F60, symBinAddr: 0x1000174D8, symSize: 0x24 }
  - { offsetInCU: 0x3EA2E, offset: 0x6755C, size: 0x8, addend: 0x0, symName: __ZNSt3__116allocator_traitsINS_9allocatorINS_11__hash_nodeINS_17__hash_value_typeINS_12basic_stringIcNS_11char_traitsIcEENS1_IcEEEEN5folly7dynamicEEEPvEEEEE7destroyB8ue170006INS_4pairIKS8_SA_EEvvEEvRSE_PT_, symObjAddr: 0x6F84, symBinAddr: 0x1000174FC, symSize: 0x28 }
  - { offsetInCU: 0x3EA68, offset: 0x67596, size: 0x8, addend: 0x0, symName: __ZNSt3__122__hash_key_value_typesINS_17__hash_value_typeINS_12basic_stringIcNS_11char_traitsIcEENS_9allocatorIcEEEEN5folly7dynamicEEEE9__get_ptrB8ue170006ERSA_, symObjAddr: 0x6FAC, symBinAddr: 0x100017524, symSize: 0x24 }
  - { offsetInCU: 0x3EA8B, offset: 0x675B9, size: 0x8, addend: 0x0, symName: __ZNSt3__116allocator_traitsINS_9allocatorINS_11__hash_nodeINS_17__hash_value_typeINS_12basic_stringIcNS_11char_traitsIcEENS1_IcEEEEN5folly7dynamicEEEPvEEEEE10deallocateB8ue170006ERSE_PSD_m, symObjAddr: 0x6FD0, symBinAddr: 0x100017548, symSize: 0x34 }
  - { offsetInCU: 0x3EACD, offset: 0x675FB, size: 0x8, addend: 0x0, symName: __ZNSt3__117__compressed_pairINS_16__hash_node_baseIPNS_11__hash_nodeINS_17__hash_value_typeINS_12basic_stringIcNS_11char_traitsIcEENS_9allocatorIcEEEEN5folly7dynamicEEEPvEEEENS7_ISE_EEE6secondB8ue170006Ev, symObjAddr: 0x7004, symBinAddr: 0x10001757C, symSize: 0x24 }
  - { offsetInCU: 0x3EAF3, offset: 0x67621, size: 0x8, addend: 0x0, symName: __ZNSt3__122__compressed_pair_elemINS_9allocatorINS_11__hash_nodeINS_17__hash_value_typeINS_12basic_stringIcNS_11char_traitsIcEENS1_IcEEEEN5folly7dynamicEEEPvEEEELi1ELb1EE5__getB8ue170006Ev, symObjAddr: 0x7028, symBinAddr: 0x1000175A0, symSize: 0x14 }
  - { offsetInCU: 0x3EB19, offset: 0x67647, size: 0x8, addend: 0x0, symName: __ZNSt3__114pointer_traitsIPNS_16__hash_node_baseIPNS_11__hash_nodeINS_17__hash_value_typeINS_12basic_stringIcNS_11char_traitsIcEENS_9allocatorIcEEEEN5folly7dynamicEEEPvEEEEE10pointer_toB8ue170006ERSG_, symObjAddr: 0x703C, symBinAddr: 0x1000175B4, symSize: 0x14 }
  - { offsetInCU: 0x3EB3C, offset: 0x6766A, size: 0x8, addend: 0x0, symName: __ZNSt3__14pairIKNS_12basic_stringIcNS_11char_traitsIcEENS_9allocatorIcEEEEN5folly7dynamicEED1Ev, symObjAddr: 0x7050, symBinAddr: 0x1000175C8, symSize: 0x2C }
  - { offsetInCU: 0x3EB68, offset: 0x67696, size: 0x8, addend: 0x0, symName: __ZNSt3__14pairIKNS_12basic_stringIcNS_11char_traitsIcEENS_9allocatorIcEEEEN5folly7dynamicEED2Ev, symObjAddr: 0x707C, symBinAddr: 0x1000175F4, symSize: 0x38 }
  - { offsetInCU: 0x3EB94, offset: 0x676C2, size: 0x8, addend: 0x0, symName: __ZNSt3__117__hash_value_typeINS_12basic_stringIcNS_11char_traitsIcEENS_9allocatorIcEEEEN5folly7dynamicEE11__get_valueB8ue170006Ev, symObjAddr: 0x70B4, symBinAddr: 0x10001762C, symSize: 0x24 }
  - { offsetInCU: 0x3EBBA, offset: 0x676E8, size: 0x8, addend: 0x0, symName: __ZNSt3__19allocatorINS_11__hash_nodeINS_17__hash_value_typeINS_12basic_stringIcNS_11char_traitsIcEENS0_IcEEEEN5folly7dynamicEEEPvEEE10deallocateB8ue170006EPSC_m, symObjAddr: 0x7110, symBinAddr: 0x100017688, symSize: 0x44 }
  - { offsetInCU: 0x3EBFC, offset: 0x6772A, size: 0x8, addend: 0x0, symName: __ZNSt3__122__compressed_pair_elemINS_16__hash_node_baseIPNS_11__hash_nodeINS_17__hash_value_typeINS_12basic_stringIcNS_11char_traitsIcEENS_9allocatorIcEEEEN5folly7dynamicEEEPvEEEELi0ELb0EE5__getB8ue170006Ev, symObjAddr: 0x7154, symBinAddr: 0x1000176CC, symSize: 0x14 }
  - { offsetInCU: 0x3EC22, offset: 0x67750, size: 0x8, addend: 0x0, symName: __ZNSt3__110unique_ptrIA_PNS_16__hash_node_baseIPNS_11__hash_nodeINS_17__hash_value_typeINS_12basic_stringIcNS_11char_traitsIcEENS_9allocatorIcEEEEN5folly7dynamicEEEPvEEEENS_25__bucket_list_deallocatorINS7_ISH_EEEEED2B8ue170006Ev, symObjAddr: 0x7168, symBinAddr: 0x1000176E0, symSize: 0x30 }
  - { offsetInCU: 0x3EC4C, offset: 0x6777A, size: 0x8, addend: 0x0, symName: __ZNSt3__110unique_ptrIA_PNS_16__hash_node_baseIPNS_11__hash_nodeINS_17__hash_value_typeINS_12basic_stringIcNS_11char_traitsIcEENS_9allocatorIcEEEEN5folly7dynamicEEEPvEEEENS_25__bucket_list_deallocatorINS7_ISH_EEEEE5resetB8ue170006EDn, symObjAddr: 0x7198, symBinAddr: 0x100017710, symSize: 0x6C }
  - { offsetInCU: 0x3EC8C, offset: 0x677BA, size: 0x8, addend: 0x0, symName: __ZNSt3__117__compressed_pairIPPNS_16__hash_node_baseIPNS_11__hash_nodeINS_17__hash_value_typeINS_12basic_stringIcNS_11char_traitsIcEENS_9allocatorIcEEEEN5folly7dynamicEEEPvEEEENS_25__bucket_list_deallocatorINS7_ISH_EEEEE5firstB8ue170006Ev, symObjAddr: 0x7204, symBinAddr: 0x10001777C, symSize: 0x24 }
  - { offsetInCU: 0x3ECB2, offset: 0x677E0, size: 0x8, addend: 0x0, symName: __ZNSt3__117__compressed_pairIPPNS_16__hash_node_baseIPNS_11__hash_nodeINS_17__hash_value_typeINS_12basic_stringIcNS_11char_traitsIcEENS_9allocatorIcEEEEN5folly7dynamicEEEPvEEEENS_25__bucket_list_deallocatorINS7_ISH_EEEEE6secondB8ue170006Ev, symObjAddr: 0x7228, symBinAddr: 0x1000177A0, symSize: 0x28 }
  - { offsetInCU: 0x3ECD8, offset: 0x67806, size: 0x8, addend: 0x0, symName: __ZNSt3__125__bucket_list_deallocatorINS_9allocatorIPNS_16__hash_node_baseIPNS_11__hash_nodeINS_17__hash_value_typeINS_12basic_stringIcNS_11char_traitsIcEENS1_IcEEEEN5folly7dynamicEEEPvEEEEEEEclB8ue170006EPSH_, symObjAddr: 0x7250, symBinAddr: 0x1000177C8, symSize: 0x58 }
  - { offsetInCU: 0x3ED0D, offset: 0x6783B, size: 0x8, addend: 0x0, symName: __ZNSt3__122__compressed_pair_elemIPPNS_16__hash_node_baseIPNS_11__hash_nodeINS_17__hash_value_typeINS_12basic_stringIcNS_11char_traitsIcEENS_9allocatorIcEEEEN5folly7dynamicEEEPvEEEELi0ELb0EE5__getB8ue170006Ev, symObjAddr: 0x72A8, symBinAddr: 0x100017820, symSize: 0x14 }
  - { offsetInCU: 0x3ED33, offset: 0x67861, size: 0x8, addend: 0x0, symName: __ZNSt3__122__compressed_pair_elemINS_25__bucket_list_deallocatorINS_9allocatorIPNS_16__hash_node_baseIPNS_11__hash_nodeINS_17__hash_value_typeINS_12basic_stringIcNS_11char_traitsIcEENS2_IcEEEEN5folly7dynamicEEEPvEEEEEEEELi1ELb0EE5__getB8ue170006Ev, symObjAddr: 0x72BC, symBinAddr: 0x100017834, symSize: 0x14 }
  - { offsetInCU: 0x3ED59, offset: 0x67887, size: 0x8, addend: 0x0, symName: __ZNSt3__116allocator_traitsINS_9allocatorIPNS_16__hash_node_baseIPNS_11__hash_nodeINS_17__hash_value_typeINS_12basic_stringIcNS_11char_traitsIcEENS1_IcEEEEN5folly7dynamicEEEPvEEEEEEE10deallocateB8ue170006ERSI_PSH_m, symObjAddr: 0x72D0, symBinAddr: 0x100017848, symSize: 0x34 }
  - { offsetInCU: 0x3ED9B, offset: 0x678C9, size: 0x8, addend: 0x0, symName: __ZNSt3__125__bucket_list_deallocatorINS_9allocatorIPNS_16__hash_node_baseIPNS_11__hash_nodeINS_17__hash_value_typeINS_12basic_stringIcNS_11char_traitsIcEENS1_IcEEEEN5folly7dynamicEEEPvEEEEEEE7__allocB8ue170006Ev, symObjAddr: 0x7304, symBinAddr: 0x10001787C, symSize: 0x24 }
  - { offsetInCU: 0x3EDC1, offset: 0x678EF, size: 0x8, addend: 0x0, symName: __ZNSt3__125__bucket_list_deallocatorINS_9allocatorIPNS_16__hash_node_baseIPNS_11__hash_nodeINS_17__hash_value_typeINS_12basic_stringIcNS_11char_traitsIcEENS1_IcEEEEN5folly7dynamicEEEPvEEEEEEE4sizeB8ue170006Ev, symObjAddr: 0x7328, symBinAddr: 0x1000178A0, symSize: 0x24 }
  - { offsetInCU: 0x3EDE7, offset: 0x67915, size: 0x8, addend: 0x0, symName: __ZNSt3__19allocatorIPNS_16__hash_node_baseIPNS_11__hash_nodeINS_17__hash_value_typeINS_12basic_stringIcNS_11char_traitsIcEENS0_IcEEEEN5folly7dynamicEEEPvEEEEE10deallocateB8ue170006EPSG_m, symObjAddr: 0x734C, symBinAddr: 0x1000178C4, symSize: 0x40 }
  - { offsetInCU: 0x3EE29, offset: 0x67957, size: 0x8, addend: 0x0, symName: __ZNSt3__117__compressed_pairImNS_9allocatorIPNS_16__hash_node_baseIPNS_11__hash_nodeINS_17__hash_value_typeINS_12basic_stringIcNS_11char_traitsIcEENS1_IcEEEEN5folly7dynamicEEEPvEEEEEEE6secondB8ue170006Ev, symObjAddr: 0x738C, symBinAddr: 0x100017904, symSize: 0x24 }
  - { offsetInCU: 0x3EE4F, offset: 0x6797D, size: 0x8, addend: 0x0, symName: __ZNSt3__122__compressed_pair_elemINS_9allocatorIPNS_16__hash_node_baseIPNS_11__hash_nodeINS_17__hash_value_typeINS_12basic_stringIcNS_11char_traitsIcEENS1_IcEEEEN5folly7dynamicEEEPvEEEEEELi1ELb1EE5__getB8ue170006Ev, symObjAddr: 0x73B0, symBinAddr: 0x100017928, symSize: 0x14 }
  - { offsetInCU: 0x3EE75, offset: 0x679A3, size: 0x8, addend: 0x0, symName: __ZNSt3__117__compressed_pairImNS_9allocatorIPNS_16__hash_node_baseIPNS_11__hash_nodeINS_17__hash_value_typeINS_12basic_stringIcNS_11char_traitsIcEENS1_IcEEEEN5folly7dynamicEEEPvEEEEEEE5firstB8ue170006Ev, symObjAddr: 0x73C4, symBinAddr: 0x10001793C, symSize: 0x24 }
  - { offsetInCU: 0x3EE9B, offset: 0x679C9, size: 0x8, addend: 0x0, symName: __ZN5folly17ConcurrentHashMapIyNSt3__16vectorIN5hf3fs17monitor_collector15OperationRecordENS1_9allocatorIS5_EEEEEC2Ev, symObjAddr: 0x73FC, symBinAddr: 0x100017960, symSize: 0x2C }
  - { offsetInCU: 0x3EEC7, offset: 0x679F5, size: 0x8, addend: 0x0, symName: __ZNSt3__113unordered_mapIyNS_6vectorIN5hf3fs17monitor_collector15OperationRecordENS_9allocatorIS4_EEEENS_4hashIyEENS_8equal_toIyEENS5_INS_4pairIKyS7_EEEEEC1B8ue170006Ev, symObjAddr: 0x7428, symBinAddr: 0x10001798C, symSize: 0x2C }
  - { offsetInCU: 0x3EEF1, offset: 0x67A1F, size: 0x8, addend: 0x0, symName: __ZNSt3__113unordered_mapIyNS_6vectorIN5hf3fs17monitor_collector15OperationRecordENS_9allocatorIS4_EEEENS_4hashIyEENS_8equal_toIyEENS5_INS_4pairIKyS7_EEEEEC2B8ue170006Ev, symObjAddr: 0x7454, symBinAddr: 0x1000179B8, symSize: 0x2C }
  - { offsetInCU: 0x3EF1B, offset: 0x67A49, size: 0x8, addend: 0x0, symName: __ZNSt3__112__hash_tableINS_17__hash_value_typeIyNS_6vectorIN5hf3fs17monitor_collector15OperationRecordENS_9allocatorIS5_EEEEEENS_22__unordered_map_hasherIyS9_NS_4hashIyEENS_8equal_toIyEELb1EEENS_21__unordered_map_equalIyS9_SE_SC_Lb1EEENS6_IS9_EEEC1Ev, symObjAddr: 0x7480, symBinAddr: 0x1000179E4, symSize: 0x2C }
  - { offsetInCU: 0x3EF47, offset: 0x67A75, size: 0x8, addend: 0x0, symName: __ZNSt3__112__hash_tableINS_17__hash_value_typeIyNS_6vectorIN5hf3fs17monitor_collector15OperationRecordENS_9allocatorIS5_EEEEEENS_22__unordered_map_hasherIyS9_NS_4hashIyEENS_8equal_toIyEELb1EEENS_21__unordered_map_equalIyS9_SE_SC_Lb1EEENS6_IS9_EEEC2Ev, symObjAddr: 0x74AC, symBinAddr: 0x100017A10, symSize: 0x7C }
  - { offsetInCU: 0x3EF73, offset: 0x67AA1, size: 0x8, addend: 0x0, symName: __ZNSt3__110unique_ptrIA_PNS_16__hash_node_baseIPNS_11__hash_nodeINS_17__hash_value_typeIyNS_6vectorIN5hf3fs17monitor_collector15OperationRecordENS_9allocatorIS7_EEEEEEPvEEEENS_25__bucket_list_deallocatorINS8_ISG_EEEEEC1B8ue170006ILb1EvEEv, symObjAddr: 0x7528, symBinAddr: 0x100017A8C, symSize: 0x2C }
  - { offsetInCU: 0x3EFA8, offset: 0x67AD6, size: 0x8, addend: 0x0, symName: __ZNSt3__117__compressed_pairINS_16__hash_node_baseIPNS_11__hash_nodeINS_17__hash_value_typeIyNS_6vectorIN5hf3fs17monitor_collector15OperationRecordENS_9allocatorIS7_EEEEEEPvEEEENS8_ISD_EEEC1B8ue170006ILb1EvEEv, symObjAddr: 0x7554, symBinAddr: 0x100017AB8, symSize: 0x2C }
  - { offsetInCU: 0x3EFDD, offset: 0x67B0B, size: 0x8, addend: 0x0, symName: __ZNSt3__117__compressed_pairImNS_22__unordered_map_hasherIyNS_17__hash_value_typeIyNS_6vectorIN5hf3fs17monitor_collector15OperationRecordENS_9allocatorIS6_EEEEEENS_4hashIyEENS_8equal_toIyEELb1EEEEC1B8ue170006IiNS_18__default_init_tagEEEOT_OT0_, symObjAddr: 0x7580, symBinAddr: 0x100017AE4, symSize: 0x3C }
  - { offsetInCU: 0x3F035, offset: 0x67B63, size: 0x8, addend: 0x0, symName: __ZNSt3__117__compressed_pairIfNS_21__unordered_map_equalIyNS_17__hash_value_typeIyNS_6vectorIN5hf3fs17monitor_collector15OperationRecordENS_9allocatorIS6_EEEEEENS_8equal_toIyEENS_4hashIyEELb1EEEEC1B8ue170006IfNS_18__default_init_tagEEEOT_OT0_, symObjAddr: 0x75BC, symBinAddr: 0x100017B20, symSize: 0x3C }
  - { offsetInCU: 0x3F08D, offset: 0x67BBB, size: 0x8, addend: 0x0, symName: __ZNSt3__110unique_ptrIA_PNS_16__hash_node_baseIPNS_11__hash_nodeINS_17__hash_value_typeIyNS_6vectorIN5hf3fs17monitor_collector15OperationRecordENS_9allocatorIS7_EEEEEEPvEEEENS_25__bucket_list_deallocatorINS8_ISG_EEEEEC2B8ue170006ILb1EvEEv, symObjAddr: 0x75F8, symBinAddr: 0x100017B5C, symSize: 0x3C }
  - { offsetInCU: 0x3F0C2, offset: 0x67BF0, size: 0x8, addend: 0x0, symName: __ZNSt3__117__compressed_pairIPPNS_16__hash_node_baseIPNS_11__hash_nodeINS_17__hash_value_typeIyNS_6vectorIN5hf3fs17monitor_collector15OperationRecordENS_9allocatorIS7_EEEEEEPvEEEENS_25__bucket_list_deallocatorINS8_ISG_EEEEEC1B8ue170006INS_16__value_init_tagESN_EEOT_OT0_, symObjAddr: 0x7634, symBinAddr: 0x100017B98, symSize: 0x3C }
  - { offsetInCU: 0x3F11A, offset: 0x67C48, size: 0x8, addend: 0x0, symName: __ZNSt3__117__compressed_pairIPPNS_16__hash_node_baseIPNS_11__hash_nodeINS_17__hash_value_typeIyNS_6vectorIN5hf3fs17monitor_collector15OperationRecordENS_9allocatorIS7_EEEEEEPvEEEENS_25__bucket_list_deallocatorINS8_ISG_EEEEEC2B8ue170006INS_16__value_init_tagESN_EEOT_OT0_, symObjAddr: 0x7670, symBinAddr: 0x100017BD4, symSize: 0x40 }
  - { offsetInCU: 0x3F172, offset: 0x67CA0, size: 0x8, addend: 0x0, symName: __ZNSt3__122__compressed_pair_elemIPPNS_16__hash_node_baseIPNS_11__hash_nodeINS_17__hash_value_typeIyNS_6vectorIN5hf3fs17monitor_collector15OperationRecordENS_9allocatorIS7_EEEEEEPvEEEELi0ELb0EEC2B8ue170006ENS_16__value_init_tagE, symObjAddr: 0x76B0, symBinAddr: 0x100017C14, symSize: 0x18 }
  - { offsetInCU: 0x3F1A7, offset: 0x67CD5, size: 0x8, addend: 0x0, symName: __ZNSt3__122__compressed_pair_elemINS_25__bucket_list_deallocatorINS_9allocatorIPNS_16__hash_node_baseIPNS_11__hash_nodeINS_17__hash_value_typeIyNS_6vectorIN5hf3fs17monitor_collector15OperationRecordENS2_IS9_EEEEEEPvEEEEEEEELi1ELb0EEC2B8ue170006ENS_16__value_init_tagE, symObjAddr: 0x76C8, symBinAddr: 0x100017C2C, symSize: 0x2C }
  - { offsetInCU: 0x3F1DC, offset: 0x67D0A, size: 0x8, addend: 0x0, symName: __ZNSt3__125__bucket_list_deallocatorINS_9allocatorIPNS_16__hash_node_baseIPNS_11__hash_nodeINS_17__hash_value_typeIyNS_6vectorIN5hf3fs17monitor_collector15OperationRecordENS1_IS8_EEEEEEPvEEEEEEEC1B8ue170006Ev, symObjAddr: 0x76F4, symBinAddr: 0x100017C58, symSize: 0x2C }
  - { offsetInCU: 0x3F206, offset: 0x67D34, size: 0x8, addend: 0x0, symName: __ZNSt3__125__bucket_list_deallocatorINS_9allocatorIPNS_16__hash_node_baseIPNS_11__hash_nodeINS_17__hash_value_typeIyNS_6vectorIN5hf3fs17monitor_collector15OperationRecordENS1_IS8_EEEEEEPvEEEEEEEC2B8ue170006Ev, symObjAddr: 0x7720, symBinAddr: 0x100017C84, symSize: 0x40 }
  - { offsetInCU: 0x3F230, offset: 0x67D5E, size: 0x8, addend: 0x0, symName: __ZNSt3__117__compressed_pairImNS_9allocatorIPNS_16__hash_node_baseIPNS_11__hash_nodeINS_17__hash_value_typeIyNS_6vectorIN5hf3fs17monitor_collector15OperationRecordENS1_IS8_EEEEEEPvEEEEEEEC1B8ue170006IiNS_18__default_init_tagEEEOT_OT0_, symObjAddr: 0x7760, symBinAddr: 0x100017CC4, symSize: 0x3C }
  - { offsetInCU: 0x3F288, offset: 0x67DB6, size: 0x8, addend: 0x0, symName: __ZNSt3__117__compressed_pairImNS_9allocatorIPNS_16__hash_node_baseIPNS_11__hash_nodeINS_17__hash_value_typeIyNS_6vectorIN5hf3fs17monitor_collector15OperationRecordENS1_IS8_EEEEEEPvEEEEEEEC2B8ue170006IiNS_18__default_init_tagEEEOT_OT0_, symObjAddr: 0x779C, symBinAddr: 0x100017D00, symSize: 0x40 }
  - { offsetInCU: 0x3F2E0, offset: 0x67E0E, size: 0x8, addend: 0x0, symName: __ZNSt3__122__compressed_pair_elemINS_9allocatorIPNS_16__hash_node_baseIPNS_11__hash_nodeINS_17__hash_value_typeIyNS_6vectorIN5hf3fs17monitor_collector15OperationRecordENS1_IS8_EEEEEEPvEEEEEELi1ELb1EEC2B8ue170006ENS_18__default_init_tagE, symObjAddr: 0x77DC, symBinAddr: 0x100017D40, symSize: 0x2C }
  - { offsetInCU: 0x3F315, offset: 0x67E43, size: 0x8, addend: 0x0, symName: __ZNSt3__19allocatorIPNS_16__hash_node_baseIPNS_11__hash_nodeINS_17__hash_value_typeIyNS_6vectorIN5hf3fs17monitor_collector15OperationRecordENS0_IS7_EEEEEEPvEEEEEC2B8ue170006Ev, symObjAddr: 0x7808, symBinAddr: 0x100017D6C, symSize: 0x2C }
  - { offsetInCU: 0x3F33F, offset: 0x67E6D, size: 0x8, addend: 0x0, symName: __ZNSt3__116__non_trivial_ifILb1ENS_9allocatorIPNS_16__hash_node_baseIPNS_11__hash_nodeINS_17__hash_value_typeIyNS_6vectorIN5hf3fs17monitor_collector15OperationRecordENS1_IS8_EEEEEEPvEEEEEEEC2B8ue170006Ev, symObjAddr: 0x7834, symBinAddr: 0x100017D98, symSize: 0x14 }
  - { offsetInCU: 0x3F369, offset: 0x67E97, size: 0x8, addend: 0x0, symName: __ZNSt3__117__compressed_pairINS_16__hash_node_baseIPNS_11__hash_nodeINS_17__hash_value_typeIyNS_6vectorIN5hf3fs17monitor_collector15OperationRecordENS_9allocatorIS7_EEEEEEPvEEEENS8_ISD_EEEC2B8ue170006ILb1EvEEv, symObjAddr: 0x7848, symBinAddr: 0x100017DAC, symSize: 0x34 }
  - { offsetInCU: 0x3F39E, offset: 0x67ECC, size: 0x8, addend: 0x0, symName: __ZNSt3__122__compressed_pair_elemINS_16__hash_node_baseIPNS_11__hash_nodeINS_17__hash_value_typeIyNS_6vectorIN5hf3fs17monitor_collector15OperationRecordENS_9allocatorIS7_EEEEEEPvEEEELi0ELb0EEC2B8ue170006ENS_16__value_init_tagE, symObjAddr: 0x787C, symBinAddr: 0x100017DE0, symSize: 0x2C }
  - { offsetInCU: 0x3F3D3, offset: 0x67F01, size: 0x8, addend: 0x0, symName: __ZNSt3__122__compressed_pair_elemINS_9allocatorINS_11__hash_nodeINS_17__hash_value_typeIyNS_6vectorIN5hf3fs17monitor_collector15OperationRecordENS1_IS7_EEEEEEPvEEEELi1ELb1EEC2B8ue170006ENS_16__value_init_tagE, symObjAddr: 0x78A8, symBinAddr: 0x100017E0C, symSize: 0x2C }
  - { offsetInCU: 0x3F408, offset: 0x67F36, size: 0x8, addend: 0x0, symName: __ZNSt3__116__hash_node_baseIPNS_11__hash_nodeINS_17__hash_value_typeIyNS_6vectorIN5hf3fs17monitor_collector15OperationRecordENS_9allocatorIS6_EEEEEEPvEEEC1B8ue170006Ev, symObjAddr: 0x78D4, symBinAddr: 0x100017E38, symSize: 0x2C }
  - { offsetInCU: 0x3F432, offset: 0x67F60, size: 0x8, addend: 0x0, symName: __ZNSt3__116__hash_node_baseIPNS_11__hash_nodeINS_17__hash_value_typeIyNS_6vectorIN5hf3fs17monitor_collector15OperationRecordENS_9allocatorIS6_EEEEEEPvEEEC2B8ue170006Ev, symObjAddr: 0x7900, symBinAddr: 0x100017E64, symSize: 0x18 }
  - { offsetInCU: 0x3F45C, offset: 0x67F8A, size: 0x8, addend: 0x0, symName: __ZNSt3__19allocatorINS_11__hash_nodeINS_17__hash_value_typeIyNS_6vectorIN5hf3fs17monitor_collector15OperationRecordENS0_IS6_EEEEEEPvEEEC2B8ue170006Ev, symObjAddr: 0x7918, symBinAddr: 0x100017E7C, symSize: 0x2C }
  - { offsetInCU: 0x3F486, offset: 0x67FB4, size: 0x8, addend: 0x0, symName: __ZNSt3__116__non_trivial_ifILb1ENS_9allocatorINS_11__hash_nodeINS_17__hash_value_typeIyNS_6vectorIN5hf3fs17monitor_collector15OperationRecordENS1_IS7_EEEEEEPvEEEEEC2B8ue170006Ev, symObjAddr: 0x7944, symBinAddr: 0x100017EA8, symSize: 0x14 }
  - { offsetInCU: 0x3F4B0, offset: 0x67FDE, size: 0x8, addend: 0x0, symName: __ZNSt3__117__compressed_pairImNS_22__unordered_map_hasherIyNS_17__hash_value_typeIyNS_6vectorIN5hf3fs17monitor_collector15OperationRecordENS_9allocatorIS6_EEEEEENS_4hashIyEENS_8equal_toIyEELb1EEEEC2B8ue170006IiNS_18__default_init_tagEEEOT_OT0_, symObjAddr: 0x7958, symBinAddr: 0x100017EBC, symSize: 0x40 }
  - { offsetInCU: 0x3F508, offset: 0x68036, size: 0x8, addend: 0x0, symName: __ZNSt3__122__compressed_pair_elemINS_22__unordered_map_hasherIyNS_17__hash_value_typeIyNS_6vectorIN5hf3fs17monitor_collector15OperationRecordENS_9allocatorIS6_EEEEEENS_4hashIyEENS_8equal_toIyEELb1EEELi1ELb1EEC2B8ue170006ENS_18__default_init_tagE, symObjAddr: 0x7998, symBinAddr: 0x100017EFC, symSize: 0x2C }
  - { offsetInCU: 0x3F53D, offset: 0x6806B, size: 0x8, addend: 0x0, symName: __ZNSt3__122__unordered_map_hasherIyNS_17__hash_value_typeIyNS_6vectorIN5hf3fs17monitor_collector15OperationRecordENS_9allocatorIS5_EEEEEENS_4hashIyEENS_8equal_toIyEELb1EEC2B8ue170006Ev, symObjAddr: 0x79C4, symBinAddr: 0x100017F28, symSize: 0x14 }
  - { offsetInCU: 0x3F567, offset: 0x68095, size: 0x8, addend: 0x0, symName: __ZNSt3__117__compressed_pairIfNS_21__unordered_map_equalIyNS_17__hash_value_typeIyNS_6vectorIN5hf3fs17monitor_collector15OperationRecordENS_9allocatorIS6_EEEEEENS_8equal_toIyEENS_4hashIyEELb1EEEEC2B8ue170006IfNS_18__default_init_tagEEEOT_OT0_, symObjAddr: 0x79D8, symBinAddr: 0x100017F3C, symSize: 0x40 }
  - { offsetInCU: 0x3F5BF, offset: 0x680ED, size: 0x8, addend: 0x0, symName: __ZNSt3__122__compressed_pair_elemINS_21__unordered_map_equalIyNS_17__hash_value_typeIyNS_6vectorIN5hf3fs17monitor_collector15OperationRecordENS_9allocatorIS6_EEEEEENS_8equal_toIyEENS_4hashIyEELb1EEELi1ELb1EEC2B8ue170006ENS_18__default_init_tagE, symObjAddr: 0x7A18, symBinAddr: 0x100017F7C, symSize: 0x2C }
  - { offsetInCU: 0x3F5F4, offset: 0x68122, size: 0x8, addend: 0x0, symName: __ZNSt3__121__unordered_map_equalIyNS_17__hash_value_typeIyNS_6vectorIN5hf3fs17monitor_collector15OperationRecordENS_9allocatorIS5_EEEEEENS_8equal_toIyEENS_4hashIyEELb1EEC2B8ue170006Ev, symObjAddr: 0x7A44, symBinAddr: 0x100017FA8, symSize: 0x14 }
  - { offsetInCU: 0x3F61E, offset: 0x6814C, size: 0x8, addend: 0x0, symName: __ZN5folly17ConcurrentHashMapIyNSt3__110shared_ptrIN5hf3fs17monitor_collector13WorkloadStatsEEEEC2Ev, symObjAddr: 0x7A58, symBinAddr: 0x100017FBC, symSize: 0x2C }
  - { offsetInCU: 0x3F64A, offset: 0x68178, size: 0x8, addend: 0x0, symName: __ZNSt3__113unordered_mapIyNS_10shared_ptrIN5hf3fs17monitor_collector13WorkloadStatsEEENS_4hashIyEENS_8equal_toIyEENS_9allocatorINS_4pairIKyS5_EEEEEC1B8ue170006Ev, symObjAddr: 0x7A84, symBinAddr: 0x100017FE8, symSize: 0x2C }
  - { offsetInCU: 0x3F674, offset: 0x681A2, size: 0x8, addend: 0x0, symName: __ZNSt3__113unordered_mapIyNS_10shared_ptrIN5hf3fs17monitor_collector13WorkloadStatsEEENS_4hashIyEENS_8equal_toIyEENS_9allocatorINS_4pairIKyS5_EEEEEC2B8ue170006Ev, symObjAddr: 0x7AB0, symBinAddr: 0x100018014, symSize: 0x2C }
  - { offsetInCU: 0x3F69E, offset: 0x681CC, size: 0x8, addend: 0x0, symName: __ZNSt3__112__hash_tableINS_17__hash_value_typeIyNS_10shared_ptrIN5hf3fs17monitor_collector13WorkloadStatsEEEEENS_22__unordered_map_hasherIyS7_NS_4hashIyEENS_8equal_toIyEELb1EEENS_21__unordered_map_equalIyS7_SC_SA_Lb1EEENS_9allocatorIS7_EEEC1Ev, symObjAddr: 0x7ADC, symBinAddr: 0x100018040, symSize: 0x2C }
  - { offsetInCU: 0x3F6CA, offset: 0x681F8, size: 0x8, addend: 0x0, symName: __ZNSt3__112__hash_tableINS_17__hash_value_typeIyNS_10shared_ptrIN5hf3fs17monitor_collector13WorkloadStatsEEEEENS_22__unordered_map_hasherIyS7_NS_4hashIyEENS_8equal_toIyEELb1EEENS_21__unordered_map_equalIyS7_SC_SA_Lb1EEENS_9allocatorIS7_EEEC2Ev, symObjAddr: 0x7B08, symBinAddr: 0x10001806C, symSize: 0x7C }
  - { offsetInCU: 0x3F6F6, offset: 0x68224, size: 0x8, addend: 0x0, symName: __ZNSt3__110unique_ptrIA_PNS_16__hash_node_baseIPNS_11__hash_nodeINS_17__hash_value_typeIyNS_10shared_ptrIN5hf3fs17monitor_collector13WorkloadStatsEEEEEPvEEEENS_25__bucket_list_deallocatorINS_9allocatorISE_EEEEEC1B8ue170006ILb1EvEEv, symObjAddr: 0x7B84, symBinAddr: 0x1000180E8, symSize: 0x2C }
  - { offsetInCU: 0x3F72B, offset: 0x68259, size: 0x8, addend: 0x0, symName: __ZNSt3__117__compressed_pairINS_16__hash_node_baseIPNS_11__hash_nodeINS_17__hash_value_typeIyNS_10shared_ptrIN5hf3fs17monitor_collector13WorkloadStatsEEEEEPvEEEENS_9allocatorISB_EEEC1B8ue170006ILb1EvEEv, symObjAddr: 0x7BB0, symBinAddr: 0x100018114, symSize: 0x2C }
  - { offsetInCU: 0x3F760, offset: 0x6828E, size: 0x8, addend: 0x0, symName: __ZNSt3__117__compressed_pairImNS_22__unordered_map_hasherIyNS_17__hash_value_typeIyNS_10shared_ptrIN5hf3fs17monitor_collector13WorkloadStatsEEEEENS_4hashIyEENS_8equal_toIyEELb1EEEEC1B8ue170006IiNS_18__default_init_tagEEEOT_OT0_, symObjAddr: 0x7BDC, symBinAddr: 0x100018140, symSize: 0x3C }
  - { offsetInCU: 0x3F7B8, offset: 0x682E6, size: 0x8, addend: 0x0, symName: __ZNSt3__117__compressed_pairIfNS_21__unordered_map_equalIyNS_17__hash_value_typeIyNS_10shared_ptrIN5hf3fs17monitor_collector13WorkloadStatsEEEEENS_8equal_toIyEENS_4hashIyEELb1EEEEC1B8ue170006IfNS_18__default_init_tagEEEOT_OT0_, symObjAddr: 0x7C18, symBinAddr: 0x10001817C, symSize: 0x3C }
  - { offsetInCU: 0x3F810, offset: 0x6833E, size: 0x8, addend: 0x0, symName: __ZNSt3__110unique_ptrIA_PNS_16__hash_node_baseIPNS_11__hash_nodeINS_17__hash_value_typeIyNS_10shared_ptrIN5hf3fs17monitor_collector13WorkloadStatsEEEEEPvEEEENS_25__bucket_list_deallocatorINS_9allocatorISE_EEEEEC2B8ue170006ILb1EvEEv, symObjAddr: 0x7C54, symBinAddr: 0x1000181B8, symSize: 0x3C }
  - { offsetInCU: 0x3F845, offset: 0x68373, size: 0x8, addend: 0x0, symName: __ZNSt3__117__compressed_pairIPPNS_16__hash_node_baseIPNS_11__hash_nodeINS_17__hash_value_typeIyNS_10shared_ptrIN5hf3fs17monitor_collector13WorkloadStatsEEEEEPvEEEENS_25__bucket_list_deallocatorINS_9allocatorISE_EEEEEC1B8ue170006INS_16__value_init_tagESM_EEOT_OT0_, symObjAddr: 0x7C90, symBinAddr: 0x1000181F4, symSize: 0x3C }
  - { offsetInCU: 0x3F89D, offset: 0x683CB, size: 0x8, addend: 0x0, symName: __ZNSt3__117__compressed_pairIPPNS_16__hash_node_baseIPNS_11__hash_nodeINS_17__hash_value_typeIyNS_10shared_ptrIN5hf3fs17monitor_collector13WorkloadStatsEEEEEPvEEEENS_25__bucket_list_deallocatorINS_9allocatorISE_EEEEEC2B8ue170006INS_16__value_init_tagESM_EEOT_OT0_, symObjAddr: 0x7CCC, symBinAddr: 0x100018230, symSize: 0x40 }
  - { offsetInCU: 0x3F8F5, offset: 0x68423, size: 0x8, addend: 0x0, symName: __ZNSt3__122__compressed_pair_elemIPPNS_16__hash_node_baseIPNS_11__hash_nodeINS_17__hash_value_typeIyNS_10shared_ptrIN5hf3fs17monitor_collector13WorkloadStatsEEEEEPvEEEELi0ELb0EEC2B8ue170006ENS_16__value_init_tagE, symObjAddr: 0x7D0C, symBinAddr: 0x100018270, symSize: 0x18 }
  - { offsetInCU: 0x3F92A, offset: 0x68458, size: 0x8, addend: 0x0, symName: __ZNSt3__122__compressed_pair_elemINS_25__bucket_list_deallocatorINS_9allocatorIPNS_16__hash_node_baseIPNS_11__hash_nodeINS_17__hash_value_typeIyNS_10shared_ptrIN5hf3fs17monitor_collector13WorkloadStatsEEEEEPvEEEEEEEELi1ELb0EEC2B8ue170006ENS_16__value_init_tagE, symObjAddr: 0x7D24, symBinAddr: 0x100018288, symSize: 0x2C }
  - { offsetInCU: 0x3F95F, offset: 0x6848D, size: 0x8, addend: 0x0, symName: __ZNSt3__125__bucket_list_deallocatorINS_9allocatorIPNS_16__hash_node_baseIPNS_11__hash_nodeINS_17__hash_value_typeIyNS_10shared_ptrIN5hf3fs17monitor_collector13WorkloadStatsEEEEEPvEEEEEEEC1B8ue170006Ev, symObjAddr: 0x7D50, symBinAddr: 0x1000182B4, symSize: 0x2C }
  - { offsetInCU: 0x3F989, offset: 0x684B7, size: 0x8, addend: 0x0, symName: __ZNSt3__125__bucket_list_deallocatorINS_9allocatorIPNS_16__hash_node_baseIPNS_11__hash_nodeINS_17__hash_value_typeIyNS_10shared_ptrIN5hf3fs17monitor_collector13WorkloadStatsEEEEEPvEEEEEEEC2B8ue170006Ev, symObjAddr: 0x7D7C, symBinAddr: 0x1000182E0, symSize: 0x40 }
  - { offsetInCU: 0x3F9B3, offset: 0x684E1, size: 0x8, addend: 0x0, symName: __ZNSt3__117__compressed_pairImNS_9allocatorIPNS_16__hash_node_baseIPNS_11__hash_nodeINS_17__hash_value_typeIyNS_10shared_ptrIN5hf3fs17monitor_collector13WorkloadStatsEEEEEPvEEEEEEEC1B8ue170006IiNS_18__default_init_tagEEEOT_OT0_, symObjAddr: 0x7DBC, symBinAddr: 0x100018320, symSize: 0x3C }
  - { offsetInCU: 0x3FA0B, offset: 0x68539, size: 0x8, addend: 0x0, symName: __ZNSt3__117__compressed_pairImNS_9allocatorIPNS_16__hash_node_baseIPNS_11__hash_nodeINS_17__hash_value_typeIyNS_10shared_ptrIN5hf3fs17monitor_collector13WorkloadStatsEEEEEPvEEEEEEEC2B8ue170006IiNS_18__default_init_tagEEEOT_OT0_, symObjAddr: 0x7DF8, symBinAddr: 0x10001835C, symSize: 0x40 }
  - { offsetInCU: 0x3FA63, offset: 0x68591, size: 0x8, addend: 0x0, symName: __ZNSt3__122__compressed_pair_elemINS_9allocatorIPNS_16__hash_node_baseIPNS_11__hash_nodeINS_17__hash_value_typeIyNS_10shared_ptrIN5hf3fs17monitor_collector13WorkloadStatsEEEEEPvEEEEEELi1ELb1EEC2B8ue170006ENS_18__default_init_tagE, symObjAddr: 0x7E38, symBinAddr: 0x10001839C, symSize: 0x2C }
  - { offsetInCU: 0x3FA98, offset: 0x685C6, size: 0x8, addend: 0x0, symName: __ZNSt3__19allocatorIPNS_16__hash_node_baseIPNS_11__hash_nodeINS_17__hash_value_typeIyNS_10shared_ptrIN5hf3fs17monitor_collector13WorkloadStatsEEEEEPvEEEEEC2B8ue170006Ev, symObjAddr: 0x7E64, symBinAddr: 0x1000183C8, symSize: 0x2C }
  - { offsetInCU: 0x3FAC2, offset: 0x685F0, size: 0x8, addend: 0x0, symName: __ZNSt3__116__non_trivial_ifILb1ENS_9allocatorIPNS_16__hash_node_baseIPNS_11__hash_nodeINS_17__hash_value_typeIyNS_10shared_ptrIN5hf3fs17monitor_collector13WorkloadStatsEEEEEPvEEEEEEEC2B8ue170006Ev, symObjAddr: 0x7E90, symBinAddr: 0x1000183F4, symSize: 0x14 }
  - { offsetInCU: 0x3FAEC, offset: 0x6861A, size: 0x8, addend: 0x0, symName: __ZNSt3__117__compressed_pairINS_16__hash_node_baseIPNS_11__hash_nodeINS_17__hash_value_typeIyNS_10shared_ptrIN5hf3fs17monitor_collector13WorkloadStatsEEEEEPvEEEENS_9allocatorISB_EEEC2B8ue170006ILb1EvEEv, symObjAddr: 0x7EA4, symBinAddr: 0x100018408, symSize: 0x34 }
  - { offsetInCU: 0x3FB21, offset: 0x6864F, size: 0x8, addend: 0x0, symName: __ZNSt3__122__compressed_pair_elemINS_16__hash_node_baseIPNS_11__hash_nodeINS_17__hash_value_typeIyNS_10shared_ptrIN5hf3fs17monitor_collector13WorkloadStatsEEEEEPvEEEELi0ELb0EEC2B8ue170006ENS_16__value_init_tagE, symObjAddr: 0x7ED8, symBinAddr: 0x10001843C, symSize: 0x2C }
  - { offsetInCU: 0x3FB56, offset: 0x68684, size: 0x8, addend: 0x0, symName: __ZNSt3__122__compressed_pair_elemINS_9allocatorINS_11__hash_nodeINS_17__hash_value_typeIyNS_10shared_ptrIN5hf3fs17monitor_collector13WorkloadStatsEEEEEPvEEEELi1ELb1EEC2B8ue170006ENS_16__value_init_tagE, symObjAddr: 0x7F04, symBinAddr: 0x100018468, symSize: 0x2C }
  - { offsetInCU: 0x3FB8B, offset: 0x686B9, size: 0x8, addend: 0x0, symName: __ZNSt3__116__hash_node_baseIPNS_11__hash_nodeINS_17__hash_value_typeIyNS_10shared_ptrIN5hf3fs17monitor_collector13WorkloadStatsEEEEEPvEEEC1B8ue170006Ev, symObjAddr: 0x7F30, symBinAddr: 0x100018494, symSize: 0x2C }
  - { offsetInCU: 0x3FBB5, offset: 0x686E3, size: 0x8, addend: 0x0, symName: __ZNSt3__116__hash_node_baseIPNS_11__hash_nodeINS_17__hash_value_typeIyNS_10shared_ptrIN5hf3fs17monitor_collector13WorkloadStatsEEEEEPvEEEC2B8ue170006Ev, symObjAddr: 0x7F5C, symBinAddr: 0x1000184C0, symSize: 0x18 }
  - { offsetInCU: 0x3FBDF, offset: 0x6870D, size: 0x8, addend: 0x0, symName: __ZNSt3__19allocatorINS_11__hash_nodeINS_17__hash_value_typeIyNS_10shared_ptrIN5hf3fs17monitor_collector13WorkloadStatsEEEEEPvEEEC2B8ue170006Ev, symObjAddr: 0x7F74, symBinAddr: 0x1000184D8, symSize: 0x2C }
  - { offsetInCU: 0x3FC09, offset: 0x68737, size: 0x8, addend: 0x0, symName: __ZNSt3__116__non_trivial_ifILb1ENS_9allocatorINS_11__hash_nodeINS_17__hash_value_typeIyNS_10shared_ptrIN5hf3fs17monitor_collector13WorkloadStatsEEEEEPvEEEEEC2B8ue170006Ev, symObjAddr: 0x7FA0, symBinAddr: 0x100018504, symSize: 0x14 }
  - { offsetInCU: 0x3FC33, offset: 0x68761, size: 0x8, addend: 0x0, symName: __ZNSt3__117__compressed_pairImNS_22__unordered_map_hasherIyNS_17__hash_value_typeIyNS_10shared_ptrIN5hf3fs17monitor_collector13WorkloadStatsEEEEENS_4hashIyEENS_8equal_toIyEELb1EEEEC2B8ue170006IiNS_18__default_init_tagEEEOT_OT0_, symObjAddr: 0x7FB4, symBinAddr: 0x100018518, symSize: 0x40 }
  - { offsetInCU: 0x3FC8B, offset: 0x687B9, size: 0x8, addend: 0x0, symName: __ZNSt3__122__compressed_pair_elemINS_22__unordered_map_hasherIyNS_17__hash_value_typeIyNS_10shared_ptrIN5hf3fs17monitor_collector13WorkloadStatsEEEEENS_4hashIyEENS_8equal_toIyEELb1EEELi1ELb1EEC2B8ue170006ENS_18__default_init_tagE, symObjAddr: 0x7FF4, symBinAddr: 0x100018558, symSize: 0x2C }
  - { offsetInCU: 0x3FCC0, offset: 0x687EE, size: 0x8, addend: 0x0, symName: __ZNSt3__122__unordered_map_hasherIyNS_17__hash_value_typeIyNS_10shared_ptrIN5hf3fs17monitor_collector13WorkloadStatsEEEEENS_4hashIyEENS_8equal_toIyEELb1EEC2B8ue170006Ev, symObjAddr: 0x8020, symBinAddr: 0x100018584, symSize: 0x14 }
  - { offsetInCU: 0x3FCEA, offset: 0x68818, size: 0x8, addend: 0x0, symName: __ZNSt3__117__compressed_pairIfNS_21__unordered_map_equalIyNS_17__hash_value_typeIyNS_10shared_ptrIN5hf3fs17monitor_collector13WorkloadStatsEEEEENS_8equal_toIyEENS_4hashIyEELb1EEEEC2B8ue170006IfNS_18__default_init_tagEEEOT_OT0_, symObjAddr: 0x8034, symBinAddr: 0x100018598, symSize: 0x40 }
  - { offsetInCU: 0x3FD42, offset: 0x68870, size: 0x8, addend: 0x0, symName: __ZNSt3__122__compressed_pair_elemINS_21__unordered_map_equalIyNS_17__hash_value_typeIyNS_10shared_ptrIN5hf3fs17monitor_collector13WorkloadStatsEEEEENS_8equal_toIyEENS_4hashIyEELb1EEELi1ELb1EEC2B8ue170006ENS_18__default_init_tagE, symObjAddr: 0x8074, symBinAddr: 0x1000185D8, symSize: 0x2C }
  - { offsetInCU: 0x3FD77, offset: 0x688A5, size: 0x8, addend: 0x0, symName: __ZNSt3__121__unordered_map_equalIyNS_17__hash_value_typeIyNS_10shared_ptrIN5hf3fs17monitor_collector13WorkloadStatsEEEEENS_8equal_toIyEENS_4hashIyEELb1EEC2B8ue170006Ev, symObjAddr: 0x80A0, symBinAddr: 0x100018604, symSize: 0x14 }
  - { offsetInCU: 0x3FDA1, offset: 0x688CF, size: 0x8, addend: 0x0, symName: __ZNSt3__110unique_ptrIN5hf3fs16BackgroundRunnerENS_14default_deleteIS2_EEEC2B8ue170006ILb1EvEEv, symObjAddr: 0x80B4, symBinAddr: 0x100018618, symSize: 0x3C }
  - { offsetInCU: 0x3FDD6, offset: 0x68904, size: 0x8, addend: 0x0, symName: __ZNSt3__117__compressed_pairIPN5hf3fs16BackgroundRunnerENS_14default_deleteIS2_EEEC1B8ue170006INS_16__value_init_tagES8_EEOT_OT0_, symObjAddr: 0x80F0, symBinAddr: 0x100018654, symSize: 0x3C }
  - { offsetInCU: 0x3FE2E, offset: 0x6895C, size: 0x8, addend: 0x0, symName: __ZNSt3__117__compressed_pairIPN5hf3fs16BackgroundRunnerENS_14default_deleteIS2_EEEC2B8ue170006INS_16__value_init_tagES8_EEOT_OT0_, symObjAddr: 0x812C, symBinAddr: 0x100018690, symSize: 0x3C }
  - { offsetInCU: 0x3FE86, offset: 0x689B4, size: 0x8, addend: 0x0, symName: __ZNSt3__122__compressed_pair_elemIPN5hf3fs16BackgroundRunnerELi0ELb0EEC2B8ue170006ENS_16__value_init_tagE, symObjAddr: 0x8168, symBinAddr: 0x1000186CC, symSize: 0x18 }
  - { offsetInCU: 0x3FEBB, offset: 0x689E9, size: 0x8, addend: 0x0, symName: __ZNSt3__122__compressed_pair_elemINS_14default_deleteIN5hf3fs16BackgroundRunnerEEELi1ELb1EEC2B8ue170006ENS_16__value_init_tagE, symObjAddr: 0x8180, symBinAddr: 0x1000186E4, symSize: 0x14 }
  - { offsetInCU: 0x3FEF0, offset: 0x68A1E, size: 0x8, addend: 0x0, symName: __ZN5hf3fs5utils13CallbackGuardC2Ev, symObjAddr: 0x8194, symBinAddr: 0x1000186F8, symSize: 0x2C }
  - { offsetInCU: 0x3FF1A, offset: 0x68A48, size: 0x8, addend: 0x0, symName: __ZNSt3__18functionIFvvEEC1B8ue170006Ev, symObjAddr: 0x81C0, symBinAddr: 0x100018724, symSize: 0x2C }
  - { offsetInCU: 0x3FF44, offset: 0x68A72, size: 0x8, addend: 0x0, symName: __ZNSt3__18functionIFvvEEC2B8ue170006Ev, symObjAddr: 0x81EC, symBinAddr: 0x100018750, symSize: 0x2C }
  - { offsetInCU: 0x3FF6E, offset: 0x68A9C, size: 0x8, addend: 0x0, symName: __ZNSt3__110__function12__value_funcIFvvEEC1B8ue170006Ev, symObjAddr: 0x8218, symBinAddr: 0x10001877C, symSize: 0x2C }
  - { offsetInCU: 0x3FF98, offset: 0x68AC6, size: 0x8, addend: 0x0, symName: __ZNSt3__110__function12__value_funcIFvvEEC2B8ue170006Ev, symObjAddr: 0x8244, symBinAddr: 0x1000187A8, symSize: 0x18 }
  - { offsetInCU: 0x3FFC2, offset: 0x68AF0, size: 0x8, addend: 0x0, symName: __ZNSt3__18functionIFvvEEC1ERKS2_, symObjAddr: 0x825C, symBinAddr: 0x1000187C0, symSize: 0x34 }
  - { offsetInCU: 0x3FFFD, offset: 0x68B2B, size: 0x8, addend: 0x0, symName: __ZN5hf3fs5utils13CallbackGuardC1ENSt3__18functionIFvvEEE, symObjAddr: 0x8290, symBinAddr: 0x1000187F4, symSize: 0x34 }
  - { offsetInCU: 0x40036, offset: 0x68B64, size: 0x8, addend: 0x0, symName: __ZNSt3__18functionIFvvEEC2ERKS2_, symObjAddr: 0x82C4, symBinAddr: 0x100018828, symSize: 0x34 }
  - { offsetInCU: 0x40071, offset: 0x68B9F, size: 0x8, addend: 0x0, symName: __ZNSt3__110__function12__value_funcIFvvEEC1B8ue170006ERKS3_, symObjAddr: 0x82F8, symBinAddr: 0x10001885C, symSize: 0x34 }
  - { offsetInCU: 0x400AA, offset: 0x68BD8, size: 0x8, addend: 0x0, symName: __ZNSt3__110__function12__value_funcIFvvEEC2B8ue170006ERKS3_, symObjAddr: 0x832C, symBinAddr: 0x100018890, symSize: 0xC0 }
  - { offsetInCU: 0x400E3, offset: 0x68C11, size: 0x8, addend: 0x0, symName: __ZNSt3__110__function12__value_funcIFvvEE9__as_baseB8ue170006EPv, symObjAddr: 0x83EC, symBinAddr: 0x100018950, symSize: 0x14 }
  - { offsetInCU: 0x40107, offset: 0x68C35, size: 0x8, addend: 0x0, symName: __ZN5hf3fs5utils13CallbackGuardC2ENSt3__18functionIFvvEEE, symObjAddr: 0x8400, symBinAddr: 0x100018964, symSize: 0x34 }
  - { offsetInCU: 0x40140, offset: 0x68C6E, size: 0x8, addend: 0x0, symName: __ZNSt3__18functionIFvvEEC1EOS2_, symObjAddr: 0x8434, symBinAddr: 0x100018998, symSize: 0x34 }
  - { offsetInCU: 0x4017B, offset: 0x68CA9, size: 0x8, addend: 0x0, symName: __ZNSt3__18functionIFvvEEC2EOS2_, symObjAddr: 0x8468, symBinAddr: 0x1000189CC, symSize: 0x34 }
  - { offsetInCU: 0x401B6, offset: 0x68CE4, size: 0x8, addend: 0x0, symName: __ZNSt3__110__function12__value_funcIFvvEEC1B8ue170006EOS3_, symObjAddr: 0x849C, symBinAddr: 0x100018A00, symSize: 0x34 }
  - { offsetInCU: 0x401EF, offset: 0x68D1D, size: 0x8, addend: 0x0, symName: __ZNSt3__110__function12__value_funcIFvvEEC2B8ue170006EOS3_, symObjAddr: 0x84D0, symBinAddr: 0x100018A34, symSize: 0xC4 }
  - { offsetInCU: 0x40228, offset: 0x68D56, size: 0x8, addend: 0x0, symName: __ZNSt3__18functionIFvvEEaSEOS2_, symObjAddr: 0x8594, symBinAddr: 0x100018AF8, symSize: 0x3C }
  - { offsetInCU: 0x4025F, offset: 0x68D8D, size: 0x8, addend: 0x0, symName: __ZNSt3__110__function12__value_funcIFvvEEaSB8ue170006EOS3_, symObjAddr: 0x85D0, symBinAddr: 0x100018B34, symSize: 0xC0 }
  - { offsetInCU: 0x40294, offset: 0x68DC2, size: 0x8, addend: 0x0, symName: __ZNSt3__110__function12__value_funcIFvvEEaSB8ue170006EDn, symObjAddr: 0x8690, symBinAddr: 0x100018BF4, symSize: 0x8C }
  - { offsetInCU: 0x402D4, offset: 0x68E02, size: 0x8, addend: 0x0, symName: __ZN5hf3fs5utils13CallbackGuardD2Ev, symObjAddr: 0x871C, symBinAddr: 0x100018C80, symSize: 0x2C }
  - { offsetInCU: 0x40300, offset: 0x68E2E, size: 0x8, addend: 0x0, symName: __ZN5folly17ConcurrentHashMapIyNSt3__110shared_ptrIN5hf3fs17monitor_collector13WorkloadStatsEEEED2Ev, symObjAddr: 0x8748, symBinAddr: 0x100018CAC, symSize: 0x2C }
  - { offsetInCU: 0x4032C, offset: 0x68E5A, size: 0x8, addend: 0x0, symName: __ZN5folly17ConcurrentHashMapIyNSt3__16vectorIN5hf3fs17monitor_collector15OperationRecordENS1_9allocatorIS5_EEEEED2Ev, symObjAddr: 0x8774, symBinAddr: 0x100018CD8, symSize: 0x2C }
  - { offsetInCU: 0x40358, offset: 0x68E86, size: 0x8, addend: 0x0, symName: __ZNSt3__113unordered_mapIyNS_6vectorIN5hf3fs17monitor_collector15OperationRecordENS_9allocatorIS4_EEEENS_4hashIyEENS_8equal_toIyEENS5_INS_4pairIKyS7_EEEEED1B8ue170006Ev, symObjAddr: 0x87A0, symBinAddr: 0x100018D04, symSize: 0x2C }
  - { offsetInCU: 0x40382, offset: 0x68EB0, size: 0x8, addend: 0x0, symName: __ZNSt3__113unordered_mapIyNS_6vectorIN5hf3fs17monitor_collector15OperationRecordENS_9allocatorIS4_EEEENS_4hashIyEENS_8equal_toIyEENS5_INS_4pairIKyS7_EEEEED2B8ue170006Ev, symObjAddr: 0x87CC, symBinAddr: 0x100018D30, symSize: 0x2C }
  - { offsetInCU: 0x403AC, offset: 0x68EDA, size: 0x8, addend: 0x0, symName: __ZNSt3__112__hash_tableINS_17__hash_value_typeIyNS_6vectorIN5hf3fs17monitor_collector15OperationRecordENS_9allocatorIS5_EEEEEENS_22__unordered_map_hasherIyS9_NS_4hashIyEENS_8equal_toIyEELb1EEENS_21__unordered_map_equalIyS9_SE_SC_Lb1EEENS6_IS9_EEED1Ev, symObjAddr: 0x87F8, symBinAddr: 0x100018D5C, symSize: 0x2C }
  - { offsetInCU: 0x403D8, offset: 0x68F06, size: 0x8, addend: 0x0, symName: __ZNSt3__112__hash_tableINS_17__hash_value_typeIyNS_6vectorIN5hf3fs17monitor_collector15OperationRecordENS_9allocatorIS5_EEEEEENS_22__unordered_map_hasherIyS9_NS_4hashIyEENS_8equal_toIyEELb1EEENS_21__unordered_map_equalIyS9_SE_SC_Lb1EEENS6_IS9_EEED2Ev, symObjAddr: 0x8824, symBinAddr: 0x100018D88, symSize: 0x48 }
  - { offsetInCU: 0x40404, offset: 0x68F32, size: 0x8, addend: 0x0, symName: __ZNSt3__112__hash_tableINS_17__hash_value_typeIyNS_6vectorIN5hf3fs17monitor_collector15OperationRecordENS_9allocatorIS5_EEEEEENS_22__unordered_map_hasherIyS9_NS_4hashIyEENS_8equal_toIyEELb1EEENS_21__unordered_map_equalIyS9_SE_SC_Lb1EEENS6_IS9_EEE17__deallocate_nodeEPNS_16__hash_node_baseIPNS_11__hash_nodeIS9_PvEEEE, symObjAddr: 0x886C, symBinAddr: 0x100018DD0, symSize: 0xA8 }
  - { offsetInCU: 0x4046E, offset: 0x68F9C, size: 0x8, addend: 0x0, symName: __ZNSt3__117__compressed_pairINS_16__hash_node_baseIPNS_11__hash_nodeINS_17__hash_value_typeIyNS_6vectorIN5hf3fs17monitor_collector15OperationRecordENS_9allocatorIS7_EEEEEEPvEEEENS8_ISD_EEE5firstB8ue170006Ev, symObjAddr: 0x8914, symBinAddr: 0x100018E78, symSize: 0x24 }
  - { offsetInCU: 0x40494, offset: 0x68FC2, size: 0x8, addend: 0x0, symName: __ZNSt3__110unique_ptrIA_PNS_16__hash_node_baseIPNS_11__hash_nodeINS_17__hash_value_typeIyNS_6vectorIN5hf3fs17monitor_collector15OperationRecordENS_9allocatorIS7_EEEEEEPvEEEENS_25__bucket_list_deallocatorINS8_ISG_EEEEED1B8ue170006Ev, symObjAddr: 0x8938, symBinAddr: 0x100018E9C, symSize: 0x2C }
  - { offsetInCU: 0x404BE, offset: 0x68FEC, size: 0x8, addend: 0x0, symName: __ZNSt3__112__hash_tableINS_17__hash_value_typeIyNS_6vectorIN5hf3fs17monitor_collector15OperationRecordENS_9allocatorIS5_EEEEEENS_22__unordered_map_hasherIyS9_NS_4hashIyEENS_8equal_toIyEELb1EEENS_21__unordered_map_equalIyS9_SE_SC_Lb1EEENS6_IS9_EEE12__node_allocB8ue170006Ev, symObjAddr: 0x8964, symBinAddr: 0x100018EC8, symSize: 0x28 }
  - { offsetInCU: 0x404E4, offset: 0x69012, size: 0x8, addend: 0x0, symName: __ZNSt3__116__hash_node_baseIPNS_11__hash_nodeINS_17__hash_value_typeIyNS_6vectorIN5hf3fs17monitor_collector15OperationRecordENS_9allocatorIS6_EEEEEEPvEEE8__upcastB8ue170006Ev, symObjAddr: 0x898C, symBinAddr: 0x100018EF0, symSize: 0x24 }
  - { offsetInCU: 0x4050A, offset: 0x69038, size: 0x8, addend: 0x0, symName: __ZNSt3__116allocator_traitsINS_9allocatorINS_11__hash_nodeINS_17__hash_value_typeIyNS_6vectorIN5hf3fs17monitor_collector15OperationRecordENS1_IS7_EEEEEEPvEEEEE7destroyB8ue170006INS_4pairIKyS9_EEvvEEvRSD_PT_, symObjAddr: 0x89B0, symBinAddr: 0x100018F14, symSize: 0x28 }
  - { offsetInCU: 0x40544, offset: 0x69072, size: 0x8, addend: 0x0, symName: __ZNSt3__122__hash_key_value_typesINS_17__hash_value_typeIyNS_6vectorIN5hf3fs17monitor_collector15OperationRecordENS_9allocatorIS5_EEEEEEE9__get_ptrB8ue170006ERS9_, symObjAddr: 0x89D8, symBinAddr: 0x100018F3C, symSize: 0x24 }
  - { offsetInCU: 0x40567, offset: 0x69095, size: 0x8, addend: 0x0, symName: __ZNSt3__116allocator_traitsINS_9allocatorINS_11__hash_nodeINS_17__hash_value_typeIyNS_6vectorIN5hf3fs17monitor_collector15OperationRecordENS1_IS7_EEEEEEPvEEEEE10deallocateB8ue170006ERSD_PSC_m, symObjAddr: 0x89FC, symBinAddr: 0x100018F60, symSize: 0x34 }
  - { offsetInCU: 0x405A9, offset: 0x690D7, size: 0x8, addend: 0x0, symName: __ZNSt3__117__compressed_pairINS_16__hash_node_baseIPNS_11__hash_nodeINS_17__hash_value_typeIyNS_6vectorIN5hf3fs17monitor_collector15OperationRecordENS_9allocatorIS7_EEEEEEPvEEEENS8_ISD_EEE6secondB8ue170006Ev, symObjAddr: 0x8A30, symBinAddr: 0x100018F94, symSize: 0x24 }
  - { offsetInCU: 0x405CF, offset: 0x690FD, size: 0x8, addend: 0x0, symName: __ZNSt3__122__compressed_pair_elemINS_9allocatorINS_11__hash_nodeINS_17__hash_value_typeIyNS_6vectorIN5hf3fs17monitor_collector15OperationRecordENS1_IS7_EEEEEEPvEEEELi1ELb1EE5__getB8ue170006Ev, symObjAddr: 0x8A54, symBinAddr: 0x100018FB8, symSize: 0x14 }
  - { offsetInCU: 0x405F5, offset: 0x69123, size: 0x8, addend: 0x0, symName: __ZNSt3__114pointer_traitsIPNS_16__hash_node_baseIPNS_11__hash_nodeINS_17__hash_value_typeIyNS_6vectorIN5hf3fs17monitor_collector15OperationRecordENS_9allocatorIS7_EEEEEEPvEEEEE10pointer_toB8ue170006ERSF_, symObjAddr: 0x8A68, symBinAddr: 0x100018FCC, symSize: 0x14 }
  - { offsetInCU: 0x40618, offset: 0x69146, size: 0x8, addend: 0x0, symName: __ZNSt3__14pairIKyNS_6vectorIN5hf3fs17monitor_collector15OperationRecordENS_9allocatorIS5_EEEEED1Ev, symObjAddr: 0x8A7C, symBinAddr: 0x100018FE0, symSize: 0x2C }
  - { offsetInCU: 0x40644, offset: 0x69172, size: 0x8, addend: 0x0, symName: __ZNSt3__14pairIKyNS_6vectorIN5hf3fs17monitor_collector15OperationRecordENS_9allocatorIS5_EEEEED2Ev, symObjAddr: 0x8AA8, symBinAddr: 0x10001900C, symSize: 0x30 }
  - { offsetInCU: 0x40670, offset: 0x6919E, size: 0x8, addend: 0x0, symName: __ZNSt3__16vectorIN5hf3fs17monitor_collector15OperationRecordENS_9allocatorIS3_EEED1B8ue170006Ev, symObjAddr: 0x8AD8, symBinAddr: 0x10001903C, symSize: 0x2C }
  - { offsetInCU: 0x4069A, offset: 0x691C8, size: 0x8, addend: 0x0, symName: __ZNSt3__16vectorIN5hf3fs17monitor_collector15OperationRecordENS_9allocatorIS3_EEED2B8ue170006Ev, symObjAddr: 0x8B04, symBinAddr: 0x100019068, symSize: 0x44 }
  - { offsetInCU: 0x406C4, offset: 0x691F2, size: 0x8, addend: 0x0, symName: __ZNSt3__16vectorIN5hf3fs17monitor_collector15OperationRecordENS_9allocatorIS3_EEE16__destroy_vectorC1B8ue170006ERS6_, symObjAddr: 0x8B48, symBinAddr: 0x1000190AC, symSize: 0x34 }
  - { offsetInCU: 0x406FD, offset: 0x6922B, size: 0x8, addend: 0x0, symName: __ZNSt3__16vectorIN5hf3fs17monitor_collector15OperationRecordENS_9allocatorIS3_EEE16__destroy_vectorclB8ue170006Ev, symObjAddr: 0x8B7C, symBinAddr: 0x1000190E0, symSize: 0x90 }
  - { offsetInCU: 0x40723, offset: 0x69251, size: 0x8, addend: 0x0, symName: __ZNSt3__16vectorIN5hf3fs17monitor_collector15OperationRecordENS_9allocatorIS3_EEE16__destroy_vectorC2B8ue170006ERS6_, symObjAddr: 0x8C0C, symBinAddr: 0x100019170, symSize: 0x20 }
  - { offsetInCU: 0x4075C, offset: 0x6928A, size: 0x8, addend: 0x0, symName: __ZNSt3__16vectorIN5hf3fs17monitor_collector15OperationRecordENS_9allocatorIS3_EEE7__clearB8ue170006Ev, symObjAddr: 0x8C2C, symBinAddr: 0x100019190, symSize: 0x28 }
  - { offsetInCU: 0x40782, offset: 0x692B0, size: 0x8, addend: 0x0, symName: __ZNKSt3__16vectorIN5hf3fs17monitor_collector15OperationRecordENS_9allocatorIS3_EEE17__annotate_deleteB8ue170006Ev, symObjAddr: 0x8C54, symBinAddr: 0x1000191B8, symSize: 0xD4 }
  - { offsetInCU: 0x407A8, offset: 0x692D6, size: 0x8, addend: 0x0, symName: __ZNSt3__116allocator_traitsINS_9allocatorIN5hf3fs17monitor_collector15OperationRecordEEEE10deallocateB8ue170006ERS5_PS4_m, symObjAddr: 0x8D28, symBinAddr: 0x10001928C, symSize: 0x34 }
  - { offsetInCU: 0x407EA, offset: 0x69318, size: 0x8, addend: 0x0, symName: __ZNSt3__16vectorIN5hf3fs17monitor_collector15OperationRecordENS_9allocatorIS3_EEE7__allocB8ue170006Ev, symObjAddr: 0x8D5C, symBinAddr: 0x1000192C0, symSize: 0x28 }
  - { offsetInCU: 0x40810, offset: 0x6933E, size: 0x8, addend: 0x0, symName: __ZNKSt3__16vectorIN5hf3fs17monitor_collector15OperationRecordENS_9allocatorIS3_EEE8capacityB8ue170006Ev, symObjAddr: 0x8D84, symBinAddr: 0x1000192E8, symSize: 0x40 }
  - { offsetInCU: 0x40836, offset: 0x69364, size: 0x8, addend: 0x0, symName: __ZNSt3__16vectorIN5hf3fs17monitor_collector15OperationRecordENS_9allocatorIS3_EEE22__base_destruct_at_endB8ue170006EPS3_, symObjAddr: 0x8DC4, symBinAddr: 0x100019328, symSize: 0x8C }
  - { offsetInCU: 0x4087A, offset: 0x693A8, size: 0x8, addend: 0x0, symName: __ZNSt3__116allocator_traitsINS_9allocatorIN5hf3fs17monitor_collector15OperationRecordEEEE7destroyB8ue170006IS4_vEEvRS5_PT_, symObjAddr: 0x8E50, symBinAddr: 0x1000193B4, symSize: 0x2C }
  - { offsetInCU: 0x408B7, offset: 0x693E5, size: 0x8, addend: 0x0, symName: __ZNSt3__19allocatorIN5hf3fs17monitor_collector15OperationRecordEE7destroyB8ue170006EPS3_, symObjAddr: 0x8E90, symBinAddr: 0x1000193F4, symSize: 0x28 }
  - { offsetInCU: 0x408F0, offset: 0x6941E, size: 0x8, addend: 0x0, symName: __ZNKSt3__16vectorIN5hf3fs17monitor_collector15OperationRecordENS_9allocatorIS3_EEE31__annotate_contiguous_containerB8ue170006EPKvS8_S8_S8_, symObjAddr: 0x8F20, symBinAddr: 0x10001941C, symSize: 0x20 }
  - { offsetInCU: 0x40942, offset: 0x69470, size: 0x8, addend: 0x0, symName: __ZNKSt3__16vectorIN5hf3fs17monitor_collector15OperationRecordENS_9allocatorIS3_EEE4dataB8ue170006Ev, symObjAddr: 0x8F40, symBinAddr: 0x10001943C, symSize: 0x28 }
  - { offsetInCU: 0x40968, offset: 0x69496, size: 0x8, addend: 0x0, symName: __ZNKSt3__16vectorIN5hf3fs17monitor_collector15OperationRecordENS_9allocatorIS3_EEE4sizeB8ue170006Ev, symObjAddr: 0x8F68, symBinAddr: 0x100019464, symSize: 0x28 }
  - { offsetInCU: 0x4098E, offset: 0x694BC, size: 0x8, addend: 0x0, symName: __ZNSt3__19allocatorIN5hf3fs17monitor_collector15OperationRecordEE10deallocateB8ue170006EPS3_m, symObjAddr: 0x8F90, symBinAddr: 0x10001948C, symSize: 0x44 }
  - { offsetInCU: 0x409D0, offset: 0x694FE, size: 0x8, addend: 0x0, symName: __ZNSt3__117__compressed_pairIPN5hf3fs17monitor_collector15OperationRecordENS_9allocatorIS3_EEE6secondB8ue170006Ev, symObjAddr: 0x8FD4, symBinAddr: 0x1000194D0, symSize: 0x24 }
  - { offsetInCU: 0x409F6, offset: 0x69524, size: 0x8, addend: 0x0, symName: __ZNSt3__122__compressed_pair_elemINS_9allocatorIN5hf3fs17monitor_collector15OperationRecordEEELi1ELb1EE5__getB8ue170006Ev, symObjAddr: 0x8FF8, symBinAddr: 0x1000194F4, symSize: 0x14 }
  - { offsetInCU: 0x40A1C, offset: 0x6954A, size: 0x8, addend: 0x0, symName: __ZNKSt3__16vectorIN5hf3fs17monitor_collector15OperationRecordENS_9allocatorIS3_EEE9__end_capB8ue170006Ev, symObjAddr: 0x900C, symBinAddr: 0x100019508, symSize: 0x28 }
  - { offsetInCU: 0x40A42, offset: 0x69570, size: 0x8, addend: 0x0, symName: __ZNKSt3__117__compressed_pairIPN5hf3fs17monitor_collector15OperationRecordENS_9allocatorIS3_EEE5firstB8ue170006Ev, symObjAddr: 0x9034, symBinAddr: 0x100019530, symSize: 0x24 }
  - { offsetInCU: 0x40A68, offset: 0x69596, size: 0x8, addend: 0x0, symName: __ZNKSt3__122__compressed_pair_elemIPN5hf3fs17monitor_collector15OperationRecordELi0ELb0EE5__getB8ue170006Ev, symObjAddr: 0x9058, symBinAddr: 0x100019554, symSize: 0x14 }
  - { offsetInCU: 0x40A8E, offset: 0x695BC, size: 0x8, addend: 0x0, symName: __ZNSt3__117__hash_value_typeIyNS_6vectorIN5hf3fs17monitor_collector15OperationRecordENS_9allocatorIS4_EEEEE11__get_valueB8ue170006Ev, symObjAddr: 0x906C, symBinAddr: 0x100019568, symSize: 0x24 }
  - { offsetInCU: 0x40AB4, offset: 0x695E2, size: 0x8, addend: 0x0, symName: __ZNSt3__19allocatorINS_11__hash_nodeINS_17__hash_value_typeIyNS_6vectorIN5hf3fs17monitor_collector15OperationRecordENS0_IS6_EEEEEEPvEEE10deallocateB8ue170006EPSB_m, symObjAddr: 0x90C8, symBinAddr: 0x1000195C4, symSize: 0x44 }
  - { offsetInCU: 0x40AF6, offset: 0x69624, size: 0x8, addend: 0x0, symName: __ZNSt3__122__compressed_pair_elemINS_16__hash_node_baseIPNS_11__hash_nodeINS_17__hash_value_typeIyNS_6vectorIN5hf3fs17monitor_collector15OperationRecordENS_9allocatorIS7_EEEEEEPvEEEELi0ELb0EE5__getB8ue170006Ev, symObjAddr: 0x910C, symBinAddr: 0x100019608, symSize: 0x14 }
  - { offsetInCU: 0x40B1C, offset: 0x6964A, size: 0x8, addend: 0x0, symName: __ZNSt3__110unique_ptrIA_PNS_16__hash_node_baseIPNS_11__hash_nodeINS_17__hash_value_typeIyNS_6vectorIN5hf3fs17monitor_collector15OperationRecordENS_9allocatorIS7_EEEEEEPvEEEENS_25__bucket_list_deallocatorINS8_ISG_EEEEED2B8ue170006Ev, symObjAddr: 0x9120, symBinAddr: 0x10001961C, symSize: 0x30 }
  - { offsetInCU: 0x40B46, offset: 0x69674, size: 0x8, addend: 0x0, symName: __ZNSt3__110unique_ptrIA_PNS_16__hash_node_baseIPNS_11__hash_nodeINS_17__hash_value_typeIyNS_6vectorIN5hf3fs17monitor_collector15OperationRecordENS_9allocatorIS7_EEEEEEPvEEEENS_25__bucket_list_deallocatorINS8_ISG_EEEEE5resetB8ue170006EDn, symObjAddr: 0x9150, symBinAddr: 0x10001964C, symSize: 0x6C }
  - { offsetInCU: 0x40B86, offset: 0x696B4, size: 0x8, addend: 0x0, symName: __ZNSt3__117__compressed_pairIPPNS_16__hash_node_baseIPNS_11__hash_nodeINS_17__hash_value_typeIyNS_6vectorIN5hf3fs17monitor_collector15OperationRecordENS_9allocatorIS7_EEEEEEPvEEEENS_25__bucket_list_deallocatorINS8_ISG_EEEEE5firstB8ue170006Ev, symObjAddr: 0x91BC, symBinAddr: 0x1000196B8, symSize: 0x24 }
  - { offsetInCU: 0x40BAC, offset: 0x696DA, size: 0x8, addend: 0x0, symName: __ZNSt3__117__compressed_pairIPPNS_16__hash_node_baseIPNS_11__hash_nodeINS_17__hash_value_typeIyNS_6vectorIN5hf3fs17monitor_collector15OperationRecordENS_9allocatorIS7_EEEEEEPvEEEENS_25__bucket_list_deallocatorINS8_ISG_EEEEE6secondB8ue170006Ev, symObjAddr: 0x91E0, symBinAddr: 0x1000196DC, symSize: 0x28 }
  - { offsetInCU: 0x40BD2, offset: 0x69700, size: 0x8, addend: 0x0, symName: __ZNSt3__125__bucket_list_deallocatorINS_9allocatorIPNS_16__hash_node_baseIPNS_11__hash_nodeINS_17__hash_value_typeIyNS_6vectorIN5hf3fs17monitor_collector15OperationRecordENS1_IS8_EEEEEEPvEEEEEEEclB8ue170006EPSG_, symObjAddr: 0x9208, symBinAddr: 0x100019704, symSize: 0x58 }
  - { offsetInCU: 0x40C07, offset: 0x69735, size: 0x8, addend: 0x0, symName: __ZNSt3__122__compressed_pair_elemIPPNS_16__hash_node_baseIPNS_11__hash_nodeINS_17__hash_value_typeIyNS_6vectorIN5hf3fs17monitor_collector15OperationRecordENS_9allocatorIS7_EEEEEEPvEEEELi0ELb0EE5__getB8ue170006Ev, symObjAddr: 0x9260, symBinAddr: 0x10001975C, symSize: 0x14 }
  - { offsetInCU: 0x40C2D, offset: 0x6975B, size: 0x8, addend: 0x0, symName: __ZNSt3__122__compressed_pair_elemINS_25__bucket_list_deallocatorINS_9allocatorIPNS_16__hash_node_baseIPNS_11__hash_nodeINS_17__hash_value_typeIyNS_6vectorIN5hf3fs17monitor_collector15OperationRecordENS2_IS9_EEEEEEPvEEEEEEEELi1ELb0EE5__getB8ue170006Ev, symObjAddr: 0x9274, symBinAddr: 0x100019770, symSize: 0x14 }
  - { offsetInCU: 0x40C53, offset: 0x69781, size: 0x8, addend: 0x0, symName: __ZNSt3__116allocator_traitsINS_9allocatorIPNS_16__hash_node_baseIPNS_11__hash_nodeINS_17__hash_value_typeIyNS_6vectorIN5hf3fs17monitor_collector15OperationRecordENS1_IS8_EEEEEEPvEEEEEEE10deallocateB8ue170006ERSH_PSG_m, symObjAddr: 0x9288, symBinAddr: 0x100019784, symSize: 0x34 }
  - { offsetInCU: 0x40C95, offset: 0x697C3, size: 0x8, addend: 0x0, symName: __ZNSt3__125__bucket_list_deallocatorINS_9allocatorIPNS_16__hash_node_baseIPNS_11__hash_nodeINS_17__hash_value_typeIyNS_6vectorIN5hf3fs17monitor_collector15OperationRecordENS1_IS8_EEEEEEPvEEEEEEE7__allocB8ue170006Ev, symObjAddr: 0x92BC, symBinAddr: 0x1000197B8, symSize: 0x24 }
  - { offsetInCU: 0x40CBB, offset: 0x697E9, size: 0x8, addend: 0x0, symName: __ZNSt3__125__bucket_list_deallocatorINS_9allocatorIPNS_16__hash_node_baseIPNS_11__hash_nodeINS_17__hash_value_typeIyNS_6vectorIN5hf3fs17monitor_collector15OperationRecordENS1_IS8_EEEEEEPvEEEEEEE4sizeB8ue170006Ev, symObjAddr: 0x92E0, symBinAddr: 0x1000197DC, symSize: 0x24 }
  - { offsetInCU: 0x40CE1, offset: 0x6980F, size: 0x8, addend: 0x0, symName: __ZNSt3__19allocatorIPNS_16__hash_node_baseIPNS_11__hash_nodeINS_17__hash_value_typeIyNS_6vectorIN5hf3fs17monitor_collector15OperationRecordENS0_IS7_EEEEEEPvEEEEE10deallocateB8ue170006EPSF_m, symObjAddr: 0x9304, symBinAddr: 0x100019800, symSize: 0x40 }
  - { offsetInCU: 0x40D23, offset: 0x69851, size: 0x8, addend: 0x0, symName: __ZNSt3__117__compressed_pairImNS_9allocatorIPNS_16__hash_node_baseIPNS_11__hash_nodeINS_17__hash_value_typeIyNS_6vectorIN5hf3fs17monitor_collector15OperationRecordENS1_IS8_EEEEEEPvEEEEEEE6secondB8ue170006Ev, symObjAddr: 0x9344, symBinAddr: 0x100019840, symSize: 0x24 }
  - { offsetInCU: 0x40D49, offset: 0x69877, size: 0x8, addend: 0x0, symName: __ZNSt3__122__compressed_pair_elemINS_9allocatorIPNS_16__hash_node_baseIPNS_11__hash_nodeINS_17__hash_value_typeIyNS_6vectorIN5hf3fs17monitor_collector15OperationRecordENS1_IS8_EEEEEEPvEEEEEELi1ELb1EE5__getB8ue170006Ev, symObjAddr: 0x9368, symBinAddr: 0x100019864, symSize: 0x14 }
  - { offsetInCU: 0x40D6F, offset: 0x6989D, size: 0x8, addend: 0x0, symName: __ZNSt3__117__compressed_pairImNS_9allocatorIPNS_16__hash_node_baseIPNS_11__hash_nodeINS_17__hash_value_typeIyNS_6vectorIN5hf3fs17monitor_collector15OperationRecordENS1_IS8_EEEEEEPvEEEEEEE5firstB8ue170006Ev, symObjAddr: 0x937C, symBinAddr: 0x100019878, symSize: 0x24 }
  - { offsetInCU: 0x40D95, offset: 0x698C3, size: 0x8, addend: 0x0, symName: __ZN5hf3fs6ResultINS_4VoidENSt3__112basic_stringIcNS2_11char_traitsIcEENS2_9allocatorIcEEEEEC1ES1_, symObjAddr: 0x93D0, symBinAddr: 0x10001989C, symSize: 0x2C }
  - { offsetInCU: 0x40DCD, offset: 0x698FB, size: 0x8, addend: 0x0, symName: __ZN5hf3fs6ResultINS_4VoidENSt3__112basic_stringIcNS2_11char_traitsIcEENS2_9allocatorIcEEEEEC2ES1_, symObjAddr: 0x93FC, symBinAddr: 0x1000198C8, symSize: 0x38 }
  - { offsetInCU: 0x40E05, offset: 0x69933, size: 0x8, addend: 0x0, symName: __ZNSt3__16chrono8durationIxNS_5ratioILl1ELl1000EEEEC2B8ue170006IyEERKT_PNS_9enable_ifIXaasr14is_convertibleIS8_xEE5valueooL_ZNS_17integral_constantIbLb0EE5valueEEntsr23treat_as_floating_pointIS6_EE5valueEvE4typeE, symObjAddr: 0x9434, symBinAddr: 0x100019900, symSize: 0x28 }
  - { offsetInCU: 0x40E5C, offset: 0x6998A, size: 0x8, addend: 0x0, symName: __ZNSt3__110shared_ptrIN5hf3fs17monitor_collector13WorkloadStatsEEC2B8ue170006EDn, symObjAddr: 0x9588, symBinAddr: 0x100019928, symSize: 0x20 }
  - { offsetInCU: 0x40E91, offset: 0x699BF, size: 0x8, addend: 0x0, symName: __ZNKSt3__111__wrap_iterIPNS_10shared_ptrIN5hf3fs17monitor_collector13WorkloadStatsEEEE4baseB8ue170006Ev, symObjAddr: 0x95F0, symBinAddr: 0x100019990, symSize: 0x18 }
  - { offsetInCU: 0x40EB7, offset: 0x699E5, size: 0x8, addend: 0x0, symName: __ZN5folly7dynamicC2ERKS0_, symObjAddr: 0x9608, symBinAddr: 0x1000199A8, symSize: 0xD4 }
  - { offsetInCU: 0x40EEC, offset: 0x69A1A, size: 0x8, addend: 0x0, symName: __ZNSt3__113unordered_mapINS_12basic_stringIcNS_11char_traitsIcEENS_9allocatorIcEEEEN5folly7dynamicENS_4hashIS6_EENS_8equal_toIS6_EENS4_INS_4pairIKS6_S8_EEEEEC1ERKSH_, symObjAddr: 0x96DC, symBinAddr: 0x100019A7C, symSize: 0x34 }
  - { offsetInCU: 0x40F27, offset: 0x69A55, size: 0x8, addend: 0x0, symName: __ZNSt3__16vectorIN5folly7dynamicENS_9allocatorIS2_EEEC1ERKS5_, symObjAddr: 0x9710, symBinAddr: 0x100019AB0, symSize: 0x34 }
  - { offsetInCU: 0x40F62, offset: 0x69A90, size: 0x8, addend: 0x0, symName: __ZNSt3__113unordered_mapINS_12basic_stringIcNS_11char_traitsIcEENS_9allocatorIcEEEEN5folly7dynamicENS_4hashIS6_EENS_8equal_toIS6_EENS4_INS_4pairIKS6_S8_EEEEEC2ERKSH_, symObjAddr: 0x9744, symBinAddr: 0x100019AE4, symSize: 0xA0 }
  - { offsetInCU: 0x40F9D, offset: 0x69ACB, size: 0x8, addend: 0x0, symName: __ZNSt3__112__hash_tableINS_17__hash_value_typeINS_12basic_stringIcNS_11char_traitsIcEENS_9allocatorIcEEEEN5folly7dynamicEEENS_22__unordered_map_hasherIS7_SA_NS_4hashIS7_EENS_8equal_toIS7_EELb1EEENS_21__unordered_map_equalIS7_SA_SF_SD_Lb1EEENS5_ISA_EEEC1ERKSK_, symObjAddr: 0x97E4, symBinAddr: 0x100019B84, symSize: 0x34 }
  - { offsetInCU: 0x40FD8, offset: 0x69B06, size: 0x8, addend: 0x0, symName: __ZNSt3__112__hash_tableINS_17__hash_value_typeINS_12basic_stringIcNS_11char_traitsIcEENS_9allocatorIcEEEEN5folly7dynamicEEENS_22__unordered_map_hasherIS7_SA_NS_4hashIS7_EENS_8equal_toIS7_EELb1EEENS_21__unordered_map_equalIS7_SA_SF_SD_Lb1EEENS5_ISA_EEE15__rehash_uniqueB8ue170006Em, symObjAddr: 0x9818, symBinAddr: 0x100019BB8, symSize: 0x2C }
  - { offsetInCU: 0x4100D, offset: 0x69B3B, size: 0x8, addend: 0x0, symName: __ZNKSt3__113unordered_mapINS_12basic_stringIcNS_11char_traitsIcEENS_9allocatorIcEEEEN5folly7dynamicENS_4hashIS6_EENS_8equal_toIS6_EENS4_INS_4pairIKS6_S8_EEEEE12bucket_countB8ue170006Ev, symObjAddr: 0x9844, symBinAddr: 0x100019BE4, symSize: 0x24 }
  - { offsetInCU: 0x41033, offset: 0x69B61, size: 0x8, addend: 0x0, symName: __ZNSt3__113unordered_mapINS_12basic_stringIcNS_11char_traitsIcEENS_9allocatorIcEEEEN5folly7dynamicENS_4hashIS6_EENS_8equal_toIS6_EENS4_INS_4pairIKS6_S8_EEEEE6insertINS_25__hash_map_const_iteratorINS_21__hash_const_iteratorIPNS_11__hash_nodeINS_17__hash_value_typeIS6_S8_EEPvEEEEEEEEvT_ST_, symObjAddr: 0x9868, symBinAddr: 0x100019C08, symSize: 0x70 }
  - { offsetInCU: 0x41082, offset: 0x69BB0, size: 0x8, addend: 0x0, symName: __ZNKSt3__113unordered_mapINS_12basic_stringIcNS_11char_traitsIcEENS_9allocatorIcEEEEN5folly7dynamicENS_4hashIS6_EENS_8equal_toIS6_EENS4_INS_4pairIKS6_S8_EEEEE5beginB8ue170006Ev, symObjAddr: 0x98D8, symBinAddr: 0x100019C78, symSize: 0x38 }
  - { offsetInCU: 0x410A8, offset: 0x69BD6, size: 0x8, addend: 0x0, symName: __ZNKSt3__113unordered_mapINS_12basic_stringIcNS_11char_traitsIcEENS_9allocatorIcEEEEN5folly7dynamicENS_4hashIS6_EENS_8equal_toIS6_EENS4_INS_4pairIKS6_S8_EEEEE3endB8ue170006Ev, symObjAddr: 0x9910, symBinAddr: 0x100019CB0, symSize: 0x38 }
  - { offsetInCU: 0x410CE, offset: 0x69BFC, size: 0x8, addend: 0x0, symName: __ZNSt3__112__hash_tableINS_17__hash_value_typeINS_12basic_stringIcNS_11char_traitsIcEENS_9allocatorIcEEEEN5folly7dynamicEEENS_22__unordered_map_hasherIS7_SA_NS_4hashIS7_EENS_8equal_toIS7_EELb1EEENS_21__unordered_map_equalIS7_SA_SF_SD_Lb1EEENS5_ISA_EEEC2ERKSK_, symObjAddr: 0x9948, symBinAddr: 0x100019CE8, symSize: 0xEC }
  - { offsetInCU: 0x41114, offset: 0x69C42, size: 0x8, addend: 0x0, symName: __ZNSt3__116allocator_traitsINS_9allocatorIPNS_16__hash_node_baseIPNS_11__hash_nodeINS_17__hash_value_typeINS_12basic_stringIcNS_11char_traitsIcEENS1_IcEEEEN5folly7dynamicEEEPvEEEEEEE37select_on_container_copy_constructionB8ue170006ISI_vvEESI_RKSI_, symObjAddr: 0x9A34, symBinAddr: 0x100019DD4, symSize: 0x10 }
  - { offsetInCU: 0x41143, offset: 0x69C71, size: 0x8, addend: 0x0, symName: __ZNKSt3__110unique_ptrIA_PNS_16__hash_node_baseIPNS_11__hash_nodeINS_17__hash_value_typeINS_12basic_stringIcNS_11char_traitsIcEENS_9allocatorIcEEEEN5folly7dynamicEEEPvEEEENS_25__bucket_list_deallocatorINS7_ISH_EEEEE11get_deleterB8ue170006Ev, symObjAddr: 0x9A44, symBinAddr: 0x100019DE4, symSize: 0x24 }
  - { offsetInCU: 0x41169, offset: 0x69C97, size: 0x8, addend: 0x0, symName: __ZNKSt3__125__bucket_list_deallocatorINS_9allocatorIPNS_16__hash_node_baseIPNS_11__hash_nodeINS_17__hash_value_typeINS_12basic_stringIcNS_11char_traitsIcEENS1_IcEEEEN5folly7dynamicEEEPvEEEEEEE7__allocB8ue170006Ev, symObjAddr: 0x9A68, symBinAddr: 0x100019E08, symSize: 0x24 }
  - { offsetInCU: 0x4118F, offset: 0x69CBD, size: 0x8, addend: 0x0, symName: __ZNSt3__125__bucket_list_deallocatorINS_9allocatorIPNS_16__hash_node_baseIPNS_11__hash_nodeINS_17__hash_value_typeINS_12basic_stringIcNS_11char_traitsIcEENS1_IcEEEEN5folly7dynamicEEEPvEEEEEEEC1B8ue170006ERKSI_m, symObjAddr: 0x9A8C, symBinAddr: 0x100019E2C, symSize: 0x3C }
  - { offsetInCU: 0x411D7, offset: 0x69D05, size: 0x8, addend: 0x0, symName: __ZNSt3__110unique_ptrIA_PNS_16__hash_node_baseIPNS_11__hash_nodeINS_17__hash_value_typeINS_12basic_stringIcNS_11char_traitsIcEENS_9allocatorIcEEEEN5folly7dynamicEEEPvEEEENS_25__bucket_list_deallocatorINS7_ISH_EEEEEC1B8ue170006ILb1EvEEDnNS_16__dependent_typeINS_27__unique_ptr_deleter_sfinaeISL_EEXT_EE20__good_rval_ref_typeE, symObjAddr: 0x9AC8, symBinAddr: 0x100019E68, symSize: 0x3C }
  - { offsetInCU: 0x41231, offset: 0x69D5F, size: 0x8, addend: 0x0, symName: __ZNSt3__116allocator_traitsINS_9allocatorINS_11__hash_nodeINS_17__hash_value_typeINS_12basic_stringIcNS_11char_traitsIcEENS1_IcEEEEN5folly7dynamicEEEPvEEEEE37select_on_container_copy_constructionB8ue170006ISE_vvEESE_RKSE_, symObjAddr: 0x9B04, symBinAddr: 0x100019EA4, symSize: 0x10 }
  - { offsetInCU: 0x41260, offset: 0x69D8E, size: 0x8, addend: 0x0, symName: __ZNKSt3__112__hash_tableINS_17__hash_value_typeINS_12basic_stringIcNS_11char_traitsIcEENS_9allocatorIcEEEEN5folly7dynamicEEENS_22__unordered_map_hasherIS7_SA_NS_4hashIS7_EENS_8equal_toIS7_EELb1EEENS_21__unordered_map_equalIS7_SA_SF_SD_Lb1EEENS5_ISA_EEE12__node_allocB8ue170006Ev, symObjAddr: 0x9B14, symBinAddr: 0x100019EB4, symSize: 0x28 }
  - { offsetInCU: 0x4128C, offset: 0x69DBA, size: 0x8, addend: 0x0, symName: __ZNSt3__117__compressed_pairINS_16__hash_node_baseIPNS_11__hash_nodeINS_17__hash_value_typeINS_12basic_stringIcNS_11char_traitsIcEENS_9allocatorIcEEEEN5folly7dynamicEEEPvEEEENS7_ISE_EEEC1B8ue170006INS_18__default_init_tagESH_EEOT_OT0_, symObjAddr: 0x9B3C, symBinAddr: 0x100019EDC, symSize: 0x3C }
  - { offsetInCU: 0x412E4, offset: 0x69E12, size: 0x8, addend: 0x0, symName: __ZNKSt3__112__hash_tableINS_17__hash_value_typeINS_12basic_stringIcNS_11char_traitsIcEENS_9allocatorIcEEEEN5folly7dynamicEEENS_22__unordered_map_hasherIS7_SA_NS_4hashIS7_EENS_8equal_toIS7_EELb1EEENS_21__unordered_map_equalIS7_SA_SF_SD_Lb1EEENS5_ISA_EEE13hash_functionB8ue170006Ev, symObjAddr: 0x9B78, symBinAddr: 0x100019F18, symSize: 0x28 }
  - { offsetInCU: 0x4130A, offset: 0x69E38, size: 0x8, addend: 0x0, symName: __ZNSt3__117__compressed_pairImNS_22__unordered_map_hasherINS_12basic_stringIcNS_11char_traitsIcEENS_9allocatorIcEEEENS_17__hash_value_typeIS7_N5folly7dynamicEEENS_4hashIS7_EENS_8equal_toIS7_EELb1EEEEC1B8ue170006IiRKSG_EEOT_OT0_, symObjAddr: 0x9BA0, symBinAddr: 0x100019F40, symSize: 0x3C }
  - { offsetInCU: 0x41362, offset: 0x69E90, size: 0x8, addend: 0x0, symName: __ZNKSt3__117__compressed_pairIPPNS_16__hash_node_baseIPNS_11__hash_nodeINS_17__hash_value_typeINS_12basic_stringIcNS_11char_traitsIcEENS_9allocatorIcEEEEN5folly7dynamicEEEPvEEEENS_25__bucket_list_deallocatorINS7_ISH_EEEEE6secondB8ue170006Ev, symObjAddr: 0x9BDC, symBinAddr: 0x100019F7C, symSize: 0x28 }
  - { offsetInCU: 0x41388, offset: 0x69EB6, size: 0x8, addend: 0x0, symName: __ZNKSt3__122__compressed_pair_elemINS_25__bucket_list_deallocatorINS_9allocatorIPNS_16__hash_node_baseIPNS_11__hash_nodeINS_17__hash_value_typeINS_12basic_stringIcNS_11char_traitsIcEENS2_IcEEEEN5folly7dynamicEEEPvEEEEEEEELi1ELb0EE5__getB8ue170006Ev, symObjAddr: 0x9C04, symBinAddr: 0x100019FA4, symSize: 0x14 }
  - { offsetInCU: 0x413AE, offset: 0x69EDC, size: 0x8, addend: 0x0, symName: __ZNKSt3__117__compressed_pairImNS_9allocatorIPNS_16__hash_node_baseIPNS_11__hash_nodeINS_17__hash_value_typeINS_12basic_stringIcNS_11char_traitsIcEENS1_IcEEEEN5folly7dynamicEEEPvEEEEEEE6secondB8ue170006Ev, symObjAddr: 0x9C18, symBinAddr: 0x100019FB8, symSize: 0x24 }
  - { offsetInCU: 0x413D4, offset: 0x69F02, size: 0x8, addend: 0x0, symName: __ZNKSt3__122__compressed_pair_elemINS_9allocatorIPNS_16__hash_node_baseIPNS_11__hash_nodeINS_17__hash_value_typeINS_12basic_stringIcNS_11char_traitsIcEENS1_IcEEEEN5folly7dynamicEEEPvEEEEEELi1ELb1EE5__getB8ue170006Ev, symObjAddr: 0x9C3C, symBinAddr: 0x100019FDC, symSize: 0x14 }
  - { offsetInCU: 0x413FA, offset: 0x69F28, size: 0x8, addend: 0x0, symName: __ZNSt3__125__bucket_list_deallocatorINS_9allocatorIPNS_16__hash_node_baseIPNS_11__hash_nodeINS_17__hash_value_typeINS_12basic_stringIcNS_11char_traitsIcEENS1_IcEEEEN5folly7dynamicEEEPvEEEEEEEC2B8ue170006ERKSI_m, symObjAddr: 0x9C50, symBinAddr: 0x100019FF0, symSize: 0x44 }
  - { offsetInCU: 0x41442, offset: 0x69F70, size: 0x8, addend: 0x0, symName: __ZNSt3__117__compressed_pairImNS_9allocatorIPNS_16__hash_node_baseIPNS_11__hash_nodeINS_17__hash_value_typeINS_12basic_stringIcNS_11char_traitsIcEENS1_IcEEEEN5folly7dynamicEEEPvEEEEEEEC1B8ue170006IRmRKSI_EEOT_OT0_, symObjAddr: 0x9C94, symBinAddr: 0x10001A034, symSize: 0x3C }
  - { offsetInCU: 0x4149A, offset: 0x69FC8, size: 0x8, addend: 0x0, symName: __ZNSt3__117__compressed_pairImNS_9allocatorIPNS_16__hash_node_baseIPNS_11__hash_nodeINS_17__hash_value_typeINS_12basic_stringIcNS_11char_traitsIcEENS1_IcEEEEN5folly7dynamicEEEPvEEEEEEEC2B8ue170006IRmRKSI_EEOT_OT0_, symObjAddr: 0x9CD0, symBinAddr: 0x10001A070, symSize: 0x44 }
  - { offsetInCU: 0x414F2, offset: 0x6A020, size: 0x8, addend: 0x0, symName: __ZNSt3__122__compressed_pair_elemImLi0ELb0EEC2B8ue170006IRmvEEOT_, symObjAddr: 0x9D14, symBinAddr: 0x10001A0B4, symSize: 0x24 }
  - { offsetInCU: 0x41534, offset: 0x6A062, size: 0x8, addend: 0x0, symName: __ZNSt3__122__compressed_pair_elemINS_9allocatorIPNS_16__hash_node_baseIPNS_11__hash_nodeINS_17__hash_value_typeINS_12basic_stringIcNS_11char_traitsIcEENS1_IcEEEEN5folly7dynamicEEEPvEEEEEELi1ELb1EEC2B8ue170006IRKSI_vEEOT_, symObjAddr: 0x9D38, symBinAddr: 0x10001A0D8, symSize: 0x18 }
  - { offsetInCU: 0x41576, offset: 0x6A0A4, size: 0x8, addend: 0x0, symName: __ZNSt3__110unique_ptrIA_PNS_16__hash_node_baseIPNS_11__hash_nodeINS_17__hash_value_typeINS_12basic_stringIcNS_11char_traitsIcEENS_9allocatorIcEEEEN5folly7dynamicEEEPvEEEENS_25__bucket_list_deallocatorINS7_ISH_EEEEEC2B8ue170006ILb1EvEEDnNS_16__dependent_typeINS_27__unique_ptr_deleter_sfinaeISL_EEXT_EE20__good_rval_ref_typeE, symObjAddr: 0x9D50, symBinAddr: 0x10001A0F0, symSize: 0x48 }
  - { offsetInCU: 0x415C5, offset: 0x6A0F3, size: 0x8, addend: 0x0, symName: __ZNSt3__117__compressed_pairIPPNS_16__hash_node_baseIPNS_11__hash_nodeINS_17__hash_value_typeINS_12basic_stringIcNS_11char_traitsIcEENS_9allocatorIcEEEEN5folly7dynamicEEEPvEEEENS_25__bucket_list_deallocatorINS7_ISH_EEEEEC1B8ue170006IDnSL_EEOT_OT0_, symObjAddr: 0x9D98, symBinAddr: 0x10001A138, symSize: 0x3C }
  - { offsetInCU: 0x4161D, offset: 0x6A14B, size: 0x8, addend: 0x0, symName: __ZNSt3__117__compressed_pairIPPNS_16__hash_node_baseIPNS_11__hash_nodeINS_17__hash_value_typeINS_12basic_stringIcNS_11char_traitsIcEENS_9allocatorIcEEEEN5folly7dynamicEEEPvEEEENS_25__bucket_list_deallocatorINS7_ISH_EEEEEC2B8ue170006IDnSL_EEOT_OT0_, symObjAddr: 0x9DD4, symBinAddr: 0x10001A174, symSize: 0x48 }
  - { offsetInCU: 0x41675, offset: 0x6A1A3, size: 0x8, addend: 0x0, symName: __ZNSt3__122__compressed_pair_elemIPPNS_16__hash_node_baseIPNS_11__hash_nodeINS_17__hash_value_typeINS_12basic_stringIcNS_11char_traitsIcEENS_9allocatorIcEEEEN5folly7dynamicEEEPvEEEELi0ELb0EEC2B8ue170006IDnvEEOT_, symObjAddr: 0x9E1C, symBinAddr: 0x10001A1BC, symSize: 0x1C }
  - { offsetInCU: 0x416B7, offset: 0x6A1E5, size: 0x8, addend: 0x0, symName: __ZNSt3__122__compressed_pair_elemINS_25__bucket_list_deallocatorINS_9allocatorIPNS_16__hash_node_baseIPNS_11__hash_nodeINS_17__hash_value_typeINS_12basic_stringIcNS_11char_traitsIcEENS2_IcEEEEN5folly7dynamicEEEPvEEEEEEEELi1ELb0EEC2B8ue170006ISK_vEEOT_, symObjAddr: 0x9E38, symBinAddr: 0x10001A1D8, symSize: 0x34 }
  - { offsetInCU: 0x416F9, offset: 0x6A227, size: 0x8, addend: 0x0, symName: __ZNSt3__125__bucket_list_deallocatorINS_9allocatorIPNS_16__hash_node_baseIPNS_11__hash_nodeINS_17__hash_value_typeINS_12basic_stringIcNS_11char_traitsIcEENS1_IcEEEEN5folly7dynamicEEEPvEEEEEEEC1B8ue170006EOSJ_, symObjAddr: 0x9E6C, symBinAddr: 0x10001A20C, symSize: 0x34 }
  - { offsetInCU: 0x41732, offset: 0x6A260, size: 0x8, addend: 0x0, symName: __ZNSt3__125__bucket_list_deallocatorINS_9allocatorIPNS_16__hash_node_baseIPNS_11__hash_nodeINS_17__hash_value_typeINS_12basic_stringIcNS_11char_traitsIcEENS1_IcEEEEN5folly7dynamicEEEPvEEEEEEEC2B8ue170006EOSJ_, symObjAddr: 0x9EA0, symBinAddr: 0x10001A240, symSize: 0x48 }
  - { offsetInCU: 0x4176B, offset: 0x6A299, size: 0x8, addend: 0x0, symName: __ZNKSt3__117__compressed_pairINS_16__hash_node_baseIPNS_11__hash_nodeINS_17__hash_value_typeINS_12basic_stringIcNS_11char_traitsIcEENS_9allocatorIcEEEEN5folly7dynamicEEEPvEEEENS7_ISE_EEE6secondB8ue170006Ev, symObjAddr: 0x9EE8, symBinAddr: 0x10001A288, symSize: 0x24 }
  - { offsetInCU: 0x41791, offset: 0x6A2BF, size: 0x8, addend: 0x0, symName: __ZNKSt3__122__compressed_pair_elemINS_9allocatorINS_11__hash_nodeINS_17__hash_value_typeINS_12basic_stringIcNS_11char_traitsIcEENS1_IcEEEEN5folly7dynamicEEEPvEEEELi1ELb1EE5__getB8ue170006Ev, symObjAddr: 0x9F0C, symBinAddr: 0x10001A2AC, symSize: 0x14 }
  - { offsetInCU: 0x417B7, offset: 0x6A2E5, size: 0x8, addend: 0x0, symName: __ZNSt3__117__compressed_pairINS_16__hash_node_baseIPNS_11__hash_nodeINS_17__hash_value_typeINS_12basic_stringIcNS_11char_traitsIcEENS_9allocatorIcEEEEN5folly7dynamicEEEPvEEEENS7_ISE_EEEC2B8ue170006INS_18__default_init_tagESH_EEOT_OT0_, symObjAddr: 0x9F20, symBinAddr: 0x10001A2C0, symSize: 0x40 }
  - { offsetInCU: 0x4180F, offset: 0x6A33D, size: 0x8, addend: 0x0, symName: __ZNSt3__122__compressed_pair_elemINS_16__hash_node_baseIPNS_11__hash_nodeINS_17__hash_value_typeINS_12basic_stringIcNS_11char_traitsIcEENS_9allocatorIcEEEEN5folly7dynamicEEEPvEEEELi0ELb0EEC2B8ue170006ENS_18__default_init_tagE, symObjAddr: 0x9F60, symBinAddr: 0x10001A300, symSize: 0x2C }
  - { offsetInCU: 0x41844, offset: 0x6A372, size: 0x8, addend: 0x0, symName: __ZNSt3__122__compressed_pair_elemINS_9allocatorINS_11__hash_nodeINS_17__hash_value_typeINS_12basic_stringIcNS_11char_traitsIcEENS1_IcEEEEN5folly7dynamicEEEPvEEEELi1ELb1EEC2B8ue170006ISE_vEEOT_, symObjAddr: 0x9F8C, symBinAddr: 0x10001A32C, symSize: 0x18 }
  - { offsetInCU: 0x41886, offset: 0x6A3B4, size: 0x8, addend: 0x0, symName: __ZNKSt3__117__compressed_pairImNS_22__unordered_map_hasherINS_12basic_stringIcNS_11char_traitsIcEENS_9allocatorIcEEEENS_17__hash_value_typeIS7_N5folly7dynamicEEENS_4hashIS7_EENS_8equal_toIS7_EELb1EEEE6secondB8ue170006Ev, symObjAddr: 0x9FA4, symBinAddr: 0x10001A344, symSize: 0x24 }
  - { offsetInCU: 0x418AC, offset: 0x6A3DA, size: 0x8, addend: 0x0, symName: __ZNKSt3__122__compressed_pair_elemINS_22__unordered_map_hasherINS_12basic_stringIcNS_11char_traitsIcEENS_9allocatorIcEEEENS_17__hash_value_typeIS7_N5folly7dynamicEEENS_4hashIS7_EENS_8equal_toIS7_EELb1EEELi1ELb1EE5__getB8ue170006Ev, symObjAddr: 0x9FC8, symBinAddr: 0x10001A368, symSize: 0x14 }
  - { offsetInCU: 0x418D2, offset: 0x6A400, size: 0x8, addend: 0x0, symName: __ZNSt3__117__compressed_pairImNS_22__unordered_map_hasherINS_12basic_stringIcNS_11char_traitsIcEENS_9allocatorIcEEEENS_17__hash_value_typeIS7_N5folly7dynamicEEENS_4hashIS7_EENS_8equal_toIS7_EELb1EEEEC2B8ue170006IiRKSG_EEOT_OT0_, symObjAddr: 0x9FDC, symBinAddr: 0x10001A37C, symSize: 0x44 }
  - { offsetInCU: 0x4192A, offset: 0x6A458, size: 0x8, addend: 0x0, symName: __ZNSt3__122__compressed_pair_elemINS_22__unordered_map_hasherINS_12basic_stringIcNS_11char_traitsIcEENS_9allocatorIcEEEENS_17__hash_value_typeIS7_N5folly7dynamicEEENS_4hashIS7_EENS_8equal_toIS7_EELb1EEELi1ELb1EEC2B8ue170006IRKSG_vEEOT_, symObjAddr: 0xA020, symBinAddr: 0x10001A3C0, symSize: 0x18 }
  - { offsetInCU: 0x4196C, offset: 0x6A49A, size: 0x8, addend: 0x0, symName: __ZNSt3__112__hash_tableINS_17__hash_value_typeINS_12basic_stringIcNS_11char_traitsIcEENS_9allocatorIcEEEEN5folly7dynamicEEENS_22__unordered_map_hasherIS7_SA_NS_4hashIS7_EENS_8equal_toIS7_EELb1EEENS_21__unordered_map_equalIS7_SA_SF_SD_Lb1EEENS5_ISA_EEE8__rehashILb1EEEvm, symObjAddr: 0xA038, symBinAddr: 0x10001A3D8, symSize: 0x1A8 }
  - { offsetInCU: 0x419BC, offset: 0x6A4EA, size: 0x8, addend: 0x0, symName: __ZNKSt3__112__hash_tableINS_17__hash_value_typeINS_12basic_stringIcNS_11char_traitsIcEENS_9allocatorIcEEEEN5folly7dynamicEEENS_22__unordered_map_hasherIS7_SA_NS_4hashIS7_EENS_8equal_toIS7_EELb1EEENS_21__unordered_map_equalIS7_SA_SF_SD_Lb1EEENS5_ISA_EEE12bucket_countB8ue170006Ev, symObjAddr: 0xA1E0, symBinAddr: 0x10001A580, symSize: 0x28 }
  - { offsetInCU: 0x419E2, offset: 0x6A510, size: 0x8, addend: 0x0, symName: __ZNSt3__112__hash_tableINS_17__hash_value_typeINS_12basic_stringIcNS_11char_traitsIcEENS_9allocatorIcEEEEN5folly7dynamicEEENS_22__unordered_map_hasherIS7_SA_NS_4hashIS7_EENS_8equal_toIS7_EELb1EEENS_21__unordered_map_equalIS7_SA_SF_SD_Lb1EEENS5_ISA_EEE11__do_rehashILb1EEEvm, symObjAddr: 0xA208, symBinAddr: 0x10001A5A8, symSize: 0x288 }
  - { offsetInCU: 0x41AC9, offset: 0x6A5F7, size: 0x8, addend: 0x0, symName: __ZNSt3__112__hash_tableINS_17__hash_value_typeINS_12basic_stringIcNS_11char_traitsIcEENS_9allocatorIcEEEEN5folly7dynamicEEENS_22__unordered_map_hasherIS7_SA_NS_4hashIS7_EENS_8equal_toIS7_EELb1EEENS_21__unordered_map_equalIS7_SA_SF_SD_Lb1EEENS5_ISA_EEE4sizeB8ue170006Ev, symObjAddr: 0xA590, symBinAddr: 0x10001A830, symSize: 0x28 }
  - { offsetInCU: 0x41AEF, offset: 0x6A61D, size: 0x8, addend: 0x0, symName: __ZNSt3__112__hash_tableINS_17__hash_value_typeINS_12basic_stringIcNS_11char_traitsIcEENS_9allocatorIcEEEEN5folly7dynamicEEENS_22__unordered_map_hasherIS7_SA_NS_4hashIS7_EENS_8equal_toIS7_EELb1EEENS_21__unordered_map_equalIS7_SA_SF_SD_Lb1EEENS5_ISA_EEE15max_load_factorB8ue170006Ev, symObjAddr: 0xA5B8, symBinAddr: 0x10001A858, symSize: 0x28 }
  - { offsetInCU: 0x41B15, offset: 0x6A643, size: 0x8, addend: 0x0, symName: __ZNKSt3__125__bucket_list_deallocatorINS_9allocatorIPNS_16__hash_node_baseIPNS_11__hash_nodeINS_17__hash_value_typeINS_12basic_stringIcNS_11char_traitsIcEENS1_IcEEEEN5folly7dynamicEEEPvEEEEEEE4sizeB8ue170006Ev, symObjAddr: 0xA5E0, symBinAddr: 0x10001A880, symSize: 0x28 }
  - { offsetInCU: 0x41B3B, offset: 0x6A669, size: 0x8, addend: 0x0, symName: __ZNKSt3__117__compressed_pairImNS_9allocatorIPNS_16__hash_node_baseIPNS_11__hash_nodeINS_17__hash_value_typeINS_12basic_stringIcNS_11char_traitsIcEENS1_IcEEEEN5folly7dynamicEEEPvEEEEEEE5firstB8ue170006Ev, symObjAddr: 0xA608, symBinAddr: 0x10001A8A8, symSize: 0x24 }
  - { offsetInCU: 0x41B61, offset: 0x6A68F, size: 0x8, addend: 0x0, symName: __ZNSt3__110unique_ptrIA_PNS_16__hash_node_baseIPNS_11__hash_nodeINS_17__hash_value_typeINS_12basic_stringIcNS_11char_traitsIcEENS_9allocatorIcEEEEN5folly7dynamicEEEPvEEEENS_25__bucket_list_deallocatorINS7_ISH_EEEEE11get_deleterB8ue170006Ev, symObjAddr: 0xA640, symBinAddr: 0x10001A8CC, symSize: 0x24 }
  - { offsetInCU: 0x41B87, offset: 0x6A6B5, size: 0x8, addend: 0x0, symName: __ZNSt3__110unique_ptrIA_PNS_16__hash_node_baseIPNS_11__hash_nodeINS_17__hash_value_typeINS_12basic_stringIcNS_11char_traitsIcEENS_9allocatorIcEEEEN5folly7dynamicEEEPvEEEENS_25__bucket_list_deallocatorINS7_ISH_EEEEE5resetB8ue170006IPSH_EENS_9enable_ifIXsr28_CheckArrayPointerConversionIT_EE5valueEvE4typeESQ_, symObjAddr: 0xA664, symBinAddr: 0x10001A8F0, symSize: 0x78 }
  - { offsetInCU: 0x41BD4, offset: 0x6A702, size: 0x8, addend: 0x0, symName: __ZNSt3__116allocator_traitsINS_9allocatorIPNS_16__hash_node_baseIPNS_11__hash_nodeINS_17__hash_value_typeINS_12basic_stringIcNS_11char_traitsIcEENS1_IcEEEEN5folly7dynamicEEEPvEEEEEEE8allocateB8ue170006ERSI_m, symObjAddr: 0xA6DC, symBinAddr: 0x10001A968, symSize: 0x2C }
  - { offsetInCU: 0x41C07, offset: 0x6A735, size: 0x8, addend: 0x0, symName: __ZNKSt3__110unique_ptrIA_PNS_16__hash_node_baseIPNS_11__hash_nodeINS_17__hash_value_typeINS_12basic_stringIcNS_11char_traitsIcEENS_9allocatorIcEEEEN5folly7dynamicEEEPvEEEENS_25__bucket_list_deallocatorINS7_ISH_EEEEEixB8ue170006Em, symObjAddr: 0xA708, symBinAddr: 0x10001A994, symSize: 0x34 }
  - { offsetInCU: 0x41C3C, offset: 0x6A76A, size: 0x8, addend: 0x0, symName: __ZNSt3__116__hash_node_baseIPNS_11__hash_nodeINS_17__hash_value_typeINS_12basic_stringIcNS_11char_traitsIcEENS_9allocatorIcEEEEN5folly7dynamicEEEPvEEE5__ptrB8ue170006Ev, symObjAddr: 0xA73C, symBinAddr: 0x10001A9C8, symSize: 0x24 }
  - { offsetInCU: 0x41C62, offset: 0x6A790, size: 0x8, addend: 0x0, symName: __ZNKSt3__116__hash_node_baseIPNS_11__hash_nodeINS_17__hash_value_typeINS_12basic_stringIcNS_11char_traitsIcEENS_9allocatorIcEEEEN5folly7dynamicEEEPvEEE6__hashB8ue170006Ev, symObjAddr: 0xA7F8, symBinAddr: 0x10001A9EC, symSize: 0x18 }
  - { offsetInCU: 0x41C88, offset: 0x6A7B6, size: 0x8, addend: 0x0, symName: __ZNSt3__19allocatorIPNS_16__hash_node_baseIPNS_11__hash_nodeINS_17__hash_value_typeINS_12basic_stringIcNS_11char_traitsIcEENS0_IcEEEEN5folly7dynamicEEEPvEEEEE8allocateB8ue170006Em, symObjAddr: 0xA810, symBinAddr: 0x10001AA04, symSize: 0x58 }
  - { offsetInCU: 0x41CBC, offset: 0x6A7EA, size: 0x8, addend: 0x0, symName: __ZNSt3__116allocator_traitsINS_9allocatorIPNS_16__hash_node_baseIPNS_11__hash_nodeINS_17__hash_value_typeINS_12basic_stringIcNS_11char_traitsIcEENS1_IcEEEEN5folly7dynamicEEEPvEEEEEEE8max_sizeB8ue170006ISI_vEEmRKSI_, symObjAddr: 0xA868, symBinAddr: 0x10001AA5C, symSize: 0x24 }
  - { offsetInCU: 0x41CEA, offset: 0x6A818, size: 0x8, addend: 0x0, symName: __ZNKSt3__19allocatorIPNS_16__hash_node_baseIPNS_11__hash_nodeINS_17__hash_value_typeINS_12basic_stringIcNS_11char_traitsIcEENS0_IcEEEEN5folly7dynamicEEEPvEEEEE8max_sizeB8ue170006Ev, symObjAddr: 0xA920, symBinAddr: 0x10001AA80, symSize: 0x14 }
  - { offsetInCU: 0x41D10, offset: 0x6A83E, size: 0x8, addend: 0x0, symName: __ZNKSt3__117__compressed_pairIPPNS_16__hash_node_baseIPNS_11__hash_nodeINS_17__hash_value_typeINS_12basic_stringIcNS_11char_traitsIcEENS_9allocatorIcEEEEN5folly7dynamicEEEPvEEEENS_25__bucket_list_deallocatorINS7_ISH_EEEEE5firstB8ue170006Ev, symObjAddr: 0xA984, symBinAddr: 0x10001AA94, symSize: 0x24 }
  - { offsetInCU: 0x41D36, offset: 0x6A864, size: 0x8, addend: 0x0, symName: __ZNKSt3__122__compressed_pair_elemIPPNS_16__hash_node_baseIPNS_11__hash_nodeINS_17__hash_value_typeINS_12basic_stringIcNS_11char_traitsIcEENS_9allocatorIcEEEEN5folly7dynamicEEEPvEEEELi0ELb0EE5__getB8ue170006Ev, symObjAddr: 0xA9A8, symBinAddr: 0x10001AAB8, symSize: 0x14 }
  - { offsetInCU: 0x41D66, offset: 0x6A894, size: 0x8, addend: 0x0, symName: __ZNSt3__117__compressed_pairImNS_22__unordered_map_hasherINS_12basic_stringIcNS_11char_traitsIcEENS_9allocatorIcEEEENS_17__hash_value_typeIS7_N5folly7dynamicEEENS_4hashIS7_EENS_8equal_toIS7_EELb1EEEE5firstB8ue170006Ev, symObjAddr: 0xAA60, symBinAddr: 0x10001AACC, symSize: 0x24 }
  - { offsetInCU: 0x41D8C, offset: 0x6A8BA, size: 0x8, addend: 0x0, symName: __ZNSt3__117__compressed_pairIfNS_21__unordered_map_equalINS_12basic_stringIcNS_11char_traitsIcEENS_9allocatorIcEEEENS_17__hash_value_typeIS7_N5folly7dynamicEEENS_8equal_toIS7_EENS_4hashIS7_EELb1EEEE5firstB8ue170006Ev, symObjAddr: 0xAA84, symBinAddr: 0x10001AAF0, symSize: 0x24 }
  - { offsetInCU: 0x41DB2, offset: 0x6A8E0, size: 0x8, addend: 0x0, symName: __ZNSt3__112__hash_tableINS_17__hash_value_typeINS_12basic_stringIcNS_11char_traitsIcEENS_9allocatorIcEEEEN5folly7dynamicEEENS_22__unordered_map_hasherIS7_SA_NS_4hashIS7_EENS_8equal_toIS7_EELb1EEENS_21__unordered_map_equalIS7_SA_SF_SD_Lb1EEENS5_ISA_EEE15__insert_uniqueB8ue170006ERKNS_4pairIKS7_S9_EE, symObjAddr: 0xAAEC, symBinAddr: 0x10001AB44, symSize: 0x50 }
  - { offsetInCU: 0x41DE7, offset: 0x6A915, size: 0x8, addend: 0x0, symName: __ZNKSt3__125__hash_map_const_iteratorINS_21__hash_const_iteratorIPNS_11__hash_nodeINS_17__hash_value_typeINS_12basic_stringIcNS_11char_traitsIcEENS_9allocatorIcEEEEN5folly7dynamicEEEPvEEEEEdeB8ue170006Ev, symObjAddr: 0xAB3C, symBinAddr: 0x10001AB94, symSize: 0x28 }
  - { offsetInCU: 0x41E0D, offset: 0x6A93B, size: 0x8, addend: 0x0, symName: __ZNSt3__125__hash_map_const_iteratorINS_21__hash_const_iteratorIPNS_11__hash_nodeINS_17__hash_value_typeINS_12basic_stringIcNS_11char_traitsIcEENS_9allocatorIcEEEEN5folly7dynamicEEEPvEEEEEppB8ue170006Ev, symObjAddr: 0xAB64, symBinAddr: 0x10001ABBC, symSize: 0x2C }
  - { offsetInCU: 0x41E33, offset: 0x6A961, size: 0x8, addend: 0x0, symName: __ZNSt3__112__hash_tableINS_17__hash_value_typeINS_12basic_stringIcNS_11char_traitsIcEENS_9allocatorIcEEEEN5folly7dynamicEEENS_22__unordered_map_hasherIS7_SA_NS_4hashIS7_EENS_8equal_toIS7_EELb1EEENS_21__unordered_map_equalIS7_SA_SF_SD_Lb1EEENS5_ISA_EEE25__emplace_unique_key_argsIS7_JRKNS_4pairIKS7_S9_EEEEENSM_INS_15__hash_iteratorIPNS_11__hash_nodeISA_PvEEEEbEERKT_DpOT0_, symObjAddr: 0xABF4, symBinAddr: 0x10001AC4C, symSize: 0x4A0 }
  - { offsetInCU: 0x41F13, offset: 0x6AA41, size: 0x8, addend: 0x0, symName: __ZNSt3__122__hash_key_value_typesINS_17__hash_value_typeINS_12basic_stringIcNS_11char_traitsIcEENS_9allocatorIcEEEEN5folly7dynamicEEEE9__get_keyB8ue170006ERKNS_4pairIKS7_S9_EE, symObjAddr: 0xB094, symBinAddr: 0x10001B0EC, symSize: 0x14 }
  - { offsetInCU: 0x41F36, offset: 0x6AA64, size: 0x8, addend: 0x0, symName: __ZNSt3__112__hash_tableINS_17__hash_value_typeINS_12basic_stringIcNS_11char_traitsIcEENS_9allocatorIcEEEEN5folly7dynamicEEENS_22__unordered_map_hasherIS7_SA_NS_4hashIS7_EENS_8equal_toIS7_EELb1EEENS_21__unordered_map_equalIS7_SA_SF_SD_Lb1EEENS5_ISA_EEE13hash_functionB8ue170006Ev, symObjAddr: 0xB0A8, symBinAddr: 0x10001B100, symSize: 0x28 }
  - { offsetInCU: 0x41F5C, offset: 0x6AA8A, size: 0x8, addend: 0x0, symName: __ZNKSt3__122__unordered_map_hasherINS_12basic_stringIcNS_11char_traitsIcEENS_9allocatorIcEEEENS_17__hash_value_typeIS6_N5folly7dynamicEEENS_4hashIS6_EENS_8equal_toIS6_EELb1EEclB8ue170006ERKS6_, symObjAddr: 0xB0D0, symBinAddr: 0x10001B128, symSize: 0x2C }
  - { offsetInCU: 0x41F91, offset: 0x6AABF, size: 0x8, addend: 0x0, symName: __ZNSt3__112__hash_tableINS_17__hash_value_typeINS_12basic_stringIcNS_11char_traitsIcEENS_9allocatorIcEEEEN5folly7dynamicEEENS_22__unordered_map_hasherIS7_SA_NS_4hashIS7_EENS_8equal_toIS7_EELb1EEENS_21__unordered_map_equalIS7_SA_SF_SD_Lb1EEENS5_ISA_EEE6key_eqB8ue170006Ev, symObjAddr: 0xB0FC, symBinAddr: 0x10001B154, symSize: 0x28 }
  - { offsetInCU: 0x41FB7, offset: 0x6AAE5, size: 0x8, addend: 0x0, symName: __ZNKSt3__121__unordered_map_equalINS_12basic_stringIcNS_11char_traitsIcEENS_9allocatorIcEEEENS_17__hash_value_typeIS6_N5folly7dynamicEEENS_8equal_toIS6_EENS_4hashIS6_EELb1EEclB8ue170006ERKSA_RKS6_, symObjAddr: 0xB124, symBinAddr: 0x10001B17C, symSize: 0x48 }
  - { offsetInCU: 0x41FFB, offset: 0x6AB29, size: 0x8, addend: 0x0, symName: __ZNSt3__112__hash_tableINS_17__hash_value_typeINS_12basic_stringIcNS_11char_traitsIcEENS_9allocatorIcEEEEN5folly7dynamicEEENS_22__unordered_map_hasherIS7_SA_NS_4hashIS7_EENS_8equal_toIS7_EELb1EEENS_21__unordered_map_equalIS7_SA_SF_SD_Lb1EEENS5_ISA_EEE21__construct_node_hashIRKNS_4pairIKS7_S9_EEJEEENS_10unique_ptrINS_11__hash_nodeISA_PvEENS_22__hash_node_destructorINS5_ISU_EEEEEEmOT_DpOT0_, symObjAddr: 0xB16C, symBinAddr: 0x10001B1C4, symSize: 0x140 }
  - { offsetInCU: 0x4206E, offset: 0x6AB9C, size: 0x8, addend: 0x0, symName: __ZNKSt3__110unique_ptrINS_11__hash_nodeINS_17__hash_value_typeINS_12basic_stringIcNS_11char_traitsIcEENS_9allocatorIcEEEEN5folly7dynamicEEEPvEENS_22__hash_node_destructorINS6_ISD_EEEEEptB8ue170006Ev, symObjAddr: 0xB2AC, symBinAddr: 0x10001B304, symSize: 0x28 }
  - { offsetInCU: 0x42094, offset: 0x6ABC2, size: 0x8, addend: 0x0, symName: __ZNKSt3__110unique_ptrINS_11__hash_nodeINS_17__hash_value_typeINS_12basic_stringIcNS_11char_traitsIcEENS_9allocatorIcEEEEN5folly7dynamicEEEPvEENS_22__hash_node_destructorINS6_ISD_EEEEE3getB8ue170006Ev, symObjAddr: 0xB2D4, symBinAddr: 0x10001B32C, symSize: 0x28 }
  - { offsetInCU: 0x420BA, offset: 0x6ABE8, size: 0x8, addend: 0x0, symName: __ZNSt3__110unique_ptrINS_11__hash_nodeINS_17__hash_value_typeINS_12basic_stringIcNS_11char_traitsIcEENS_9allocatorIcEEEEN5folly7dynamicEEEPvEENS_22__hash_node_destructorINS6_ISD_EEEEE7releaseB8ue170006Ev, symObjAddr: 0xB2FC, symBinAddr: 0x10001B354, symSize: 0x44 }
  - { offsetInCU: 0x420EF, offset: 0x6AC1D, size: 0x8, addend: 0x0, symName: __ZNSt3__110unique_ptrINS_11__hash_nodeINS_17__hash_value_typeINS_12basic_stringIcNS_11char_traitsIcEENS_9allocatorIcEEEEN5folly7dynamicEEEPvEENS_22__hash_node_destructorINS6_ISD_EEEEED1B8ue170006Ev, symObjAddr: 0xB340, symBinAddr: 0x10001B398, symSize: 0x2C }
  - { offsetInCU: 0x42119, offset: 0x6AC47, size: 0x8, addend: 0x0, symName: __ZNSt3__115__hash_iteratorIPNS_11__hash_nodeINS_17__hash_value_typeINS_12basic_stringIcNS_11char_traitsIcEENS_9allocatorIcEEEEN5folly7dynamicEEEPvEEEC1B8ue170006EPNS_16__hash_node_baseISE_EE, symObjAddr: 0xB36C, symBinAddr: 0x10001B3C4, symSize: 0x34 }
  - { offsetInCU: 0x4215E, offset: 0x6AC8C, size: 0x8, addend: 0x0, symName: __ZNSt3__14pairINS_15__hash_iteratorIPNS_11__hash_nodeINS_17__hash_value_typeINS_12basic_stringIcNS_11char_traitsIcEENS_9allocatorIcEEEEN5folly7dynamicEEEPvEEEEbEC1B8ue170006ISG_RbLSD_0EEEOT_OT0_, symObjAddr: 0xB3A0, symBinAddr: 0x10001B3F8, symSize: 0x3C }
  - { offsetInCU: 0x421BC, offset: 0x6ACEA, size: 0x8, addend: 0x0, symName: __ZNSt3__117__compressed_pairImNS_22__unordered_map_hasherINS_12basic_stringIcNS_11char_traitsIcEENS_9allocatorIcEEEENS_17__hash_value_typeIS7_N5folly7dynamicEEENS_4hashIS7_EENS_8equal_toIS7_EELb1EEEE6secondB8ue170006Ev, symObjAddr: 0xB3DC, symBinAddr: 0x10001B434, symSize: 0x24 }
  - { offsetInCU: 0x421E2, offset: 0x6AD10, size: 0x8, addend: 0x0, symName: __ZNSt3__122__compressed_pair_elemINS_22__unordered_map_hasherINS_12basic_stringIcNS_11char_traitsIcEENS_9allocatorIcEEEENS_17__hash_value_typeIS7_N5folly7dynamicEEENS_4hashIS7_EENS_8equal_toIS7_EELb1EEELi1ELb1EE5__getB8ue170006Ev, symObjAddr: 0xB400, symBinAddr: 0x10001B458, symSize: 0x14 }
  - { offsetInCU: 0x42208, offset: 0x6AD36, size: 0x8, addend: 0x0, symName: __ZNKSt3__113__string_hashIcNS_9allocatorIcEEEclB8ue170006ERKNS_12basic_stringIcNS_11char_traitsIcEES2_EE, symObjAddr: 0xB414, symBinAddr: 0x10001B46C, symSize: 0x64 }
  - { offsetInCU: 0x4223D, offset: 0x6AD6B, size: 0x8, addend: 0x0, symName: __ZNKSt3__121__murmur2_or_cityhashImLm64EEclB8ue170006EPKvm, symObjAddr: 0xB530, symBinAddr: 0x10001B50C, symSize: 0x410 }
  - { offsetInCU: 0x422D7, offset: 0x6AE05, size: 0x8, addend: 0x0, symName: __ZNSt3__121__murmur2_or_cityhashImLm64EE18__hash_len_0_to_16B8ue170006EPKcm, symObjAddr: 0xB940, symBinAddr: 0x10001B91C, symSize: 0x1C0 }
  - { offsetInCU: 0x423B3, offset: 0x6AEE1, size: 0x8, addend: 0x0, symName: __ZNSt3__121__murmur2_or_cityhashImLm64EE19__hash_len_17_to_32B8ue170006EPKcm, symObjAddr: 0xBB00, symBinAddr: 0x10001BADC, symSize: 0x130 }
  - { offsetInCU: 0x4241C, offset: 0x6AF4A, size: 0x8, addend: 0x0, symName: __ZNSt3__121__murmur2_or_cityhashImLm64EE19__hash_len_33_to_64B8ue170006EPKcm, symObjAddr: 0xBC30, symBinAddr: 0x10001BC0C, symSize: 0x2B8 }
  - { offsetInCU: 0x424D1, offset: 0x6AFFF, size: 0x8, addend: 0x0, symName: __ZNSt3__121__murmur2_or_cityhashImLm64EE13__hash_len_16B8ue170006Emm, symObjAddr: 0xBF08, symBinAddr: 0x10001BEE4, symSize: 0x80 }
  - { offsetInCU: 0x4252C, offset: 0x6B05A, size: 0x8, addend: 0x0, symName: __ZNSt3__121__murmur2_or_cityhashImLm64EE29__weak_hash_len_32_with_seedsB8ue170006EPKcmm, symObjAddr: 0xBF88, symBinAddr: 0x10001BF64, symSize: 0x88 }
  - { offsetInCU: 0x4256B, offset: 0x6B099, size: 0x8, addend: 0x0, symName: __ZNSt3__121__murmur2_or_cityhashImLm64EE8__rotateB8ue170006Emi, symObjAddr: 0xC010, symBinAddr: 0x10001BFEC, symSize: 0x64 }
  - { offsetInCU: 0x4259C, offset: 0x6B0CA, size: 0x8, addend: 0x0, symName: __ZNSt3__14pairImmEaSB8ue170006EOS1_, symObjAddr: 0xC074, symBinAddr: 0x10001C050, symSize: 0x30 }
  - { offsetInCU: 0x425D1, offset: 0x6B0FF, size: 0x8, addend: 0x0, symName: __ZNSt3__121__murmur2_or_cityhashImLm64EE11__shift_mixB8ue170006Em, symObjAddr: 0xC0E0, symBinAddr: 0x10001C0BC, symSize: 0x1C }
  - { offsetInCU: 0x425F4, offset: 0x6B122, size: 0x8, addend: 0x0, symName: __ZNSt3__121__murmur2_or_cityhashImLm64EE22__rotate_by_at_least_1B8ue170006Emi, symObjAddr: 0xC0FC, symBinAddr: 0x10001C0D8, symSize: 0x38 }
  - { offsetInCU: 0x42625, offset: 0x6B153, size: 0x8, addend: 0x0, symName: __ZNSt3__121__murmur2_or_cityhashImLm64EE29__weak_hash_len_32_with_seedsB8ue170006Emmmmmm, symObjAddr: 0xC154, symBinAddr: 0x10001C130, symSize: 0xD8 }
  - { offsetInCU: 0x426A2, offset: 0x6B1D0, size: 0x8, addend: 0x0, symName: __ZNSt3__14pairImmEC1B8ue170006ImmLPv0EEEOT_OT0_, symObjAddr: 0xC22C, symBinAddr: 0x10001C208, symSize: 0x3C }
  - { offsetInCU: 0x42700, offset: 0x6B22E, size: 0x8, addend: 0x0, symName: __ZNSt3__14pairImmEC2B8ue170006ImmLPv0EEEOT_OT0_, symObjAddr: 0xC268, symBinAddr: 0x10001C244, symSize: 0x34 }
  - { offsetInCU: 0x4275E, offset: 0x6B28C, size: 0x8, addend: 0x0, symName: __ZNSt3__117__compressed_pairIfNS_21__unordered_map_equalINS_12basic_stringIcNS_11char_traitsIcEENS_9allocatorIcEEEENS_17__hash_value_typeIS7_N5folly7dynamicEEENS_8equal_toIS7_EENS_4hashIS7_EELb1EEEE6secondB8ue170006Ev, symObjAddr: 0xC434, symBinAddr: 0x10001C278, symSize: 0x24 }
  - { offsetInCU: 0x42784, offset: 0x6B2B2, size: 0x8, addend: 0x0, symName: __ZNSt3__122__compressed_pair_elemINS_21__unordered_map_equalINS_12basic_stringIcNS_11char_traitsIcEENS_9allocatorIcEEEENS_17__hash_value_typeIS7_N5folly7dynamicEEENS_8equal_toIS7_EENS_4hashIS7_EELb1EEELi1ELb1EE5__getB8ue170006Ev, symObjAddr: 0xC458, symBinAddr: 0x10001C29C, symSize: 0x14 }
  - { offsetInCU: 0x427AA, offset: 0x6B2D8, size: 0x8, addend: 0x0, symName: __ZNKSt3__18equal_toINS_12basic_stringIcNS_11char_traitsIcEENS_9allocatorIcEEEEEclB8ue170006ERKS6_S9_, symObjAddr: 0xC46C, symBinAddr: 0x10001C2B0, symSize: 0x34 }
  - { offsetInCU: 0x427EE, offset: 0x6B31C, size: 0x8, addend: 0x0, symName: __ZNKSt3__117__hash_value_typeINS_12basic_stringIcNS_11char_traitsIcEENS_9allocatorIcEEEEN5folly7dynamicEE11__get_valueB8ue170006Ev, symObjAddr: 0xC4A0, symBinAddr: 0x10001C2E4, symSize: 0x24 }
  - { offsetInCU: 0x42814, offset: 0x6B342, size: 0x8, addend: 0x0, symName: __ZNSt3__111char_traitsIcE7compareB8ue170006EPKcS3_m, symObjAddr: 0xC60C, symBinAddr: 0x10001C450, symSize: 0x34 }
  - { offsetInCU: 0x42853, offset: 0x6B381, size: 0x8, addend: 0x0, symName: __ZNSt3__116allocator_traitsINS_9allocatorINS_11__hash_nodeINS_17__hash_value_typeINS_12basic_stringIcNS_11char_traitsIcEENS1_IcEEEEN5folly7dynamicEEEPvEEEEE8allocateB8ue170006ERSE_m, symObjAddr: 0xC678, symBinAddr: 0x10001C4BC, symSize: 0x2C }
  - { offsetInCU: 0x42886, offset: 0x6B3B4, size: 0x8, addend: 0x0, symName: __ZNSt3__122__hash_node_destructorINS_9allocatorINS_11__hash_nodeINS_17__hash_value_typeINS_12basic_stringIcNS_11char_traitsIcEENS1_IcEEEEN5folly7dynamicEEEPvEEEEEC1B8ue170006ERSE_b, symObjAddr: 0xC6A4, symBinAddr: 0x10001C4E8, symSize: 0x48 }
  - { offsetInCU: 0x428D4, offset: 0x6B402, size: 0x8, addend: 0x0, symName: __ZNSt3__110unique_ptrINS_11__hash_nodeINS_17__hash_value_typeINS_12basic_stringIcNS_11char_traitsIcEENS_9allocatorIcEEEEN5folly7dynamicEEEPvEENS_22__hash_node_destructorINS6_ISD_EEEEEC1B8ue170006ILb1EvEEPSD_NS_16__dependent_typeINS_27__unique_ptr_deleter_sfinaeISG_EEXT_EE20__good_rval_ref_typeE, symObjAddr: 0xC6EC, symBinAddr: 0x10001C530, symSize: 0x3C }
  - { offsetInCU: 0x42925, offset: 0x6B453, size: 0x8, addend: 0x0, symName: __ZNSt3__116allocator_traitsINS_9allocatorINS_11__hash_nodeINS_17__hash_value_typeINS_12basic_stringIcNS_11char_traitsIcEENS1_IcEEEEN5folly7dynamicEEEPvEEEEE9constructB8ue170006INS_4pairIKS8_SA_EEJRKSJ_EvEEvRSE_PT_DpOT0_, symObjAddr: 0xC728, symBinAddr: 0x10001C56C, symSize: 0x34 }
  - { offsetInCU: 0x4297C, offset: 0x6B4AA, size: 0x8, addend: 0x0, symName: __ZNSt3__110unique_ptrINS_11__hash_nodeINS_17__hash_value_typeINS_12basic_stringIcNS_11char_traitsIcEENS_9allocatorIcEEEEN5folly7dynamicEEEPvEENS_22__hash_node_destructorINS6_ISD_EEEEE11get_deleterB8ue170006Ev, symObjAddr: 0xC75C, symBinAddr: 0x10001C5A0, symSize: 0x24 }
  - { offsetInCU: 0x429A2, offset: 0x6B4D0, size: 0x8, addend: 0x0, symName: __ZNSt3__19allocatorINS_11__hash_nodeINS_17__hash_value_typeINS_12basic_stringIcNS_11char_traitsIcEENS0_IcEEEEN5folly7dynamicEEEPvEEE8allocateB8ue170006Em, symObjAddr: 0xC780, symBinAddr: 0x10001C5C4, symSize: 0x5C }
  - { offsetInCU: 0x429D6, offset: 0x6B504, size: 0x8, addend: 0x0, symName: __ZNSt3__116allocator_traitsINS_9allocatorINS_11__hash_nodeINS_17__hash_value_typeINS_12basic_stringIcNS_11char_traitsIcEENS1_IcEEEEN5folly7dynamicEEEPvEEEEE8max_sizeB8ue170006ISE_vEEmRKSE_, symObjAddr: 0xC7DC, symBinAddr: 0x10001C620, symSize: 0x24 }
  - { offsetInCU: 0x42A04, offset: 0x6B532, size: 0x8, addend: 0x0, symName: __ZNKSt3__19allocatorINS_11__hash_nodeINS_17__hash_value_typeINS_12basic_stringIcNS_11char_traitsIcEENS0_IcEEEEN5folly7dynamicEEEPvEEE8max_sizeB8ue170006Ev, symObjAddr: 0xC800, symBinAddr: 0x10001C644, symSize: 0x18 }
  - { offsetInCU: 0x42A2A, offset: 0x6B558, size: 0x8, addend: 0x0, symName: __ZNSt3__122__hash_node_destructorINS_9allocatorINS_11__hash_nodeINS_17__hash_value_typeINS_12basic_stringIcNS_11char_traitsIcEENS1_IcEEEEN5folly7dynamicEEEPvEEEEEC2B8ue170006ERSE_b, symObjAddr: 0xC818, symBinAddr: 0x10001C65C, symSize: 0x38 }
  - { offsetInCU: 0x42A72, offset: 0x6B5A0, size: 0x8, addend: 0x0, symName: __ZNSt3__110unique_ptrINS_11__hash_nodeINS_17__hash_value_typeINS_12basic_stringIcNS_11char_traitsIcEENS_9allocatorIcEEEEN5folly7dynamicEEEPvEENS_22__hash_node_destructorINS6_ISD_EEEEEC2B8ue170006ILb1EvEEPSD_NS_16__dependent_typeINS_27__unique_ptr_deleter_sfinaeISG_EEXT_EE20__good_rval_ref_typeE, symObjAddr: 0xC850, symBinAddr: 0x10001C694, symSize: 0x48 }
  - { offsetInCU: 0x42AC3, offset: 0x6B5F1, size: 0x8, addend: 0x0, symName: __ZNSt3__117__compressed_pairIPNS_11__hash_nodeINS_17__hash_value_typeINS_12basic_stringIcNS_11char_traitsIcEENS_9allocatorIcEEEEN5folly7dynamicEEEPvEENS_22__hash_node_destructorINS6_ISD_EEEEEC1B8ue170006IRSE_SH_EEOT_OT0_, symObjAddr: 0xC898, symBinAddr: 0x10001C6DC, symSize: 0x3C }
  - { offsetInCU: 0x42B1B, offset: 0x6B649, size: 0x8, addend: 0x0, symName: __ZNSt3__117__compressed_pairIPNS_11__hash_nodeINS_17__hash_value_typeINS_12basic_stringIcNS_11char_traitsIcEENS_9allocatorIcEEEEN5folly7dynamicEEEPvEENS_22__hash_node_destructorINS6_ISD_EEEEEC2B8ue170006IRSE_SH_EEOT_OT0_, symObjAddr: 0xC8D4, symBinAddr: 0x10001C718, symSize: 0x48 }
  - { offsetInCU: 0x42B73, offset: 0x6B6A1, size: 0x8, addend: 0x0, symName: __ZNSt3__122__compressed_pair_elemIPNS_11__hash_nodeINS_17__hash_value_typeINS_12basic_stringIcNS_11char_traitsIcEENS_9allocatorIcEEEEN5folly7dynamicEEEPvEELi0ELb0EEC2B8ue170006IRSE_vEEOT_, symObjAddr: 0xC91C, symBinAddr: 0x10001C760, symSize: 0x24 }
  - { offsetInCU: 0x42BB5, offset: 0x6B6E3, size: 0x8, addend: 0x0, symName: __ZNSt3__122__compressed_pair_elemINS_22__hash_node_destructorINS_9allocatorINS_11__hash_nodeINS_17__hash_value_typeINS_12basic_stringIcNS_11char_traitsIcEENS2_IcEEEEN5folly7dynamicEEEPvEEEEEELi1ELb0EEC2B8ue170006ISG_vEEOT_, symObjAddr: 0xC940, symBinAddr: 0x10001C784, symSize: 0x24 }
  - { offsetInCU: 0x42BF7, offset: 0x6B725, size: 0x8, addend: 0x0, symName: __ZNSt3__19allocatorINS_11__hash_nodeINS_17__hash_value_typeINS_12basic_stringIcNS_11char_traitsIcEENS0_IcEEEEN5folly7dynamicEEEPvEEE9constructB8ue170006INS_4pairIKS7_S9_EEJRKSH_EEEvPT_DpOT0_, symObjAddr: 0xC964, symBinAddr: 0x10001C7A8, symSize: 0x30 }
  - { offsetInCU: 0x42C4D, offset: 0x6B77B, size: 0x8, addend: 0x0, symName: __ZNSt3__14pairIKNS_12basic_stringIcNS_11char_traitsIcEENS_9allocatorIcEEEEN5folly7dynamicEEC1B8ue170006ERKSA_, symObjAddr: 0xC994, symBinAddr: 0x10001C7D8, symSize: 0x34 }
  - { offsetInCU: 0x42C82, offset: 0x6B7B0, size: 0x8, addend: 0x0, symName: __ZNSt3__14pairIKNS_12basic_stringIcNS_11char_traitsIcEENS_9allocatorIcEEEEN5folly7dynamicEEC2B8ue170006ERKSA_, symObjAddr: 0xC9C8, symBinAddr: 0x10001C80C, symSize: 0x70 }
  - { offsetInCU: 0x42CB7, offset: 0x6B7E5, size: 0x8, addend: 0x0, symName: __ZNSt3__117__compressed_pairIPNS_11__hash_nodeINS_17__hash_value_typeINS_12basic_stringIcNS_11char_traitsIcEENS_9allocatorIcEEEEN5folly7dynamicEEEPvEENS_22__hash_node_destructorINS6_ISD_EEEEE6secondB8ue170006Ev, symObjAddr: 0xCA38, symBinAddr: 0x10001C87C, symSize: 0x28 }
  - { offsetInCU: 0x42CDD, offset: 0x6B80B, size: 0x8, addend: 0x0, symName: __ZNSt3__122__compressed_pair_elemINS_22__hash_node_destructorINS_9allocatorINS_11__hash_nodeINS_17__hash_value_typeINS_12basic_stringIcNS_11char_traitsIcEENS2_IcEEEEN5folly7dynamicEEEPvEEEEEELi1ELb0EE5__getB8ue170006Ev, symObjAddr: 0xCA60, symBinAddr: 0x10001C8A4, symSize: 0x14 }
  - { offsetInCU: 0x42D03, offset: 0x6B831, size: 0x8, addend: 0x0, symName: __ZNKSt3__117__compressed_pairIPNS_11__hash_nodeINS_17__hash_value_typeINS_12basic_stringIcNS_11char_traitsIcEENS_9allocatorIcEEEEN5folly7dynamicEEEPvEENS_22__hash_node_destructorINS6_ISD_EEEEE5firstB8ue170006Ev, symObjAddr: 0xCA74, symBinAddr: 0x10001C8B8, symSize: 0x24 }
  - { offsetInCU: 0x42D29, offset: 0x6B857, size: 0x8, addend: 0x0, symName: __ZNKSt3__122__compressed_pair_elemIPNS_11__hash_nodeINS_17__hash_value_typeINS_12basic_stringIcNS_11char_traitsIcEENS_9allocatorIcEEEEN5folly7dynamicEEEPvEELi0ELb0EE5__getB8ue170006Ev, symObjAddr: 0xCA98, symBinAddr: 0x10001C8DC, symSize: 0x14 }
  - { offsetInCU: 0x42D4F, offset: 0x6B87D, size: 0x8, addend: 0x0, symName: __ZNSt3__117__compressed_pairIPNS_11__hash_nodeINS_17__hash_value_typeINS_12basic_stringIcNS_11char_traitsIcEENS_9allocatorIcEEEEN5folly7dynamicEEEPvEENS_22__hash_node_destructorINS6_ISD_EEEEE5firstB8ue170006Ev, symObjAddr: 0xCAAC, symBinAddr: 0x10001C8F0, symSize: 0x24 }
  - { offsetInCU: 0x42D75, offset: 0x6B8A3, size: 0x8, addend: 0x0, symName: __ZNSt3__122__compressed_pair_elemIPNS_11__hash_nodeINS_17__hash_value_typeINS_12basic_stringIcNS_11char_traitsIcEENS_9allocatorIcEEEEN5folly7dynamicEEEPvEELi0ELb0EE5__getB8ue170006Ev, symObjAddr: 0xCAD0, symBinAddr: 0x10001C914, symSize: 0x14 }
  - { offsetInCU: 0x42D9B, offset: 0x6B8C9, size: 0x8, addend: 0x0, symName: __ZNSt3__110unique_ptrINS_11__hash_nodeINS_17__hash_value_typeINS_12basic_stringIcNS_11char_traitsIcEENS_9allocatorIcEEEEN5folly7dynamicEEEPvEENS_22__hash_node_destructorINS6_ISD_EEEEED2B8ue170006Ev, symObjAddr: 0xCAE4, symBinAddr: 0x10001C928, symSize: 0x30 }
  - { offsetInCU: 0x42DC5, offset: 0x6B8F3, size: 0x8, addend: 0x0, symName: __ZNSt3__110unique_ptrINS_11__hash_nodeINS_17__hash_value_typeINS_12basic_stringIcNS_11char_traitsIcEENS_9allocatorIcEEEEN5folly7dynamicEEEPvEENS_22__hash_node_destructorINS6_ISD_EEEEE5resetB8ue170006EPSD_, symObjAddr: 0xCB14, symBinAddr: 0x10001C958, symSize: 0x78 }
  - { offsetInCU: 0x42E09, offset: 0x6B937, size: 0x8, addend: 0x0, symName: __ZNSt3__122__hash_node_destructorINS_9allocatorINS_11__hash_nodeINS_17__hash_value_typeINS_12basic_stringIcNS_11char_traitsIcEENS1_IcEEEEN5folly7dynamicEEEPvEEEEEclB8ue170006EPSD_, symObjAddr: 0xCB8C, symBinAddr: 0x10001C9D0, symSize: 0x94 }
  - { offsetInCU: 0x42E3E, offset: 0x6B96C, size: 0x8, addend: 0x0, symName: __ZNSt3__115__hash_iteratorIPNS_11__hash_nodeINS_17__hash_value_typeINS_12basic_stringIcNS_11char_traitsIcEENS_9allocatorIcEEEEN5folly7dynamicEEEPvEEEC2B8ue170006EPNS_16__hash_node_baseISE_EE, symObjAddr: 0xCC20, symBinAddr: 0x10001CA64, symSize: 0x20 }
  - { offsetInCU: 0x42E77, offset: 0x6B9A5, size: 0x8, addend: 0x0, symName: __ZNSt3__14pairINS_15__hash_iteratorIPNS_11__hash_nodeINS_17__hash_value_typeINS_12basic_stringIcNS_11char_traitsIcEENS_9allocatorIcEEEEN5folly7dynamicEEEPvEEEEbEC2B8ue170006ISG_RbLSD_0EEEOT_OT0_, symObjAddr: 0xCC40, symBinAddr: 0x10001CA84, symSize: 0x38 }
  - { offsetInCU: 0x42ED5, offset: 0x6BA03, size: 0x8, addend: 0x0, symName: __ZNKSt3__121__hash_const_iteratorIPNS_11__hash_nodeINS_17__hash_value_typeINS_12basic_stringIcNS_11char_traitsIcEENS_9allocatorIcEEEEN5folly7dynamicEEEPvEEEptB8ue170006Ev, symObjAddr: 0xCC78, symBinAddr: 0x10001CABC, symSize: 0x30 }
  - { offsetInCU: 0x42EFB, offset: 0x6BA29, size: 0x8, addend: 0x0, symName: __ZNSt3__114pointer_traitsIPKNS_17__hash_value_typeINS_12basic_stringIcNS_11char_traitsIcEENS_9allocatorIcEEEEN5folly7dynamicEEEE10pointer_toB8ue170006ERSB_, symObjAddr: 0xCCA8, symBinAddr: 0x10001CAEC, symSize: 0x14 }
  - { offsetInCU: 0x42F1E, offset: 0x6BA4C, size: 0x8, addend: 0x0, symName: __ZNSt3__121__hash_const_iteratorIPNS_11__hash_nodeINS_17__hash_value_typeINS_12basic_stringIcNS_11char_traitsIcEENS_9allocatorIcEEEEN5folly7dynamicEEEPvEEEppB8ue170006Ev, symObjAddr: 0xCCBC, symBinAddr: 0x10001CB00, symSize: 0x20 }
  - { offsetInCU: 0x42F44, offset: 0x6BA72, size: 0x8, addend: 0x0, symName: __ZNKSt3__112__hash_tableINS_17__hash_value_typeINS_12basic_stringIcNS_11char_traitsIcEENS_9allocatorIcEEEEN5folly7dynamicEEENS_22__unordered_map_hasherIS7_SA_NS_4hashIS7_EENS_8equal_toIS7_EELb1EEENS_21__unordered_map_equalIS7_SA_SF_SD_Lb1EEENS5_ISA_EEE5beginEv, symObjAddr: 0xCCDC, symBinAddr: 0x10001CB20, symSize: 0x38 }
  - { offsetInCU: 0x42F6C, offset: 0x6BA9A, size: 0x8, addend: 0x0, symName: __ZNSt3__125__hash_map_const_iteratorINS_21__hash_const_iteratorIPNS_11__hash_nodeINS_17__hash_value_typeINS_12basic_stringIcNS_11char_traitsIcEENS_9allocatorIcEEEEN5folly7dynamicEEEPvEEEEEC1B8ue170006ESG_, symObjAddr: 0xCD14, symBinAddr: 0x10001CB58, symSize: 0x34 }
  - { offsetInCU: 0x42FA5, offset: 0x6BAD3, size: 0x8, addend: 0x0, symName: __ZNKSt3__117__compressed_pairINS_16__hash_node_baseIPNS_11__hash_nodeINS_17__hash_value_typeINS_12basic_stringIcNS_11char_traitsIcEENS_9allocatorIcEEEEN5folly7dynamicEEEPvEEEENS7_ISE_EEE5firstB8ue170006Ev, symObjAddr: 0xCD48, symBinAddr: 0x10001CB8C, symSize: 0x24 }
  - { offsetInCU: 0x42FCB, offset: 0x6BAF9, size: 0x8, addend: 0x0, symName: __ZNSt3__121__hash_const_iteratorIPNS_11__hash_nodeINS_17__hash_value_typeINS_12basic_stringIcNS_11char_traitsIcEENS_9allocatorIcEEEEN5folly7dynamicEEEPvEEEC1B8ue170006EPNS_16__hash_node_baseISE_EE, symObjAddr: 0xCD6C, symBinAddr: 0x10001CBB0, symSize: 0x34 }
  - { offsetInCU: 0x43004, offset: 0x6BB32, size: 0x8, addend: 0x0, symName: __ZNKSt3__122__compressed_pair_elemINS_16__hash_node_baseIPNS_11__hash_nodeINS_17__hash_value_typeINS_12basic_stringIcNS_11char_traitsIcEENS_9allocatorIcEEEEN5folly7dynamicEEEPvEEEELi0ELb0EE5__getB8ue170006Ev, symObjAddr: 0xCDA0, symBinAddr: 0x10001CBE4, symSize: 0x14 }
  - { offsetInCU: 0x4302A, offset: 0x6BB58, size: 0x8, addend: 0x0, symName: __ZNSt3__121__hash_const_iteratorIPNS_11__hash_nodeINS_17__hash_value_typeINS_12basic_stringIcNS_11char_traitsIcEENS_9allocatorIcEEEEN5folly7dynamicEEEPvEEEC2B8ue170006EPNS_16__hash_node_baseISE_EE, symObjAddr: 0xCDB4, symBinAddr: 0x10001CBF8, symSize: 0x20 }
  - { offsetInCU: 0x43063, offset: 0x6BB91, size: 0x8, addend: 0x0, symName: __ZNSt3__125__hash_map_const_iteratorINS_21__hash_const_iteratorIPNS_11__hash_nodeINS_17__hash_value_typeINS_12basic_stringIcNS_11char_traitsIcEENS_9allocatorIcEEEEN5folly7dynamicEEEPvEEEEEC2B8ue170006ESG_, symObjAddr: 0xCDD4, symBinAddr: 0x10001CC18, symSize: 0x20 }
  - { offsetInCU: 0x4309C, offset: 0x6BBCA, size: 0x8, addend: 0x0, symName: __ZNKSt3__112__hash_tableINS_17__hash_value_typeINS_12basic_stringIcNS_11char_traitsIcEENS_9allocatorIcEEEEN5folly7dynamicEEENS_22__unordered_map_hasherIS7_SA_NS_4hashIS7_EENS_8equal_toIS7_EELb1EEENS_21__unordered_map_equalIS7_SA_SF_SD_Lb1EEENS5_ISA_EEE3endEv, symObjAddr: 0xCDF4, symBinAddr: 0x10001CC38, symSize: 0x2C }
  - { offsetInCU: 0x430C4, offset: 0x6BBF2, size: 0x8, addend: 0x0, symName: __ZNSt3__16vectorIN5folly7dynamicENS_9allocatorIS2_EEEC2ERKS5_, symObjAddr: 0xCE20, symBinAddr: 0x10001CC64, symSize: 0x94 }
  - { offsetInCU: 0x4310A, offset: 0x6BC38, size: 0x8, addend: 0x0, symName: __ZNSt3__116allocator_traitsINS_9allocatorIN5folly7dynamicEEEE37select_on_container_copy_constructionB8ue170006IS4_vvEES4_RKS4_, symObjAddr: 0xCEB4, symBinAddr: 0x10001CCF8, symSize: 0x10 }
  - { offsetInCU: 0x43139, offset: 0x6BC67, size: 0x8, addend: 0x0, symName: __ZNKSt3__16vectorIN5folly7dynamicENS_9allocatorIS2_EEE7__allocB8ue170006Ev, symObjAddr: 0xCEC4, symBinAddr: 0x10001CD08, symSize: 0x28 }
  - { offsetInCU: 0x43165, offset: 0x6BC93, size: 0x8, addend: 0x0, symName: __ZNSt3__117__compressed_pairIPN5folly7dynamicENS_9allocatorIS2_EEEC1B8ue170006IDnS5_EEOT_OT0_, symObjAddr: 0xCEEC, symBinAddr: 0x10001CD30, symSize: 0x3C }
  - { offsetInCU: 0x431BD, offset: 0x6BCEB, size: 0x8, addend: 0x0, symName: __ZNSt3__16vectorIN5folly7dynamicENS_9allocatorIS2_EEE16__init_with_sizeB8ue170006IPS2_S7_EEvT_T0_m, symObjAddr: 0xCF28, symBinAddr: 0x10001CD6C, symSize: 0xB8 }
  - { offsetInCU: 0x43231, offset: 0x6BD5F, size: 0x8, addend: 0x0, symName: __ZNKSt3__117__compressed_pairIPN5folly7dynamicENS_9allocatorIS2_EEE6secondB8ue170006Ev, symObjAddr: 0xCFE0, symBinAddr: 0x10001CE24, symSize: 0x24 }
  - { offsetInCU: 0x43257, offset: 0x6BD85, size: 0x8, addend: 0x0, symName: __ZNKSt3__122__compressed_pair_elemINS_9allocatorIN5folly7dynamicEEELi1ELb1EE5__getB8ue170006Ev, symObjAddr: 0xD004, symBinAddr: 0x10001CE48, symSize: 0x14 }
  - { offsetInCU: 0x4327D, offset: 0x6BDAB, size: 0x8, addend: 0x0, symName: __ZNSt3__117__compressed_pairIPN5folly7dynamicENS_9allocatorIS2_EEEC2B8ue170006IDnS5_EEOT_OT0_, symObjAddr: 0xD018, symBinAddr: 0x10001CE5C, symSize: 0x44 }
  - { offsetInCU: 0x432D5, offset: 0x6BE03, size: 0x8, addend: 0x0, symName: __ZNSt3__122__compressed_pair_elemINS_9allocatorIN5folly7dynamicEEELi1ELb1EEC2B8ue170006IS4_vEEOT_, symObjAddr: 0xD05C, symBinAddr: 0x10001CEA0, symSize: 0x18 }
  - { offsetInCU: 0x43317, offset: 0x6BE45, size: 0x8, addend: 0x0, symName: __ZNSt3__16vectorIN5folly7dynamicENS_9allocatorIS2_EEE11__vallocateB8ue170006Em, symObjAddr: 0xD0B4, symBinAddr: 0x10001CEF8, symSize: 0xB4 }
  - { offsetInCU: 0x4335B, offset: 0x6BE89, size: 0x8, addend: 0x0, symName: __ZNSt3__16vectorIN5folly7dynamicENS_9allocatorIS2_EEE18__construct_at_endIPS2_S7_EEvT_T0_m, symObjAddr: 0xD168, symBinAddr: 0x10001CFAC, symSize: 0x8C }
  - { offsetInCU: 0x433D1, offset: 0x6BEFF, size: 0x8, addend: 0x0, symName: __ZNSt3__128__exception_guard_exceptionsINS_6vectorIN5folly7dynamicENS_9allocatorIS3_EEE16__destroy_vectorEE10__completeB8ue170006Ev, symObjAddr: 0xD1F4, symBinAddr: 0x10001D038, symSize: 0x1C }
  - { offsetInCU: 0x433F7, offset: 0x6BF25, size: 0x8, addend: 0x0, symName: __ZNSt3__128__exception_guard_exceptionsINS_6vectorIN5folly7dynamicENS_9allocatorIS3_EEE16__destroy_vectorEED1B8ue170006Ev, symObjAddr: 0xD210, symBinAddr: 0x10001D054, symSize: 0x2C }
  - { offsetInCU: 0x43421, offset: 0x6BF4F, size: 0x8, addend: 0x0, symName: __ZNSt3__128__exception_guard_exceptionsINS_6vectorIN5folly7dynamicENS_9allocatorIS3_EEE16__destroy_vectorEEC1B8ue170006ES7_, symObjAddr: 0xD23C, symBinAddr: 0x10001D080, symSize: 0x34 }
  - { offsetInCU: 0x43459, offset: 0x6BF87, size: 0x8, addend: 0x0, symName: __ZNSt3__128__exception_guard_exceptionsINS_6vectorIN5folly7dynamicENS_9allocatorIS3_EEE16__destroy_vectorEEC2B8ue170006ES7_, symObjAddr: 0xD270, symBinAddr: 0x10001D0B4, symSize: 0x24 }
  - { offsetInCU: 0x43491, offset: 0x6BFBF, size: 0x8, addend: 0x0, symName: __ZNKSt3__16vectorIN5folly7dynamicENS_9allocatorIS2_EEE8max_sizeEv, symObjAddr: 0xD294, symBinAddr: 0x10001D0D8, symSize: 0x60 }
  - { offsetInCU: 0x434B9, offset: 0x6BFE7, size: 0x8, addend: 0x0, symName: __ZNKSt3__16vectorIN5folly7dynamicENS_9allocatorIS2_EEE20__throw_length_errorB8ue170006Ev, symObjAddr: 0xD2F4, symBinAddr: 0x10001D138, symSize: 0x1C }
  - { offsetInCU: 0x434DF, offset: 0x6C00D, size: 0x8, addend: 0x0, symName: __ZNSt3__16vectorIN5folly7dynamicENS_9allocatorIS2_EEE9__end_capB8ue170006Ev, symObjAddr: 0xD350, symBinAddr: 0x10001D194, symSize: 0x28 }
  - { offsetInCU: 0x43505, offset: 0x6C033, size: 0x8, addend: 0x0, symName: __ZNKSt3__16vectorIN5folly7dynamicENS_9allocatorIS2_EEE14__annotate_newB8ue170006Em, symObjAddr: 0xD378, symBinAddr: 0x10001D1BC, symSize: 0xC8 }
  - { offsetInCU: 0x4353A, offset: 0x6C068, size: 0x8, addend: 0x0, symName: __ZNSt3__116allocator_traitsINS_9allocatorIN5folly7dynamicEEEE8max_sizeB8ue170006IS4_vEEmRKS4_, symObjAddr: 0xD46C, symBinAddr: 0x10001D2B0, symSize: 0x24 }
  - { offsetInCU: 0x43568, offset: 0x6C096, size: 0x8, addend: 0x0, symName: __ZNSt3__114numeric_limitsIlE3maxB8ue170006Ev, symObjAddr: 0xD490, symBinAddr: 0x10001D2D4, symSize: 0x14 }
  - { offsetInCU: 0x4357C, offset: 0x6C0AA, size: 0x8, addend: 0x0, symName: __ZNKSt3__19allocatorIN5folly7dynamicEE8max_sizeB8ue170006Ev, symObjAddr: 0xD4F8, symBinAddr: 0x10001D33C, symSize: 0x18 }
  - { offsetInCU: 0x435A2, offset: 0x6C0D0, size: 0x8, addend: 0x0, symName: __ZNSt3__123__libcpp_numeric_limitsIlLb1EE3maxB8ue170006Ev, symObjAddr: 0xD510, symBinAddr: 0x10001D354, symSize: 0x8 }
  - { offsetInCU: 0x435B6, offset: 0x6C0E4, size: 0x8, addend: 0x0, symName: __ZNSt3__19allocatorIN5folly7dynamicEE8allocateB8ue170006Em, symObjAddr: 0xD5FC, symBinAddr: 0x10001D35C, symSize: 0x5C }
  - { offsetInCU: 0x435EA, offset: 0x6C118, size: 0x8, addend: 0x0, symName: __ZNSt3__117__compressed_pairIPN5folly7dynamicENS_9allocatorIS2_EEE5firstB8ue170006Ev, symObjAddr: 0xD658, symBinAddr: 0x10001D3B8, symSize: 0x24 }
  - { offsetInCU: 0x43610, offset: 0x6C13E, size: 0x8, addend: 0x0, symName: __ZNSt3__122__compressed_pair_elemIPN5folly7dynamicELi0ELb0EE5__getB8ue170006Ev, symObjAddr: 0xD67C, symBinAddr: 0x10001D3DC, symSize: 0x14 }
  - { offsetInCU: 0x43651, offset: 0x6C17F, size: 0x8, addend: 0x0, symName: __ZNSt3__16vectorIN5folly7dynamicENS_9allocatorIS2_EEE21_ConstructTransactionC1B8ue170006ERS5_m, symObjAddr: 0xD690, symBinAddr: 0x10001D3F0, symSize: 0x3C }
  - { offsetInCU: 0x43699, offset: 0x6C1C7, size: 0x8, addend: 0x0, symName: __ZNSt3__16vectorIN5folly7dynamicENS_9allocatorIS2_EEE21_ConstructTransactionD1B8ue170006Ev, symObjAddr: 0xD74C, symBinAddr: 0x10001D4AC, symSize: 0x2C }
  - { offsetInCU: 0x436C3, offset: 0x6C1F1, size: 0x8, addend: 0x0, symName: __ZNSt3__16vectorIN5folly7dynamicENS_9allocatorIS2_EEE21_ConstructTransactionC2B8ue170006ERS5_m, symObjAddr: 0xD778, symBinAddr: 0x10001D4D8, symSize: 0x4C }
  - { offsetInCU: 0x4372D, offset: 0x6C25B, size: 0x8, addend: 0x0, symName: __ZNSt3__14pairIPN5folly7dynamicES3_EC1B8ue170006IS3_S3_LPv0EEEOT_OT0_, symObjAddr: 0xD9B0, symBinAddr: 0x10001D710, symSize: 0x3C }
  - { offsetInCU: 0x4378B, offset: 0x6C2B9, size: 0x8, addend: 0x0, symName: __ZNSt3__14pairIPN5folly7dynamicES3_EC2B8ue170006IS3_S3_LPv0EEEOT_OT0_, symObjAddr: 0xD9EC, symBinAddr: 0x10001D74C, symSize: 0x34 }
  - { offsetInCU: 0x437E9, offset: 0x6C317, size: 0x8, addend: 0x0, symName: __ZNSt3__129_AllocatorDestroyRangeReverseINS_9allocatorIN5folly7dynamicEEEPS3_EC1B8ue170006ERS4_RS5_S8_, symObjAddr: 0xDA6C, symBinAddr: 0x10001D7CC, symSize: 0x44 }
  - { offsetInCU: 0x43840, offset: 0x6C36E, size: 0x8, addend: 0x0, symName: __ZNSt3__116allocator_traitsINS_9allocatorIN5folly7dynamicEEEE9constructB8ue170006IS3_JRS3_EvEEvRS4_PT_DpOT0_, symObjAddr: 0xDAB0, symBinAddr: 0x10001D810, symSize: 0x34 }
  - { offsetInCU: 0x43897, offset: 0x6C3C5, size: 0x8, addend: 0x0, symName: __ZNSt3__128__exception_guard_exceptionsINS_29_AllocatorDestroyRangeReverseINS_9allocatorIN5folly7dynamicEEEPS4_EEE10__completeB8ue170006Ev, symObjAddr: 0xDAE4, symBinAddr: 0x10001D844, symSize: 0x1C }
  - { offsetInCU: 0x438BD, offset: 0x6C3EB, size: 0x8, addend: 0x0, symName: __ZNSt3__128__exception_guard_exceptionsINS_29_AllocatorDestroyRangeReverseINS_9allocatorIN5folly7dynamicEEEPS4_EEED1B8ue170006Ev, symObjAddr: 0xDB00, symBinAddr: 0x10001D860, symSize: 0x2C }
  - { offsetInCU: 0x438E7, offset: 0x6C415, size: 0x8, addend: 0x0, symName: __ZNSt3__128__exception_guard_exceptionsINS_29_AllocatorDestroyRangeReverseINS_9allocatorIN5folly7dynamicEEEPS4_EEEC1B8ue170006ES7_, symObjAddr: 0xDB2C, symBinAddr: 0x10001D88C, symSize: 0x34 }
  - { offsetInCU: 0x43920, offset: 0x6C44E, size: 0x8, addend: 0x0, symName: __ZNSt3__128__exception_guard_exceptionsINS_29_AllocatorDestroyRangeReverseINS_9allocatorIN5folly7dynamicEEEPS4_EEEC2B8ue170006ES7_, symObjAddr: 0xDB60, symBinAddr: 0x10001D8C0, symSize: 0x30 }
  - { offsetInCU: 0x43959, offset: 0x6C487, size: 0x8, addend: 0x0, symName: __ZNSt3__129_AllocatorDestroyRangeReverseINS_9allocatorIN5folly7dynamicEEEPS3_EC2B8ue170006ERS4_RS5_S8_, symObjAddr: 0xDB90, symBinAddr: 0x10001D8F0, symSize: 0x38 }
  - { offsetInCU: 0x439B0, offset: 0x6C4DE, size: 0x8, addend: 0x0, symName: __ZNSt3__19allocatorIN5folly7dynamicEE9constructB8ue170006IS2_JRS2_EEEvPT_DpOT0_, symObjAddr: 0xDBC8, symBinAddr: 0x10001D928, symSize: 0x30 }
  - { offsetInCU: 0x43A06, offset: 0x6C534, size: 0x8, addend: 0x0, symName: __ZNSt3__128__exception_guard_exceptionsINS_29_AllocatorDestroyRangeReverseINS_9allocatorIN5folly7dynamicEEEPS4_EEED2B8ue170006Ev, symObjAddr: 0xDBF8, symBinAddr: 0x10001D958, symSize: 0x50 }
  - { offsetInCU: 0x43A30, offset: 0x6C55E, size: 0x8, addend: 0x0, symName: __ZNKSt3__129_AllocatorDestroyRangeReverseINS_9allocatorIN5folly7dynamicEEEPS3_EclB8ue170006Ev, symObjAddr: 0xDC48, symBinAddr: 0x10001D9A8, symSize: 0x68 }
  - { offsetInCU: 0x43A56, offset: 0x6C584, size: 0x8, addend: 0x0, symName: __ZNSt3__116reverse_iteratorIPN5folly7dynamicEEC1B8ue170006ES3_, symObjAddr: 0xDD20, symBinAddr: 0x10001DA80, symSize: 0x34 }
  - { offsetInCU: 0x43A8E, offset: 0x6C5BC, size: 0x8, addend: 0x0, symName: __ZNSt3__116reverse_iteratorIPN5folly7dynamicEEppB8ue170006Ev, symObjAddr: 0xDDC0, symBinAddr: 0x10001DB20, symSize: 0x20 }
  - { offsetInCU: 0x43AB4, offset: 0x6C5E2, size: 0x8, addend: 0x0, symName: __ZNKSt3__116reverse_iteratorIPN5folly7dynamicEE4baseB8ue170006Ev, symObjAddr: 0xDDE0, symBinAddr: 0x10001DB40, symSize: 0x18 }
  - { offsetInCU: 0x43AE0, offset: 0x6C60E, size: 0x8, addend: 0x0, symName: __ZNSt3__119__to_address_helperINS_16reverse_iteratorIPN5folly7dynamicEEEvE6__callB8ue170006ERKS5_, symObjAddr: 0xDDF8, symBinAddr: 0x10001DB58, symSize: 0x38 }
  - { offsetInCU: 0x43B03, offset: 0x6C631, size: 0x8, addend: 0x0, symName: __ZNKSt3__116reverse_iteratorIPN5folly7dynamicEEptB8ue170006Ev, symObjAddr: 0xDE30, symBinAddr: 0x10001DB90, symSize: 0x24 }
  - { offsetInCU: 0x43B29, offset: 0x6C657, size: 0x8, addend: 0x0, symName: __ZNKSt3__116reverse_iteratorIPN5folly7dynamicEEdeB8ue170006Ev, symObjAddr: 0xDE54, symBinAddr: 0x10001DBB4, symSize: 0x28 }
  - { offsetInCU: 0x43B5D, offset: 0x6C68B, size: 0x8, addend: 0x0, symName: __ZNSt3__116reverse_iteratorIPN5folly7dynamicEEC2B8ue170006ES3_, symObjAddr: 0xDE7C, symBinAddr: 0x10001DBDC, symSize: 0x28 }
  - { offsetInCU: 0x43B95, offset: 0x6C6C3, size: 0x8, addend: 0x0, symName: __ZNSt3__118__unwrap_iter_implIPN5folly7dynamicELb1EE8__unwrapB8ue170006ES3_, symObjAddr: 0xDEA4, symBinAddr: 0x10001DC04, symSize: 0x24 }
  - { offsetInCU: 0x43BB8, offset: 0x6C6E6, size: 0x8, addend: 0x0, symName: __ZNSt3__118__unwrap_iter_implIPN5folly7dynamicELb1EE8__rewrapB8ue170006ES3_S3_, symObjAddr: 0xDEC8, symBinAddr: 0x10001DC28, symSize: 0x58 }
  - { offsetInCU: 0x43BE9, offset: 0x6C717, size: 0x8, addend: 0x0, symName: __ZNSt3__16vectorIN5folly7dynamicENS_9allocatorIS2_EEE21_ConstructTransactionD2B8ue170006Ev, symObjAddr: 0xDF20, symBinAddr: 0x10001DC80, symSize: 0x20 }
  - { offsetInCU: 0x43C13, offset: 0x6C741, size: 0x8, addend: 0x0, symName: __ZNSt3__128__exception_guard_exceptionsINS_6vectorIN5folly7dynamicENS_9allocatorIS3_EEE16__destroy_vectorEED2B8ue170006Ev, symObjAddr: 0xDF40, symBinAddr: 0x10001DCA0, symSize: 0x48 }
  - { offsetInCU: 0x43C3D, offset: 0x6C76B, size: 0x8, addend: 0x0, symName: __ZNSt3__110__get_pairILm0EE3getB8ue170006IKyNS_10shared_ptrIN5hf3fs17monitor_collector13WorkloadStatsEEEEERKT_RKNS_4pairIS9_T0_EE, symObjAddr: 0xDF88, symBinAddr: 0x10001DCE8, symSize: 0x14 }
  - { offsetInCU: 0x43C73, offset: 0x6C7A1, size: 0x8, addend: 0x0, symName: __ZNSt3__110__get_pairILm1EE3getB8ue170006IKyNS_10shared_ptrIN5hf3fs17monitor_collector13WorkloadStatsEEEEERKT0_RKNS_4pairIT_S9_EE, symObjAddr: 0xDF9C, symBinAddr: 0x10001DCFC, symSize: 0x18 }
  - { offsetInCU: 0x43CA9, offset: 0x6C7D7, size: 0x8, addend: 0x0, symName: __ZN5folly7dynamicC2Ey, symObjAddr: 0xDFB4, symBinAddr: 0x10001DD14, symSize: 0x68 }
  - { offsetInCU: 0x43CE6, offset: 0x6C814, size: 0x8, addend: 0x0, symName: __ZNSt3__113unordered_mapINS_12basic_stringIcNS_11char_traitsIcEENS_9allocatorIcEEEEN5folly7dynamicENS_4hashIS6_EENS_8equal_toIS6_EENS4_INS_4pairIKS6_S8_EEEEEaSEOSH_, symObjAddr: 0xE1F8, symBinAddr: 0x10001DD7C, symSize: 0x34 }
  - { offsetInCU: 0x43D1D, offset: 0x6C84B, size: 0x8, addend: 0x0, symName: __ZNSt3__16vectorIN5folly7dynamicENS_9allocatorIS2_EEEaSB8ue170006EOS5_, symObjAddr: 0xE22C, symBinAddr: 0x10001DDB0, symSize: 0x34 }
  - { offsetInCU: 0x43D54, offset: 0x6C882, size: 0x8, addend: 0x0, symName: __ZNSt3__112__hash_tableINS_17__hash_value_typeINS_12basic_stringIcNS_11char_traitsIcEENS_9allocatorIcEEEEN5folly7dynamicEEENS_22__unordered_map_hasherIS7_SA_NS_4hashIS7_EENS_8equal_toIS7_EELb1EEENS_21__unordered_map_equalIS7_SA_SF_SD_Lb1EEENS5_ISA_EEEaSEOSK_, symObjAddr: 0xE294, symBinAddr: 0x10001DDE4, symSize: 0x34 }
  - { offsetInCU: 0x43D8B, offset: 0x6C8B9, size: 0x8, addend: 0x0, symName: __ZNSt3__112__hash_tableINS_17__hash_value_typeINS_12basic_stringIcNS_11char_traitsIcEENS_9allocatorIcEEEEN5folly7dynamicEEENS_22__unordered_map_hasherIS7_SA_NS_4hashIS7_EENS_8equal_toIS7_EELb1EEENS_21__unordered_map_equalIS7_SA_SF_SD_Lb1EEENS5_ISA_EEE13__move_assignERSK_NS_17integral_constantIbLb1EEE, symObjAddr: 0xE2C8, symBinAddr: 0x10001DE18, symSize: 0x1B8 }
  - { offsetInCU: 0x43DCD, offset: 0x6C8FB, size: 0x8, addend: 0x0, symName: __ZNSt3__112__hash_tableINS_17__hash_value_typeINS_12basic_stringIcNS_11char_traitsIcEENS_9allocatorIcEEEEN5folly7dynamicEEENS_22__unordered_map_hasherIS7_SA_NS_4hashIS7_EENS_8equal_toIS7_EELb1EEENS_21__unordered_map_equalIS7_SA_SF_SD_Lb1EEENS5_ISA_EEE5clearEv, symObjAddr: 0xE480, symBinAddr: 0x10001DFD0, symSize: 0xCC }
  - { offsetInCU: 0x43E31, offset: 0x6C95F, size: 0x8, addend: 0x0, symName: __ZNSt3__110unique_ptrIA_PNS_16__hash_node_baseIPNS_11__hash_nodeINS_17__hash_value_typeINS_12basic_stringIcNS_11char_traitsIcEENS_9allocatorIcEEEEN5folly7dynamicEEEPvEEEENS_25__bucket_list_deallocatorINS7_ISH_EEEEE7releaseB8ue170006Ev, symObjAddr: 0xE54C, symBinAddr: 0x10001E09C, symSize: 0x44 }
  - { offsetInCU: 0x43E66, offset: 0x6C994, size: 0x8, addend: 0x0, symName: __ZNSt3__112__hash_tableINS_17__hash_value_typeINS_12basic_stringIcNS_11char_traitsIcEENS_9allocatorIcEEEEN5folly7dynamicEEENS_22__unordered_map_hasherIS7_SA_NS_4hashIS7_EENS_8equal_toIS7_EELb1EEENS_21__unordered_map_equalIS7_SA_SF_SD_Lb1EEENS5_ISA_EEE19__move_assign_allocB8ue170006ERSK_, symObjAddr: 0xE590, symBinAddr: 0x10001E0E0, symSize: 0x2C }
  - { offsetInCU: 0x43E9B, offset: 0x6C9C9, size: 0x8, addend: 0x0, symName: __ZNSt3__112__hash_tableINS_17__hash_value_typeINS_12basic_stringIcNS_11char_traitsIcEENS_9allocatorIcEEEEN5folly7dynamicEEENS_22__unordered_map_hasherIS7_SA_NS_4hashIS7_EENS_8equal_toIS7_EELb1EEENS_21__unordered_map_equalIS7_SA_SF_SD_Lb1EEENS5_ISA_EEE19__move_assign_allocB8ue170006ERSK_NS_17integral_constantIbLb1EEE, symObjAddr: 0xE5BC, symBinAddr: 0x10001E10C, symSize: 0x50 }
  - { offsetInCU: 0x43EDB, offset: 0x6CA09, size: 0x8, addend: 0x0, symName: __ZNSt3__16vectorIN5folly7dynamicENS_9allocatorIS2_EEE13__move_assignERS5_NS_17integral_constantIbLb1EEE, symObjAddr: 0xE60C, symBinAddr: 0x10001E15C, symSize: 0x94 }
  - { offsetInCU: 0x43F1D, offset: 0x6CA4B, size: 0x8, addend: 0x0, symName: __ZNSt3__16vectorIN5folly7dynamicENS_9allocatorIS2_EEE13__vdeallocateEv, symObjAddr: 0xE6A0, symBinAddr: 0x10001E1F0, symSize: 0x94 }
  - { offsetInCU: 0x43F45, offset: 0x6CA73, size: 0x8, addend: 0x0, symName: __ZNSt3__16vectorIN5folly7dynamicENS_9allocatorIS2_EEE19__move_assign_allocB8ue170006ERS5_, symObjAddr: 0xE734, symBinAddr: 0x10001E284, symSize: 0x2C }
  - { offsetInCU: 0x43F7A, offset: 0x6CAA8, size: 0x8, addend: 0x0, symName: __ZNSt3__16vectorIN5folly7dynamicENS_9allocatorIS2_EEE5clearB8ue170006Ev, symObjAddr: 0xE760, symBinAddr: 0x10001E2B0, symSize: 0x44 }
  - { offsetInCU: 0x43FAF, offset: 0x6CADD, size: 0x8, addend: 0x0, symName: __ZNKSt3__16vectorIN5folly7dynamicENS_9allocatorIS2_EEE17__annotate_shrinkB8ue170006Em, symObjAddr: 0xE7A4, symBinAddr: 0x10001E2F4, symSize: 0xD0 }
  - { offsetInCU: 0x43FE4, offset: 0x6CB12, size: 0x8, addend: 0x0, symName: __ZNSt3__16vectorIN5folly7dynamicENS_9allocatorIS2_EEE19__move_assign_allocB8ue170006ERS5_NS_17integral_constantIbLb1EEE, symObjAddr: 0xE874, symBinAddr: 0x10001E3C4, symSize: 0x38 }
  - { offsetInCU: 0x44024, offset: 0x6CB52, size: 0x8, addend: 0x0, symName: __ZN5folly7dynamicC2ERKNSt3__112basic_stringIcNS1_11char_traitsIcEENS1_9allocatorIcEEEE, symObjAddr: 0xEC10, symBinAddr: 0x10001E3FC, symSize: 0xA0 }
  - { offsetInCU: 0x4405C, offset: 0x6CB8A, size: 0x8, addend: 0x0, symName: __ZN5folly7dynamicC2Ed, symObjAddr: 0xECB0, symBinAddr: 0x10001E49C, symSize: 0x64 }
  - { offsetInCU: 0x44094, offset: 0x6CBC2, size: 0x8, addend: 0x0, symName: __ZNSt3__110__get_pairILm0EE3getB8ue170006IKNS_12basic_stringIcNS_11char_traitsIcEENS_9allocatorIcEEEEyEERKT_RKNS_4pairISA_T0_EE, symObjAddr: 0xED14, symBinAddr: 0x10001E500, symSize: 0x14 }
  - { offsetInCU: 0x440CA, offset: 0x6CBF8, size: 0x8, addend: 0x0, symName: __ZNSt3__110__get_pairILm1EE3getB8ue170006IKNS_12basic_stringIcNS_11char_traitsIcEENS_9allocatorIcEEEEyEERKT0_RKNS_4pairIT_SA_EE, symObjAddr: 0xED28, symBinAddr: 0x10001E514, symSize: 0x18 }
  - { offsetInCU: 0x44100, offset: 0x6CC2E, size: 0x8, addend: 0x0, symName: __ZNSt3__113unordered_mapINS_12basic_stringIcNS_11char_traitsIcEENS_9allocatorIcEEEEN5folly7dynamicENS_4hashIS6_EENS_8equal_toIS6_EENS4_INS_4pairIKS6_S8_EEEEEixERSE_, symObjAddr: 0xED40, symBinAddr: 0x10001E52C, symSize: 0x80 }
  - { offsetInCU: 0x44149, offset: 0x6CC77, size: 0x8, addend: 0x0, symName: __ZNSt3__112__hash_tableINS_17__hash_value_typeINS_12basic_stringIcNS_11char_traitsIcEENS_9allocatorIcEEEEN5folly7dynamicEEENS_22__unordered_map_hasherIS7_SA_NS_4hashIS7_EENS_8equal_toIS7_EELb1EEENS_21__unordered_map_equalIS7_SA_SF_SD_Lb1EEENS5_ISA_EEE25__emplace_unique_key_argsIS7_JRKNS_21piecewise_construct_tENS_5tupleIJRKS7_EEENSP_IJEEEEEENS_4pairINS_15__hash_iteratorIPNS_11__hash_nodeISA_PvEEEEbEERKT_DpOT0_, symObjAddr: 0xEDC0, symBinAddr: 0x10001E5AC, symSize: 0x4B0 }
  - { offsetInCU: 0x44253, offset: 0x6CD81, size: 0x8, addend: 0x0, symName: __ZNKSt3__115__hash_iteratorIPNS_11__hash_nodeINS_17__hash_value_typeINS_12basic_stringIcNS_11char_traitsIcEENS_9allocatorIcEEEEN5folly7dynamicEEEPvEEEptB8ue170006Ev, symObjAddr: 0xF2A0, symBinAddr: 0x10001EA88, symSize: 0x30 }
  - { offsetInCU: 0x44279, offset: 0x6CDA7, size: 0x8, addend: 0x0, symName: __ZNSt3__112__hash_tableINS_17__hash_value_typeINS_12basic_stringIcNS_11char_traitsIcEENS_9allocatorIcEEEEN5folly7dynamicEEENS_22__unordered_map_hasherIS7_SA_NS_4hashIS7_EENS_8equal_toIS7_EELb1EEENS_21__unordered_map_equalIS7_SA_SF_SD_Lb1EEENS5_ISA_EEE21__construct_node_hashIRKNS_21piecewise_construct_tEJNS_5tupleIJRKS7_EEENSP_IJEEEEEENS_10unique_ptrINS_11__hash_nodeISA_PvEENS_22__hash_node_destructorINS5_ISX_EEEEEEmOT_DpOT0_, symObjAddr: 0xF2D0, symBinAddr: 0x10001EAB8, symSize: 0x150 }
  - { offsetInCU: 0x44315, offset: 0x6CE43, size: 0x8, addend: 0x0, symName: __ZNSt3__116allocator_traitsINS_9allocatorINS_11__hash_nodeINS_17__hash_value_typeINS_12basic_stringIcNS_11char_traitsIcEENS1_IcEEEEN5folly7dynamicEEEPvEEEEE9constructB8ue170006INS_4pairIKS8_SA_EEJRKNS_21piecewise_construct_tENS_5tupleIJRSI_EEENSN_IJEEEEvEEvRSE_PT_DpOT0_, symObjAddr: 0xF420, symBinAddr: 0x10001EC08, symSize: 0x44 }
  - { offsetInCU: 0x44394, offset: 0x6CEC2, size: 0x8, addend: 0x0, symName: __ZNSt3__19allocatorINS_11__hash_nodeINS_17__hash_value_typeINS_12basic_stringIcNS_11char_traitsIcEENS0_IcEEEEN5folly7dynamicEEEPvEEE9constructB8ue170006INS_4pairIKS7_S9_EEJRKNS_21piecewise_construct_tENS_5tupleIJRSG_EEENSL_IJEEEEEEvPT_DpOT0_, symObjAddr: 0xF464, symBinAddr: 0x10001EC4C, symSize: 0x44 }
  - { offsetInCU: 0x44410, offset: 0x6CF3E, size: 0x8, addend: 0x0, symName: __ZNSt3__14pairIKNS_12basic_stringIcNS_11char_traitsIcEENS_9allocatorIcEEEEN5folly7dynamicEEC1B8ue170006IJRS7_EJEEENS_21piecewise_construct_tENS_5tupleIJDpT_EEENSE_IJDpT0_EEE, symObjAddr: 0xF4A8, symBinAddr: 0x10001EC90, symSize: 0x3C }
  - { offsetInCU: 0x44477, offset: 0x6CFA5, size: 0x8, addend: 0x0, symName: __ZNSt3__14pairIKNS_12basic_stringIcNS_11char_traitsIcEENS_9allocatorIcEEEEN5folly7dynamicEEC1B8ue170006IJRS7_EJEJLm0EEJEEENS_21piecewise_construct_tERNS_5tupleIJDpT_EEERNSE_IJDpT0_EEENS_15__tuple_indicesIJXspT1_EEEENSN_IJXspT2_EEEE, symObjAddr: 0xF4E4, symBinAddr: 0x10001ECCC, symSize: 0x3C }
  - { offsetInCU: 0x44504, offset: 0x6D032, size: 0x8, addend: 0x0, symName: __ZNSt3__14pairIKNS_12basic_stringIcNS_11char_traitsIcEENS_9allocatorIcEEEEN5folly7dynamicEEC2B8ue170006IJRS7_EJEJLm0EEJEEENS_21piecewise_construct_tERNS_5tupleIJDpT_EEERNSE_IJDpT0_EEENS_15__tuple_indicesIJXspT1_EEEENSN_IJXspT2_EEEE, symObjAddr: 0xF520, symBinAddr: 0x10001ED08, symSize: 0x78 }
  - { offsetInCU: 0x44591, offset: 0x6D0BF, size: 0x8, addend: 0x0, symName: __ZNSt3__112__tuple_leafILm0ERKNS_12basic_stringIcNS_11char_traitsIcEENS_9allocatorIcEEEELb0EE3getB8ue170006Ev, symObjAddr: 0xF5BC, symBinAddr: 0x10001EDA4, symSize: 0x18 }
  - { offsetInCU: 0x445B7, offset: 0x6D0E5, size: 0x8, addend: 0x0, symName: __ZNSt3__15tupleIJRKNS_12basic_stringIcNS_11char_traitsIcEENS_9allocatorIcEEEEEEC1B8ue170006INS_4_AndELi0EEES8_, symObjAddr: 0xF5D4, symBinAddr: 0x10001EDBC, symSize: 0x34 }
  - { offsetInCU: 0x44600, offset: 0x6D12E, size: 0x8, addend: 0x0, symName: __ZNSt3__15tupleIJRKNS_12basic_stringIcNS_11char_traitsIcEENS_9allocatorIcEEEEEEC2B8ue170006INS_4_AndELi0EEES8_, symObjAddr: 0xF608, symBinAddr: 0x10001EDF0, symSize: 0x34 }
  - { offsetInCU: 0x44649, offset: 0x6D177, size: 0x8, addend: 0x0, symName: __ZNSt3__112__tuple_implINS_15__tuple_indicesIJLm0EEEEJRKNS_12basic_stringIcNS_11char_traitsIcEENS_9allocatorIcEEEEEEC1B8ue170006IJLm0EEJSA_EJEJEJSA_EEENS1_IJXspT_EEEENS_13__tuple_typesIJDpT0_EEENS1_IJXspT1_EEEENSE_IJDpT2_EEEDpOT3_, symObjAddr: 0xF63C, symBinAddr: 0x10001EE24, symSize: 0x34 }
  - { offsetInCU: 0x446DA, offset: 0x6D208, size: 0x8, addend: 0x0, symName: __ZNSt3__112__tuple_implINS_15__tuple_indicesIJLm0EEEEJRKNS_12basic_stringIcNS_11char_traitsIcEENS_9allocatorIcEEEEEEC2B8ue170006IJLm0EEJSA_EJEJEJSA_EEENS1_IJXspT_EEEENS_13__tuple_typesIJDpT0_EEENS1_IJXspT1_EEEENSE_IJDpT2_EEEDpOT3_, symObjAddr: 0xF670, symBinAddr: 0x10001EE58, symSize: 0x34 }
  - { offsetInCU: 0x4476B, offset: 0x6D299, size: 0x8, addend: 0x0, symName: __ZNSt3__112__tuple_leafILm0ERKNS_12basic_stringIcNS_11char_traitsIcEENS_9allocatorIcEEEELb0EEC2B8ue170006IS8_vEEOT_, symObjAddr: 0xF6A4, symBinAddr: 0x10001EE8C, symSize: 0x20 }
  - { offsetInCU: 0x447AE, offset: 0x6D2DC, size: 0x8, addend: 0x0, symName: __ZNSt3__114pointer_traitsIPNS_17__hash_value_typeINS_12basic_stringIcNS_11char_traitsIcEENS_9allocatorIcEEEEN5folly7dynamicEEEE10pointer_toB8ue170006ERSA_, symObjAddr: 0xF6C4, symBinAddr: 0x10001EEAC, symSize: 0x14 }
  - { offsetInCU: 0x447D1, offset: 0x6D2FF, size: 0x8, addend: 0x0, symName: __ZNKSt3__111__wrap_iterIPNS_12basic_stringIcNS_11char_traitsIcEENS_9allocatorIcEEEEE4baseB8ue170006Ev, symObjAddr: 0xF720, symBinAddr: 0x10001EF08, symSize: 0x18 }
  - { offsetInCU: 0x447F7, offset: 0x6D325, size: 0x8, addend: 0x0, symName: __ZNSt3__16vectorIN5folly7dynamicENS_9allocatorIS2_EEE9push_backB8ue170006EOS2_, symObjAddr: 0xF738, symBinAddr: 0x10001EF20, symSize: 0x6C }
  - { offsetInCU: 0x4482E, offset: 0x6D35C, size: 0x8, addend: 0x0, symName: __ZNSt3__16vectorIN5folly7dynamicENS_9allocatorIS2_EEE22__construct_one_at_endB8ue170006IJS2_EEEvDpOT_, symObjAddr: 0xF7A4, symBinAddr: 0x10001EF8C, symSize: 0x90 }
  - { offsetInCU: 0x4487D, offset: 0x6D3AB, size: 0x8, addend: 0x0, symName: __ZNSt3__16vectorIN5folly7dynamicENS_9allocatorIS2_EEE21__push_back_slow_pathIS2_EEvOT_, symObjAddr: 0xF834, symBinAddr: 0x10001F01C, symSize: 0xD8 }
  - { offsetInCU: 0x448DB, offset: 0x6D409, size: 0x8, addend: 0x0, symName: __ZNSt3__116allocator_traitsINS_9allocatorIN5folly7dynamicEEEE9constructB8ue170006IS3_JS3_EvEEvRS4_PT_DpOT0_, symObjAddr: 0xF90C, symBinAddr: 0x10001F0F4, symSize: 0x34 }
  - { offsetInCU: 0x44932, offset: 0x6D460, size: 0x8, addend: 0x0, symName: __ZNSt3__19allocatorIN5folly7dynamicEE9constructB8ue170006IS2_JS2_EEEvPT_DpOT0_, symObjAddr: 0xF940, symBinAddr: 0x10001F128, symSize: 0x30 }
  - { offsetInCU: 0x44988, offset: 0x6D4B6, size: 0x8, addend: 0x0, symName: __ZNKSt3__16vectorIN5folly7dynamicENS_9allocatorIS2_EEE11__recommendB8ue170006Em, symObjAddr: 0xF970, symBinAddr: 0x10001F158, symSize: 0xB4 }
  - { offsetInCU: 0x449DD, offset: 0x6D50B, size: 0x8, addend: 0x0, symName: __ZNSt3__114__split_bufferIN5folly7dynamicERNS_9allocatorIS2_EEEC1EmmS5_, symObjAddr: 0xFA24, symBinAddr: 0x10001F20C, symSize: 0x44 }
  - { offsetInCU: 0x44A33, offset: 0x6D561, size: 0x8, addend: 0x0, symName: __ZNSt3__114__split_bufferIN5folly7dynamicERNS_9allocatorIS2_EEED1Ev, symObjAddr: 0xFB78, symBinAddr: 0x10001F360, symSize: 0x2C }
  - { offsetInCU: 0x44A5F, offset: 0x6D58D, size: 0x8, addend: 0x0, symName: __ZNSt3__114__split_bufferIN5folly7dynamicERNS_9allocatorIS2_EEEC2EmmS5_, symObjAddr: 0xFBA4, symBinAddr: 0x10001F38C, symSize: 0xE0 }
  - { offsetInCU: 0x44AD3, offset: 0x6D601, size: 0x8, addend: 0x0, symName: __ZNSt3__117__compressed_pairIPN5folly7dynamicERNS_9allocatorIS2_EEEC1B8ue170006IDnS6_EEOT_OT0_, symObjAddr: 0xFC84, symBinAddr: 0x10001F46C, symSize: 0x3C }
  - { offsetInCU: 0x44B2B, offset: 0x6D659, size: 0x8, addend: 0x0, symName: __ZNSt3__114__split_bufferIN5folly7dynamicERNS_9allocatorIS2_EEE7__allocB8ue170006Ev, symObjAddr: 0xFCC0, symBinAddr: 0x10001F4A8, symSize: 0x28 }
  - { offsetInCU: 0x44B51, offset: 0x6D67F, size: 0x8, addend: 0x0, symName: __ZNSt3__114__split_bufferIN5folly7dynamicERNS_9allocatorIS2_EEE9__end_capB8ue170006Ev, symObjAddr: 0xFCE8, symBinAddr: 0x10001F4D0, symSize: 0x28 }
  - { offsetInCU: 0x44B77, offset: 0x6D6A5, size: 0x8, addend: 0x0, symName: __ZNSt3__117__compressed_pairIPN5folly7dynamicERNS_9allocatorIS2_EEEC2B8ue170006IDnS6_EEOT_OT0_, symObjAddr: 0xFD10, symBinAddr: 0x10001F4F8, symSize: 0x48 }
  - { offsetInCU: 0x44BCF, offset: 0x6D6FD, size: 0x8, addend: 0x0, symName: __ZNSt3__122__compressed_pair_elemIRNS_9allocatorIN5folly7dynamicEEELi1ELb0EEC2B8ue170006IS5_vEEOT_, symObjAddr: 0xFD58, symBinAddr: 0x10001F540, symSize: 0x20 }
  - { offsetInCU: 0x44C11, offset: 0x6D73F, size: 0x8, addend: 0x0, symName: __ZNSt3__117__compressed_pairIPN5folly7dynamicERNS_9allocatorIS2_EEE6secondB8ue170006Ev, symObjAddr: 0xFD78, symBinAddr: 0x10001F560, symSize: 0x28 }
  - { offsetInCU: 0x44C37, offset: 0x6D765, size: 0x8, addend: 0x0, symName: __ZNSt3__122__compressed_pair_elemIRNS_9allocatorIN5folly7dynamicEEELi1ELb0EE5__getB8ue170006Ev, symObjAddr: 0xFDA0, symBinAddr: 0x10001F588, symSize: 0x18 }
  - { offsetInCU: 0x44C5D, offset: 0x6D78B, size: 0x8, addend: 0x0, symName: __ZNSt3__117__compressed_pairIPN5folly7dynamicERNS_9allocatorIS2_EEE5firstB8ue170006Ev, symObjAddr: 0xFDB8, symBinAddr: 0x10001F5A0, symSize: 0x24 }
  - { offsetInCU: 0x44C83, offset: 0x6D7B1, size: 0x8, addend: 0x0, symName: __ZNSt3__129_AllocatorDestroyRangeReverseINS_9allocatorIN5folly7dynamicEEENS_16reverse_iteratorIPS3_EEEC1B8ue170006ERS4_RS7_SA_, symObjAddr: 0xFF80, symBinAddr: 0x10001F768, symSize: 0x44 }
  - { offsetInCU: 0x44CDA, offset: 0x6D808, size: 0x8, addend: 0x0, symName: __ZNSt3__128__exception_guard_exceptionsINS_29_AllocatorDestroyRangeReverseINS_9allocatorIN5folly7dynamicEEENS_16reverse_iteratorIPS4_EEEEE10__completeB8ue170006Ev, symObjAddr: 0xFFC4, symBinAddr: 0x10001F7AC, symSize: 0x1C }
  - { offsetInCU: 0x44D00, offset: 0x6D82E, size: 0x8, addend: 0x0, symName: __ZNSt3__128__exception_guard_exceptionsINS_29_AllocatorDestroyRangeReverseINS_9allocatorIN5folly7dynamicEEENS_16reverse_iteratorIPS4_EEEEED1B8ue170006Ev, symObjAddr: 0xFFE0, symBinAddr: 0x10001F7C8, symSize: 0x2C }
  - { offsetInCU: 0x44D2A, offset: 0x6D858, size: 0x8, addend: 0x0, symName: __ZNSt3__128__exception_guard_exceptionsINS_29_AllocatorDestroyRangeReverseINS_9allocatorIN5folly7dynamicEEENS_16reverse_iteratorIPS4_EEEEEC1B8ue170006ES9_, symObjAddr: 0x1000C, symBinAddr: 0x10001F7F4, symSize: 0x34 }
  - { offsetInCU: 0x44D63, offset: 0x6D891, size: 0x8, addend: 0x0, symName: __ZNSt3__128__exception_guard_exceptionsINS_29_AllocatorDestroyRangeReverseINS_9allocatorIN5folly7dynamicEEENS_16reverse_iteratorIPS4_EEEEEC2B8ue170006ES9_, symObjAddr: 0x10040, symBinAddr: 0x10001F828, symSize: 0x30 }
  - { offsetInCU: 0x44D9C, offset: 0x6D8CA, size: 0x8, addend: 0x0, symName: __ZNSt3__129_AllocatorDestroyRangeReverseINS_9allocatorIN5folly7dynamicEEENS_16reverse_iteratorIPS3_EEEC2B8ue170006ERS4_RS7_SA_, symObjAddr: 0x10070, symBinAddr: 0x10001F858, symSize: 0x38 }
  - { offsetInCU: 0x44DF3, offset: 0x6D921, size: 0x8, addend: 0x0, symName: __ZNSt3__128__exception_guard_exceptionsINS_29_AllocatorDestroyRangeReverseINS_9allocatorIN5folly7dynamicEEENS_16reverse_iteratorIPS4_EEEEED2B8ue170006Ev, symObjAddr: 0x100A8, symBinAddr: 0x10001F890, symSize: 0x50 }
  - { offsetInCU: 0x44E1D, offset: 0x6D94B, size: 0x8, addend: 0x0, symName: __ZNKSt3__129_AllocatorDestroyRangeReverseINS_9allocatorIN5folly7dynamicEEENS_16reverse_iteratorIPS3_EEEclB8ue170006Ev, symObjAddr: 0x100F8, symBinAddr: 0x10001F8E0, symSize: 0xB4 }
  - { offsetInCU: 0x44E44, offset: 0x6D972, size: 0x8, addend: 0x0, symName: __ZNSt3__116reverse_iteratorINS0_IPN5folly7dynamicEEEEC1B8ue170006ES4_, symObjAddr: 0x1021C, symBinAddr: 0x10001FA04, symSize: 0x3C }
  - { offsetInCU: 0x44E7C, offset: 0x6D9AA, size: 0x8, addend: 0x0, symName: __ZNSt3__116reverse_iteratorINS0_IPN5folly7dynamicEEEEppB8ue170006Ev, symObjAddr: 0x102DC, symBinAddr: 0x10001FAC4, symSize: 0x30 }
  - { offsetInCU: 0x44EA2, offset: 0x6D9D0, size: 0x8, addend: 0x0, symName: __ZNKSt3__116reverse_iteratorINS0_IPN5folly7dynamicEEEE4baseB8ue170006Ev, symObjAddr: 0x1030C, symBinAddr: 0x10001FAF4, symSize: 0x24 }
  - { offsetInCU: 0x44ECE, offset: 0x6D9FC, size: 0x8, addend: 0x0, symName: __ZNSt3__119__to_address_helperINS_16reverse_iteratorINS1_IPN5folly7dynamicEEEEEvE6__callB8ue170006ERKS6_, symObjAddr: 0x10330, symBinAddr: 0x10001FB18, symSize: 0x38 }
  - { offsetInCU: 0x44EF1, offset: 0x6DA1F, size: 0x8, addend: 0x0, symName: __ZNKSt3__116reverse_iteratorINS0_IPN5folly7dynamicEEEEptB8ue170006Ev, symObjAddr: 0x10368, symBinAddr: 0x10001FB50, symSize: 0x24 }
  - { offsetInCU: 0x44F17, offset: 0x6DA45, size: 0x8, addend: 0x0, symName: __ZNKSt3__116reverse_iteratorINS0_IPN5folly7dynamicEEEEdeB8ue170006Ev, symObjAddr: 0x1038C, symBinAddr: 0x10001FB74, symSize: 0x34 }
  - { offsetInCU: 0x44F4B, offset: 0x6DA79, size: 0x8, addend: 0x0, symName: __ZNSt3__116reverse_iteratorIPN5folly7dynamicEEmmB8ue170006Ev, symObjAddr: 0x103C0, symBinAddr: 0x10001FBA8, symSize: 0x20 }
  - { offsetInCU: 0x44F71, offset: 0x6DA9F, size: 0x8, addend: 0x0, symName: __ZNSt3__116reverse_iteratorINS0_IPN5folly7dynamicEEEEC2B8ue170006ES4_, symObjAddr: 0x103E0, symBinAddr: 0x10001FBC8, symSize: 0x2C }
  - { offsetInCU: 0x44FA9, offset: 0x6DAD7, size: 0x8, addend: 0x0, symName: __ZNSt3__114__split_bufferIN5folly7dynamicERNS_9allocatorIS2_EEED2Ev, symObjAddr: 0x1040C, symBinAddr: 0x10001FBF4, symSize: 0x8C }
  - { offsetInCU: 0x44FD5, offset: 0x6DB03, size: 0x8, addend: 0x0, symName: __ZNSt3__114__split_bufferIN5folly7dynamicERNS_9allocatorIS2_EEE5clearB8ue170006Ev, symObjAddr: 0x10498, symBinAddr: 0x10001FC80, symSize: 0x28 }
  - { offsetInCU: 0x44FFB, offset: 0x6DB29, size: 0x8, addend: 0x0, symName: __ZNKSt3__114__split_bufferIN5folly7dynamicERNS_9allocatorIS2_EEE8capacityB8ue170006Ev, symObjAddr: 0x104C0, symBinAddr: 0x10001FCA8, symSize: 0x40 }
  - { offsetInCU: 0x45021, offset: 0x6DB4F, size: 0x8, addend: 0x0, symName: __ZNSt3__114__split_bufferIN5folly7dynamicERNS_9allocatorIS2_EEE17__destruct_at_endB8ue170006EPS2_, symObjAddr: 0x10500, symBinAddr: 0x10001FCE8, symSize: 0x2C }
  - { offsetInCU: 0x45055, offset: 0x6DB83, size: 0x8, addend: 0x0, symName: __ZNSt3__114__split_bufferIN5folly7dynamicERNS_9allocatorIS2_EEE17__destruct_at_endB8ue170006EPS2_NS_17integral_constantIbLb0EEE, symObjAddr: 0x1052C, symBinAddr: 0x10001FD14, symSize: 0x80 }
  - { offsetInCU: 0x45096, offset: 0x6DBC4, size: 0x8, addend: 0x0, symName: __ZNKSt3__114__split_bufferIN5folly7dynamicERNS_9allocatorIS2_EEE9__end_capB8ue170006Ev, symObjAddr: 0x105AC, symBinAddr: 0x10001FD94, symSize: 0x28 }
  - { offsetInCU: 0x450BC, offset: 0x6DBEA, size: 0x8, addend: 0x0, symName: __ZNKSt3__117__compressed_pairIPN5folly7dynamicERNS_9allocatorIS2_EEE5firstB8ue170006Ev, symObjAddr: 0x105D4, symBinAddr: 0x10001FDBC, symSize: 0x24 }
  - { offsetInCU: 0x450E2, offset: 0x6DC10, size: 0x8, addend: 0x0, symName: __ZN5folly7dynamicC2EOS0_, symObjAddr: 0x105F8, symBinAddr: 0x10001FDE0, symSize: 0x84 }
  - { offsetInCU: 0x45117, offset: 0x6DC45, size: 0x8, addend: 0x0, symName: __ZNSt3__113unordered_mapINS_12basic_stringIcNS_11char_traitsIcEENS_9allocatorIcEEEEN5folly7dynamicENS_4hashIS6_EENS_8equal_toIS6_EENS4_INS_4pairIKS6_S8_EEEEEC1EOSH_, symObjAddr: 0x1067C, symBinAddr: 0x10001FE64, symSize: 0x34 }
  - { offsetInCU: 0x45152, offset: 0x6DC80, size: 0x8, addend: 0x0, symName: __ZNSt3__16vectorIN5folly7dynamicENS_9allocatorIS2_EEEC1B8ue170006EOS5_, symObjAddr: 0x106B0, symBinAddr: 0x10001FE98, symSize: 0x34 }
  - { offsetInCU: 0x4518D, offset: 0x6DCBB, size: 0x8, addend: 0x0, symName: __ZNSt3__113unordered_mapINS_12basic_stringIcNS_11char_traitsIcEENS_9allocatorIcEEEEN5folly7dynamicENS_4hashIS6_EENS_8equal_toIS6_EENS4_INS_4pairIKS6_S8_EEEEEC2EOSH_, symObjAddr: 0x10718, symBinAddr: 0x10001FECC, symSize: 0x34 }
  - { offsetInCU: 0x451C8, offset: 0x6DCF6, size: 0x8, addend: 0x0, symName: __ZNSt3__112__hash_tableINS_17__hash_value_typeINS_12basic_stringIcNS_11char_traitsIcEENS_9allocatorIcEEEEN5folly7dynamicEEENS_22__unordered_map_hasherIS7_SA_NS_4hashIS7_EENS_8equal_toIS7_EELb1EEENS_21__unordered_map_equalIS7_SA_SF_SD_Lb1EEENS5_ISA_EEEC1EOSK_, symObjAddr: 0x1074C, symBinAddr: 0x10001FF00, symSize: 0x34 }
  - { offsetInCU: 0x45203, offset: 0x6DD31, size: 0x8, addend: 0x0, symName: __ZNSt3__112__hash_tableINS_17__hash_value_typeINS_12basic_stringIcNS_11char_traitsIcEENS_9allocatorIcEEEEN5folly7dynamicEEENS_22__unordered_map_hasherIS7_SA_NS_4hashIS7_EENS_8equal_toIS7_EELb1EEENS_21__unordered_map_equalIS7_SA_SF_SD_Lb1EEENS5_ISA_EEEC2EOSK_, symObjAddr: 0x10780, symBinAddr: 0x10001FF34, symSize: 0xF8 }
  - { offsetInCU: 0x4523E, offset: 0x6DD6C, size: 0x8, addend: 0x0, symName: __ZNSt3__110unique_ptrIA_PNS_16__hash_node_baseIPNS_11__hash_nodeINS_17__hash_value_typeINS_12basic_stringIcNS_11char_traitsIcEENS_9allocatorIcEEEEN5folly7dynamicEEEPvEEEENS_25__bucket_list_deallocatorINS7_ISH_EEEEEC1B8ue170006EOSM_, symObjAddr: 0x10878, symBinAddr: 0x10002002C, symSize: 0x34 }
  - { offsetInCU: 0x45277, offset: 0x6DDA5, size: 0x8, addend: 0x0, symName: __ZNSt3__110unique_ptrIA_PNS_16__hash_node_baseIPNS_11__hash_nodeINS_17__hash_value_typeINS_12basic_stringIcNS_11char_traitsIcEENS_9allocatorIcEEEEN5folly7dynamicEEEPvEEEENS_25__bucket_list_deallocatorINS7_ISH_EEEEEC2B8ue170006EOSM_, symObjAddr: 0x108AC, symBinAddr: 0x100020060, symSize: 0x60 }
  - { offsetInCU: 0x452B6, offset: 0x6DDE4, size: 0x8, addend: 0x0, symName: __ZNSt3__117__compressed_pairIPPNS_16__hash_node_baseIPNS_11__hash_nodeINS_17__hash_value_typeINS_12basic_stringIcNS_11char_traitsIcEENS_9allocatorIcEEEEN5folly7dynamicEEEPvEEEENS_25__bucket_list_deallocatorINS7_ISH_EEEEEC1B8ue170006ISI_SL_EEOT_OT0_, symObjAddr: 0x1090C, symBinAddr: 0x1000200C0, symSize: 0x3C }
  - { offsetInCU: 0x4530E, offset: 0x6DE3C, size: 0x8, addend: 0x0, symName: __ZNSt3__117__compressed_pairIPPNS_16__hash_node_baseIPNS_11__hash_nodeINS_17__hash_value_typeINS_12basic_stringIcNS_11char_traitsIcEENS_9allocatorIcEEEEN5folly7dynamicEEEPvEEEENS_25__bucket_list_deallocatorINS7_ISH_EEEEEC2B8ue170006ISI_SL_EEOT_OT0_, symObjAddr: 0x10948, symBinAddr: 0x1000200FC, symSize: 0x48 }
  - { offsetInCU: 0x45366, offset: 0x6DE94, size: 0x8, addend: 0x0, symName: __ZNSt3__122__compressed_pair_elemIPPNS_16__hash_node_baseIPNS_11__hash_nodeINS_17__hash_value_typeINS_12basic_stringIcNS_11char_traitsIcEENS_9allocatorIcEEEEN5folly7dynamicEEEPvEEEELi0ELb0EEC2B8ue170006ISI_vEEOT_, symObjAddr: 0x10990, symBinAddr: 0x100020144, symSize: 0x24 }
  - { offsetInCU: 0x453A8, offset: 0x6DED6, size: 0x8, addend: 0x0, symName: __ZNSt3__16vectorIN5folly7dynamicENS_9allocatorIS2_EEEC2B8ue170006EOS5_, symObjAddr: 0x109B4, symBinAddr: 0x100020168, symSize: 0xC4 }
  - { offsetInCU: 0x453E3, offset: 0x6DF11, size: 0x8, addend: 0x0, symName: __ZN5folly7dynamicC2Ei, symObjAddr: 0x10B08, symBinAddr: 0x10002022C, symSize: 0x68 }
  - { offsetInCU: 0x4541B, offset: 0x6DF49, size: 0x8, addend: 0x0, symName: __ZNSt3__110__get_pairILm0EE3getB8ue170006IKyNS_10shared_ptrIN5hf3fs17monitor_collector13WorkloadStatsEEEEERT_RNS_4pairIS9_T0_EE, symObjAddr: 0x10B70, symBinAddr: 0x100020294, symSize: 0x14 }
  - { offsetInCU: 0x45451, offset: 0x6DF7F, size: 0x8, addend: 0x0, symName: __ZNSt3__110__get_pairILm1EE3getB8ue170006IKyNS_10shared_ptrIN5hf3fs17monitor_collector13WorkloadStatsEEEEERT0_RNS_4pairIT_S9_EE, symObjAddr: 0x10B84, symBinAddr: 0x1000202A8, symSize: 0x18 }
  - { offsetInCU: 0x45487, offset: 0x6DFB5, size: 0x8, addend: 0x0, symName: __ZNKSt3__111__wrap_iterIPN5hf3fs17monitor_collector15OperationRecordEE4baseB8ue170006Ev, symObjAddr: 0x10BE4, symBinAddr: 0x100020308, symSize: 0x18 }
  - { offsetInCU: 0x454AD, offset: 0x6DFDB, size: 0x8, addend: 0x0, symName: __ZNKSt3__111__wrap_iterIPyE4baseB8ue170006Ev, symObjAddr: 0x10C44, symBinAddr: 0x100020368, symSize: 0x18 }
  - { offsetInCU: 0x454D3, offset: 0x6E001, size: 0x8, addend: 0x0, symName: __ZNSt3__111__wrap_iterIPKNS_10shared_ptrIN5hf3fs17monitor_collector13WorkloadStatsEEEEC2B8ue170006IPS5_EERKNS0_IT_EEPNS_9enable_ifIXsr14is_convertibleISB_S7_EE5valueEvE4typeE, symObjAddr: 0x10C5C, symBinAddr: 0x100020380, symSize: 0x40 }
  - { offsetInCU: 0x4551F, offset: 0x6E04D, size: 0x8, addend: 0x0, symName: __ZNKSt3__111__wrap_iterIPKN5hf3fs17monitor_collector15OperationRecordEE4baseB8ue170006Ev, symObjAddr: 0x10CE4, symBinAddr: 0x100020408, symSize: 0x18 }
  - { offsetInCU: 0x45559, offset: 0x6E087, size: 0x8, addend: 0x0, symName: __ZNKSt16initializer_listIiE5beginB8ue170006Ev, symObjAddr: 0x10D2C, symBinAddr: 0x100020450, symSize: 0x18 }
  - { offsetInCU: 0x4557F, offset: 0x6E0AD, size: 0x8, addend: 0x0, symName: __ZNKSt16initializer_listIiE3endB8ue170006Ev, symObjAddr: 0x10D44, symBinAddr: 0x100020468, symSize: 0x20 }
  - { offsetInCU: 0x455AB, offset: 0x6E0D9, size: 0x8, addend: 0x0, symName: __ZNKSt3__16__lessIvvEclB8ue170006IiiEEbRKT_RKT0_, symObjAddr: 0x10E00, symBinAddr: 0x100020524, symSize: 0x34 }
  - { offsetInCU: 0x455FF, offset: 0x6E12D, size: 0x8, addend: 0x0, symName: __ZNSt3__18functionIFvvEED2Ev, symObjAddr: 0x10E78, symBinAddr: 0x100020558, symSize: 0x2C }
  - { offsetInCU: 0x4562B, offset: 0x6E159, size: 0x8, addend: 0x0, symName: __ZNSt3__110__function12__value_funcIFvvEED1B8ue170006Ev, symObjAddr: 0x10EA4, symBinAddr: 0x100020584, symSize: 0x2C }
  - { offsetInCU: 0x45655, offset: 0x6E183, size: 0x8, addend: 0x0, symName: __ZNSt3__110__function12__value_funcIFvvEED2B8ue170006Ev, symObjAddr: 0x10ED0, symBinAddr: 0x1000205B0, symSize: 0x90 }
  - { offsetInCU: 0x4567F, offset: 0x6E1AD, size: 0x8, addend: 0x0, symName: __ZNSt3__112basic_stringIcNS_11char_traitsIcEENS_9allocatorIcEEE15__make_iteratorB8ue170006EPc, symObjAddr: 0x10F60, symBinAddr: 0x100020640, symSize: 0x30 }
  - { offsetInCU: 0x456B4, offset: 0x6E1E2, size: 0x8, addend: 0x0, symName: __ZNSt3__111__wrap_iterIPcEC1B8ue170006ES1_, symObjAddr: 0x10FE4, symBinAddr: 0x100020670, symSize: 0x34 }
  - { offsetInCU: 0x456EC, offset: 0x6E21A, size: 0x8, addend: 0x0, symName: __ZNSt3__111__wrap_iterIPcEC2B8ue170006ES1_, symObjAddr: 0x11018, symBinAddr: 0x1000206A4, symSize: 0x20 }
  - { offsetInCU: 0x45724, offset: 0x6E252, size: 0x8, addend: 0x0, symName: __ZNKSt3__111__wrap_iterIPcEdeB8ue170006Ev, symObjAddr: 0x1106C, symBinAddr: 0x1000206F8, symSize: 0x18 }
  - { offsetInCU: 0x4574A, offset: 0x6E278, size: 0x8, addend: 0x0, symName: __ZNSt3__111__wrap_iterIPcEppB8ue170006Ev, symObjAddr: 0x11084, symBinAddr: 0x100020710, symSize: 0x20 }
  - { offsetInCU: 0x45770, offset: 0x6E29E, size: 0x8, addend: 0x0, symName: __ZNKSt3__111__wrap_iterIPcE4baseB8ue170006Ev, symObjAddr: 0x110EC, symBinAddr: 0x100020778, symSize: 0x18 }
  - { offsetInCU: 0x45796, offset: 0x6E2C4, size: 0x8, addend: 0x0, symName: __ZNSt3__16vectorINS_10shared_ptrIN5hf3fs17monitor_collector13WorkloadStatsEEENS_9allocatorIS5_EEEC2B8ue170006Ev, symObjAddr: 0x11744, symBinAddr: 0x100020790, symSize: 0x4C }
  - { offsetInCU: 0x457C0, offset: 0x6E2EE, size: 0x8, addend: 0x0, symName: __ZNSt3__117__compressed_pairIPNS_10shared_ptrIN5hf3fs17monitor_collector13WorkloadStatsEEENS_9allocatorIS5_EEEC1B8ue170006IDnNS_18__default_init_tagEEEOT_OT0_, symObjAddr: 0x11790, symBinAddr: 0x1000207DC, symSize: 0x3C }
  - { offsetInCU: 0x45818, offset: 0x6E346, size: 0x8, addend: 0x0, symName: __ZNSt3__117__compressed_pairIPNS_10shared_ptrIN5hf3fs17monitor_collector13WorkloadStatsEEENS_9allocatorIS5_EEEC2B8ue170006IDnNS_18__default_init_tagEEEOT_OT0_, symObjAddr: 0x117CC, symBinAddr: 0x100020818, symSize: 0x40 }
  - { offsetInCU: 0x45870, offset: 0x6E39E, size: 0x8, addend: 0x0, symName: __ZNSt3__122__compressed_pair_elemIPNS_10shared_ptrIN5hf3fs17monitor_collector13WorkloadStatsEEELi0ELb0EEC2B8ue170006IDnvEEOT_, symObjAddr: 0x1180C, symBinAddr: 0x100020858, symSize: 0x1C }
  - { offsetInCU: 0x458B2, offset: 0x6E3E0, size: 0x8, addend: 0x0, symName: __ZNSt3__122__compressed_pair_elemINS_9allocatorINS_10shared_ptrIN5hf3fs17monitor_collector13WorkloadStatsEEEEELi1ELb1EEC2B8ue170006ENS_18__default_init_tagE, symObjAddr: 0x11828, symBinAddr: 0x100020874, symSize: 0x2C }
  - { offsetInCU: 0x458E7, offset: 0x6E415, size: 0x8, addend: 0x0, symName: __ZNSt3__19allocatorINS_10shared_ptrIN5hf3fs17monitor_collector13WorkloadStatsEEEEC2B8ue170006Ev, symObjAddr: 0x11854, symBinAddr: 0x1000208A0, symSize: 0x2C }
  - { offsetInCU: 0x45911, offset: 0x6E43F, size: 0x8, addend: 0x0, symName: __ZNSt3__116__non_trivial_ifILb1ENS_9allocatorINS_10shared_ptrIN5hf3fs17monitor_collector13WorkloadStatsEEEEEEC2B8ue170006Ev, symObjAddr: 0x11880, symBinAddr: 0x1000208CC, symSize: 0x14 }
  - { offsetInCU: 0x4593B, offset: 0x6E469, size: 0x8, addend: 0x0, symName: __ZNSt3__110unique_ptrIN5hf3fs16BackgroundRunnerENS_14default_deleteIS2_EEED2B8ue170006Ev, symObjAddr: 0x11D4C, symBinAddr: 0x1000208E0, symSize: 0x30 }
  - { offsetInCU: 0x4596A, offset: 0x6E498, size: 0x8, addend: 0x0, symName: '__ZNSt3__18functionIFvvEEC2IZN5hf3fs17monitor_collector19MLWorkloadAnalyticsC1ERKNS6_6ConfigEE3$_0vEET_', symObjAddr: 0x125E4, symBinAddr: 0x100020910, symSize: 0x30 }
  - { offsetInCU: 0x459AF, offset: 0x6E4DD, size: 0x8, addend: 0x0, symName: '__ZNSt3__110__function12__value_funcIFvvEEC1B8ue170006IZN5hf3fs17monitor_collector19MLWorkloadAnalyticsC1ERKNS7_6ConfigEE3$_0vEEOT_', symObjAddr: 0x12614, symBinAddr: 0x100020940, symSize: 0x50 }
  - { offsetInCU: 0x459F2, offset: 0x6E520, size: 0x8, addend: 0x0, symName: '__ZNSt3__19allocatorIZN5hf3fs17monitor_collector19MLWorkloadAnalyticsC1ERKNS3_6ConfigEE3$_0EC1B8ue170006Ev', symObjAddr: 0x12664, symBinAddr: 0x100020990, symSize: 0x2C }
  - { offsetInCU: 0x45A1C, offset: 0x6E54A, size: 0x8, addend: 0x0, symName: '__ZNSt3__110__function12__value_funcIFvvEEC1B8ue170006IZN5hf3fs17monitor_collector19MLWorkloadAnalyticsC1ERKNS7_6ConfigEE3$_0NS_9allocatorISB_EEEEOT_RKT0_', symObjAddr: 0x12690, symBinAddr: 0x1000209BC, symSize: 0x3C }
  - { offsetInCU: 0x45A76, offset: 0x6E5A4, size: 0x8, addend: 0x0, symName: '__ZNSt3__19allocatorIZN5hf3fs17monitor_collector19MLWorkloadAnalyticsC1ERKNS3_6ConfigEE3$_0EC2B8ue170006Ev', symObjAddr: 0x126CC, symBinAddr: 0x1000209F8, symSize: 0x2C }
  - { offsetInCU: 0x45AA0, offset: 0x6E5CE, size: 0x8, addend: 0x0, symName: '__ZNSt3__116__non_trivial_ifILb1ENS_9allocatorIZN5hf3fs17monitor_collector19MLWorkloadAnalyticsC1ERKNS4_6ConfigEE3$_0EEEC2B8ue170006Ev', symObjAddr: 0x126F8, symBinAddr: 0x100020A24, symSize: 0x14 }
  - { offsetInCU: 0x45ACA, offset: 0x6E5F8, size: 0x8, addend: 0x0, symName: '__ZNSt3__110__function12__value_funcIFvvEEC2B8ue170006IZN5hf3fs17monitor_collector19MLWorkloadAnalyticsC1ERKNS7_6ConfigEE3$_0NS_9allocatorISB_EEEEOT_RKT0_', symObjAddr: 0x1270C, symBinAddr: 0x100020A38, symSize: 0x94 }
  - { offsetInCU: 0x45B73, offset: 0x6E6A1, size: 0x8, addend: 0x0, symName: '__ZNSt3__19allocatorINS_10__function6__funcIZN5hf3fs17monitor_collector19MLWorkloadAnalyticsC1ERKNS5_6ConfigEE3$_0NS0_IS9_EEFvvEEEEC1B8ue170006IS9_EERKNS0_IT_EE', symObjAddr: 0x127B8, symBinAddr: 0x100020AE4, symSize: 0x34 }
  - { offsetInCU: 0x45BB7, offset: 0x6E6E5, size: 0x8, addend: 0x0, symName: '__ZNSt3__19allocatorIZN5hf3fs17monitor_collector19MLWorkloadAnalyticsC1ERKNS3_6ConfigEE3$_0EC1B8ue170006INS_10__function6__funcIS7_S8_FvvEEEEERKNS0_IT_EE', symObjAddr: 0x127EC, symBinAddr: 0x100020B18, symSize: 0x34 }
  - { offsetInCU: 0x45BF5, offset: 0x6E723, size: 0x8, addend: 0x0, symName: '__ZNSt3__110__function6__funcIZN5hf3fs17monitor_collector19MLWorkloadAnalyticsC1ERKNS4_6ConfigEE3$_0NS_9allocatorIS8_EEFvvEEC1B8ue170006EOS8_OSA_', symObjAddr: 0x12820, symBinAddr: 0x100020B4C, symSize: 0x3C }
  - { offsetInCU: 0x45C3D, offset: 0x6E76B, size: 0x8, addend: 0x0, symName: '__ZNSt3__19allocatorINS_10__function6__funcIZN5hf3fs17monitor_collector19MLWorkloadAnalyticsC1ERKNS5_6ConfigEE3$_0NS0_IS9_EEFvvEEEEC2B8ue170006IS9_EERKNS0_IT_EE', symObjAddr: 0x1285C, symBinAddr: 0x100020B88, symSize: 0x30 }
  - { offsetInCU: 0x45C7B, offset: 0x6E7A9, size: 0x8, addend: 0x0, symName: '__ZNSt3__116__non_trivial_ifILb1ENS_9allocatorINS_10__function6__funcIZN5hf3fs17monitor_collector19MLWorkloadAnalyticsC1ERKNS6_6ConfigEE3$_0NS1_ISA_EEFvvEEEEEEC2B8ue170006Ev', symObjAddr: 0x1288C, symBinAddr: 0x100020BB8, symSize: 0x14 }
  - { offsetInCU: 0x45CA5, offset: 0x6E7D3, size: 0x8, addend: 0x0, symName: '__ZNSt3__19allocatorIZN5hf3fs17monitor_collector19MLWorkloadAnalyticsC1ERKNS3_6ConfigEE3$_0EC2B8ue170006INS_10__function6__funcIS7_S8_FvvEEEEERKNS0_IT_EE', symObjAddr: 0x128A0, symBinAddr: 0x100020BCC, symSize: 0x30 }
  - { offsetInCU: 0x45CE3, offset: 0x6E811, size: 0x8, addend: 0x0, symName: '__ZNSt3__110__function6__funcIZN5hf3fs17monitor_collector19MLWorkloadAnalyticsC1ERKNS4_6ConfigEE3$_0NS_9allocatorIS8_EEFvvEEC2B8ue170006EOS8_OSA_', symObjAddr: 0x128D0, symBinAddr: 0x100020BFC, symSize: 0x88 }
  - { offsetInCU: 0x45D2B, offset: 0x6E859, size: 0x8, addend: 0x0, symName: __ZNSt3__110__function6__baseIFvvEEC2B8ue170006Ev, symObjAddr: 0x12958, symBinAddr: 0x100020C84, symSize: 0x24 }
  - { offsetInCU: 0x45D55, offset: 0x6E883, size: 0x8, addend: 0x0, symName: '__ZNSt3__110__function12__alloc_funcIZN5hf3fs17monitor_collector19MLWorkloadAnalyticsC1ERKNS4_6ConfigEE3$_0NS_9allocatorIS8_EEFvvEEC1B8ue170006EOS8_OSA_', symObjAddr: 0x1297C, symBinAddr: 0x100020CA8, symSize: 0x3C }
  - { offsetInCU: 0x45D9B, offset: 0x6E8C9, size: 0x8, addend: 0x0, symName: __ZNSt3__110__function6__baseIFvvEED2Ev, symObjAddr: 0x129B8, symBinAddr: 0x100020CE4, symSize: 0x14 }
  - { offsetInCU: 0x45DC5, offset: 0x6E8F3, size: 0x8, addend: 0x0, symName: '__ZNSt3__110__function6__funcIZN5hf3fs17monitor_collector19MLWorkloadAnalyticsC1ERKNS4_6ConfigEE3$_0NS_9allocatorIS8_EEFvvEED1Ev', symObjAddr: 0x129CC, symBinAddr: 0x100020CF8, symSize: 0x2C }
  - { offsetInCU: 0x45DF2, offset: 0x6E920, size: 0x8, addend: 0x0, symName: '__ZNSt3__110__function6__funcIZN5hf3fs17monitor_collector19MLWorkloadAnalyticsC1ERKNS4_6ConfigEE3$_0NS_9allocatorIS8_EEFvvEED0Ev', symObjAddr: 0x129F8, symBinAddr: 0x100020D24, symSize: 0x30 }
  - { offsetInCU: 0x45E1F, offset: 0x6E94D, size: 0x8, addend: 0x0, symName: '__ZNKSt3__110__function6__funcIZN5hf3fs17monitor_collector19MLWorkloadAnalyticsC1ERKNS4_6ConfigEE3$_0NS_9allocatorIS8_EEFvvEE7__cloneEv', symObjAddr: 0x12A28, symBinAddr: 0x100020D54, symSize: 0xFC }
  - { offsetInCU: 0x45E71, offset: 0x6E99F, size: 0x8, addend: 0x0, symName: '__ZNKSt3__110__function6__funcIZN5hf3fs17monitor_collector19MLWorkloadAnalyticsC1ERKNS4_6ConfigEE3$_0NS_9allocatorIS8_EEFvvEE7__cloneEPNS0_6__baseISB_EE', symObjAddr: 0x12B24, symBinAddr: 0x100020E50, symSize: 0x58 }
  - { offsetInCU: 0x45EA8, offset: 0x6E9D6, size: 0x8, addend: 0x0, symName: '__ZNSt3__110__function6__funcIZN5hf3fs17monitor_collector19MLWorkloadAnalyticsC1ERKNS4_6ConfigEE3$_0NS_9allocatorIS8_EEFvvEE7destroyEv', symObjAddr: 0x12B7C, symBinAddr: 0x100020EA8, symSize: 0x28 }
  - { offsetInCU: 0x45ED0, offset: 0x6E9FE, size: 0x8, addend: 0x0, symName: '__ZNSt3__110__function6__funcIZN5hf3fs17monitor_collector19MLWorkloadAnalyticsC1ERKNS4_6ConfigEE3$_0NS_9allocatorIS8_EEFvvEE18destroy_deallocateEv', symObjAddr: 0x12BA4, symBinAddr: 0x100020ED0, symSize: 0x58 }
  - { offsetInCU: 0x45F13, offset: 0x6EA41, size: 0x8, addend: 0x0, symName: '__ZNSt3__110__function6__funcIZN5hf3fs17monitor_collector19MLWorkloadAnalyticsC1ERKNS4_6ConfigEE3$_0NS_9allocatorIS8_EEFvvEEclEv', symObjAddr: 0x12BFC, symBinAddr: 0x100020F28, symSize: 0x28 }
  - { offsetInCU: 0x45F3B, offset: 0x6EA69, size: 0x8, addend: 0x0, symName: '__ZNKSt3__110__function6__funcIZN5hf3fs17monitor_collector19MLWorkloadAnalyticsC1ERKNS4_6ConfigEE3$_0NS_9allocatorIS8_EEFvvEE6targetERKSt9type_info', symObjAddr: 0x12C24, symBinAddr: 0x100020F50, symSize: 0x60 }
  - { offsetInCU: 0x45F72, offset: 0x6EAA0, size: 0x8, addend: 0x0, symName: '__ZNKSt3__110__function6__funcIZN5hf3fs17monitor_collector19MLWorkloadAnalyticsC1ERKNS4_6ConfigEE3$_0NS_9allocatorIS8_EEFvvEE11target_typeEv', symObjAddr: 0x12C84, symBinAddr: 0x100020FB0, symSize: 0x18 }
  - { offsetInCU: 0x45F9A, offset: 0x6EAC8, size: 0x8, addend: 0x0, symName: __ZNSt3__110__function6__baseIFvvEED1Ev, symObjAddr: 0x12C9C, symBinAddr: 0x100020FC8, symSize: 0x14 }
  - { offsetInCU: 0x45FC4, offset: 0x6EAF2, size: 0x8, addend: 0x0, symName: __ZNSt3__110__function6__baseIFvvEED0Ev, symObjAddr: 0x12CB0, symBinAddr: 0x100020FDC, symSize: 0xC }
  - { offsetInCU: 0x45FEE, offset: 0x6EB1C, size: 0x8, addend: 0x0, symName: '__ZNSt3__110__function12__alloc_funcIZN5hf3fs17monitor_collector19MLWorkloadAnalyticsC1ERKNS4_6ConfigEE3$_0NS_9allocatorIS8_EEFvvEEC2B8ue170006EOS8_OSA_', symObjAddr: 0x12CBC, symBinAddr: 0x100020FE8, symSize: 0x5C }
  - { offsetInCU: 0x46034, offset: 0x6EB62, size: 0x8, addend: 0x0, symName: '__ZNSt3__117__compressed_pairIZN5hf3fs17monitor_collector19MLWorkloadAnalyticsC1ERKNS3_6ConfigEE3$_0NS_9allocatorIS7_EEEC1B8ue170006IJOS7_EJOS9_EEENS_21piecewise_construct_tENS_5tupleIJDpT_EEENSF_IJDpT0_EEE', symObjAddr: 0x12D70, symBinAddr: 0x10002109C, symSize: 0x3C }
  - { offsetInCU: 0x4609E, offset: 0x6EBCC, size: 0x8, addend: 0x0, symName: '__ZNSt3__15tupleIJOZN5hf3fs17monitor_collector19MLWorkloadAnalyticsC1ERKNS3_6ConfigEE3$_0EEC1B8ue170006IJS7_ELi0EEEDpOT_', symObjAddr: 0x12DAC, symBinAddr: 0x1000210D8, symSize: 0x34 }
  - { offsetInCU: 0x460E8, offset: 0x6EC16, size: 0x8, addend: 0x0, symName: '__ZNSt3__15tupleIJOZN5hf3fs17monitor_collector19MLWorkloadAnalyticsC1ERKNS3_6ConfigEE3$_0EEC2B8ue170006IJS7_ELi0EEEDpOT_', symObjAddr: 0x12DE0, symBinAddr: 0x10002110C, symSize: 0x34 }
  - { offsetInCU: 0x46132, offset: 0x6EC60, size: 0x8, addend: 0x0, symName: '__ZNSt3__112__tuple_implINS_15__tuple_indicesIJLm0EEEEJOZN5hf3fs17monitor_collector19MLWorkloadAnalyticsC1ERKNS5_6ConfigEE3$_0EEC1B8ue170006IJLm0EEJSA_EJEJEJS9_EEENS1_IJXspT_EEEENS_13__tuple_typesIJDpT0_EEENS1_IJXspT1_EEEENSE_IJDpT2_EEEDpOT3_', symObjAddr: 0x12E14, symBinAddr: 0x100021140, symSize: 0x34 }
  - { offsetInCU: 0x461C3, offset: 0x6ECF1, size: 0x8, addend: 0x0, symName: '__ZNSt3__112__tuple_implINS_15__tuple_indicesIJLm0EEEEJOZN5hf3fs17monitor_collector19MLWorkloadAnalyticsC1ERKNS5_6ConfigEE3$_0EEC2B8ue170006IJLm0EEJSA_EJEJEJS9_EEENS1_IJXspT_EEEENS_13__tuple_typesIJDpT0_EEENS1_IJXspT1_EEEENSE_IJDpT2_EEEDpOT3_', symObjAddr: 0x12E48, symBinAddr: 0x100021174, symSize: 0x34 }
  - { offsetInCU: 0x46254, offset: 0x6ED82, size: 0x8, addend: 0x0, symName: '__ZNSt3__112__tuple_leafILm0EOZN5hf3fs17monitor_collector19MLWorkloadAnalyticsC1ERKNS3_6ConfigEE3$_0Lb0EEC2B8ue170006IS7_vEEOT_', symObjAddr: 0x12E7C, symBinAddr: 0x1000211A8, symSize: 0x20 }
  - { offsetInCU: 0x46297, offset: 0x6EDC5, size: 0x8, addend: 0x0, symName: '__ZNSt3__15tupleIJONS_9allocatorIZN5hf3fs17monitor_collector19MLWorkloadAnalyticsC1ERKNS4_6ConfigEE3$_0EEEEC1B8ue170006IJS9_ELi0EEEDpOT_', symObjAddr: 0x12E9C, symBinAddr: 0x1000211C8, symSize: 0x34 }
  - { offsetInCU: 0x462E1, offset: 0x6EE0F, size: 0x8, addend: 0x0, symName: '__ZNSt3__15tupleIJONS_9allocatorIZN5hf3fs17monitor_collector19MLWorkloadAnalyticsC1ERKNS4_6ConfigEE3$_0EEEEC2B8ue170006IJS9_ELi0EEEDpOT_', symObjAddr: 0x12ED0, symBinAddr: 0x1000211FC, symSize: 0x34 }
  - { offsetInCU: 0x4632B, offset: 0x6EE59, size: 0x8, addend: 0x0, symName: '__ZNSt3__112__tuple_implINS_15__tuple_indicesIJLm0EEEEJONS_9allocatorIZN5hf3fs17monitor_collector19MLWorkloadAnalyticsC1ERKNS6_6ConfigEE3$_0EEEEC1B8ue170006IJLm0EEJSC_EJEJEJSB_EEENS1_IJXspT_EEEENS_13__tuple_typesIJDpT0_EEENS1_IJXspT1_EEEENSG_IJDpT2_EEEDpOT3_', symObjAddr: 0x12F04, symBinAddr: 0x100021230, symSize: 0x34 }
  - { offsetInCU: 0x463BC, offset: 0x6EEEA, size: 0x8, addend: 0x0, symName: '__ZNSt3__112__tuple_implINS_15__tuple_indicesIJLm0EEEEJONS_9allocatorIZN5hf3fs17monitor_collector19MLWorkloadAnalyticsC1ERKNS6_6ConfigEE3$_0EEEEC2B8ue170006IJLm0EEJSC_EJEJEJSB_EEENS1_IJXspT_EEEENS_13__tuple_typesIJDpT0_EEENS1_IJXspT1_EEEENSG_IJDpT2_EEEDpOT3_', symObjAddr: 0x12F38, symBinAddr: 0x100021264, symSize: 0x34 }
  - { offsetInCU: 0x4644D, offset: 0x6EF7B, size: 0x8, addend: 0x0, symName: '__ZNSt3__112__tuple_leafILm0EONS_9allocatorIZN5hf3fs17monitor_collector19MLWorkloadAnalyticsC1ERKNS4_6ConfigEE3$_0EELb0EEC2B8ue170006IS9_vEEOT_', symObjAddr: 0x12F6C, symBinAddr: 0x100021298, symSize: 0x20 }
  - { offsetInCU: 0x46490, offset: 0x6EFBE, size: 0x8, addend: 0x0, symName: '__ZNSt3__117__compressed_pairIZN5hf3fs17monitor_collector19MLWorkloadAnalyticsC1ERKNS3_6ConfigEE3$_0NS_9allocatorIS7_EEEC2B8ue170006IJOS7_EJOS9_EEENS_21piecewise_construct_tENS_5tupleIJDpT_EEENSF_IJDpT0_EEE', symObjAddr: 0x12F8C, symBinAddr: 0x1000212B8, symSize: 0x54 }
  - { offsetInCU: 0x464FA, offset: 0x6F028, size: 0x8, addend: 0x0, symName: '__ZNSt3__122__compressed_pair_elemIZN5hf3fs17monitor_collector19MLWorkloadAnalyticsC1ERKNS3_6ConfigEE3$_0Li0ELb1EEC2B8ue170006IJOS7_EJLm0EEEENS_21piecewise_construct_tENS_5tupleIJDpT_EEENS_15__tuple_indicesIJXspT0_EEEE', symObjAddr: 0x12FE0, symBinAddr: 0x10002130C, symSize: 0x38 }
  - { offsetInCU: 0x4655F, offset: 0x6F08D, size: 0x8, addend: 0x0, symName: '__ZNSt3__122__compressed_pair_elemINS_9allocatorIZN5hf3fs17monitor_collector19MLWorkloadAnalyticsC1ERKNS4_6ConfigEE3$_0EELi1ELb1EEC2B8ue170006IJOS9_EJLm0EEEENS_21piecewise_construct_tENS_5tupleIJDpT_EEENS_15__tuple_indicesIJXspT0_EEEE', symObjAddr: 0x13018, symBinAddr: 0x100021344, symSize: 0x38 }
  - { offsetInCU: 0x465C4, offset: 0x6F0F2, size: 0x8, addend: 0x0, symName: '__ZNSt3__112__tuple_leafILm0EOZN5hf3fs17monitor_collector19MLWorkloadAnalyticsC1ERKNS3_6ConfigEE3$_0Lb0EE3getB8ue170006Ev', symObjAddr: 0x13074, symBinAddr: 0x1000213A0, symSize: 0x18 }
  - { offsetInCU: 0x465EA, offset: 0x6F118, size: 0x8, addend: 0x0, symName: '__ZNSt3__112__tuple_leafILm0EONS_9allocatorIZN5hf3fs17monitor_collector19MLWorkloadAnalyticsC1ERKNS4_6ConfigEE3$_0EELb0EE3getB8ue170006Ev', symObjAddr: 0x130B0, symBinAddr: 0x1000213DC, symSize: 0x18 }
  - { offsetInCU: 0x46610, offset: 0x6F13E, size: 0x8, addend: 0x0, symName: '__ZNSt3__110__function6__funcIZN5hf3fs17monitor_collector19MLWorkloadAnalyticsC1ERKNS4_6ConfigEE3$_0NS_9allocatorIS8_EEFvvEED2Ev', symObjAddr: 0x130C8, symBinAddr: 0x1000213F4, symSize: 0x2C }
  - { offsetInCU: 0x4663D, offset: 0x6F16B, size: 0x8, addend: 0x0, symName: '__ZNKSt3__110__function12__alloc_funcIZN5hf3fs17monitor_collector19MLWorkloadAnalyticsC1ERKNS4_6ConfigEE3$_0NS_9allocatorIS8_EEFvvEE15__get_allocatorB8ue170006Ev', symObjAddr: 0x130F4, symBinAddr: 0x100021420, symSize: 0x24 }
  - { offsetInCU: 0x46663, offset: 0x6F191, size: 0x8, addend: 0x0, symName: '__ZNSt3__19allocatorINS_10__function6__funcIZN5hf3fs17monitor_collector19MLWorkloadAnalyticsC1ERKNS5_6ConfigEE3$_0NS0_IS9_EEFvvEEEE8allocateB8ue170006Em', symObjAddr: 0x13118, symBinAddr: 0x100021444, symSize: 0x58 }
  - { offsetInCU: 0x466A8, offset: 0x6F1D6, size: 0x8, addend: 0x0, symName: '__ZNSt3__122__allocator_destructorINS_9allocatorINS_10__function6__funcIZN5hf3fs17monitor_collector19MLWorkloadAnalyticsC1ERKNS6_6ConfigEE3$_0NS1_ISA_EEFvvEEEEEEC1B8ue170006ERSE_m', symObjAddr: 0x13170, symBinAddr: 0x10002149C, symSize: 0x3C }
  - { offsetInCU: 0x46784, offset: 0x6F2B2, size: 0x8, addend: 0x0, symName: '__ZNSt3__110unique_ptrINS_10__function6__funcIZN5hf3fs17monitor_collector19MLWorkloadAnalyticsC1ERKNS5_6ConfigEE3$_0NS_9allocatorIS9_EEFvvEEENS_22__allocator_destructorINSA_ISD_EEEEEC1B8ue170006ILb1EvEEPSD_NS_16__dependent_typeINS_27__unique_ptr_deleter_sfinaeISG_EEXT_EE20__good_rval_ref_typeE', symObjAddr: 0x131AC, symBinAddr: 0x1000214D8, symSize: 0x3C }
  - { offsetInCU: 0x467D5, offset: 0x6F303, size: 0x8, addend: 0x0, symName: '__ZNKSt3__110unique_ptrINS_10__function6__funcIZN5hf3fs17monitor_collector19MLWorkloadAnalyticsC1ERKNS5_6ConfigEE3$_0NS_9allocatorIS9_EEFvvEEENS_22__allocator_destructorINSA_ISD_EEEEE3getB8ue170006Ev', symObjAddr: 0x131E8, symBinAddr: 0x100021514, symSize: 0x28 }
  - { offsetInCU: 0x467FB, offset: 0x6F329, size: 0x8, addend: 0x0, symName: '__ZNKSt3__110__function12__alloc_funcIZN5hf3fs17monitor_collector19MLWorkloadAnalyticsC1ERKNS4_6ConfigEE3$_0NS_9allocatorIS8_EEFvvEE8__targetB8ue170006Ev', symObjAddr: 0x13210, symBinAddr: 0x10002153C, symSize: 0x24 }
  - { offsetInCU: 0x46821, offset: 0x6F34F, size: 0x8, addend: 0x0, symName: '__ZNSt3__110__function6__funcIZN5hf3fs17monitor_collector19MLWorkloadAnalyticsC1ERKNS4_6ConfigEE3$_0NS_9allocatorIS8_EEFvvEEC1B8ue170006ERKS8_OSA_', symObjAddr: 0x13234, symBinAddr: 0x100021560, symSize: 0x3C }
  - { offsetInCU: 0x46869, offset: 0x6F397, size: 0x8, addend: 0x0, symName: '__ZNSt3__110unique_ptrINS_10__function6__funcIZN5hf3fs17monitor_collector19MLWorkloadAnalyticsC1ERKNS5_6ConfigEE3$_0NS_9allocatorIS9_EEFvvEEENS_22__allocator_destructorINSA_ISD_EEEEE7releaseB8ue170006Ev', symObjAddr: 0x13270, symBinAddr: 0x10002159C, symSize: 0x44 }
  - { offsetInCU: 0x4689E, offset: 0x6F3CC, size: 0x8, addend: 0x0, symName: '__ZNSt3__110unique_ptrINS_10__function6__funcIZN5hf3fs17monitor_collector19MLWorkloadAnalyticsC1ERKNS5_6ConfigEE3$_0NS_9allocatorIS9_EEFvvEEENS_22__allocator_destructorINSA_ISD_EEEEED1B8ue170006Ev', symObjAddr: 0x132B4, symBinAddr: 0x1000215E0, symSize: 0x2C }
  - { offsetInCU: 0x468C8, offset: 0x6F3F6, size: 0x8, addend: 0x0, symName: '__ZNKSt3__117__compressed_pairIZN5hf3fs17monitor_collector19MLWorkloadAnalyticsC1ERKNS3_6ConfigEE3$_0NS_9allocatorIS7_EEE6secondB8ue170006Ev', symObjAddr: 0x132E0, symBinAddr: 0x10002160C, symSize: 0x24 }
  - { offsetInCU: 0x468EE, offset: 0x6F41C, size: 0x8, addend: 0x0, symName: '__ZNKSt3__122__compressed_pair_elemINS_9allocatorIZN5hf3fs17monitor_collector19MLWorkloadAnalyticsC1ERKNS4_6ConfigEE3$_0EELi1ELb1EE5__getB8ue170006Ev', symObjAddr: 0x13304, symBinAddr: 0x100021630, symSize: 0x14 }
  - { offsetInCU: 0x4691F, offset: 0x6F44D, size: 0x8, addend: 0x0, symName: '__ZNSt3__116allocator_traitsINS_9allocatorINS_10__function6__funcIZN5hf3fs17monitor_collector19MLWorkloadAnalyticsC1ERKNS6_6ConfigEE3$_0NS1_ISA_EEFvvEEEEEE8max_sizeB8ue170006ISE_vEEmRKSE_', symObjAddr: 0x13318, symBinAddr: 0x100021644, symSize: 0x24 }
  - { offsetInCU: 0x4694D, offset: 0x6F47B, size: 0x8, addend: 0x0, symName: '__ZNKSt3__19allocatorINS_10__function6__funcIZN5hf3fs17monitor_collector19MLWorkloadAnalyticsC1ERKNS5_6ConfigEE3$_0NS0_IS9_EEFvvEEEE8max_sizeB8ue170006Ev', symObjAddr: 0x1333C, symBinAddr: 0x100021668, symSize: 0x14 }
  - { offsetInCU: 0x46973, offset: 0x6F4A1, size: 0x8, addend: 0x0, symName: '__ZNSt3__122__allocator_destructorINS_9allocatorINS_10__function6__funcIZN5hf3fs17monitor_collector19MLWorkloadAnalyticsC1ERKNS6_6ConfigEE3$_0NS1_ISA_EEFvvEEEEEEC2B8ue170006ERSE_m', symObjAddr: 0x13350, symBinAddr: 0x10002167C, symSize: 0x2C }
  - { offsetInCU: 0x469B9, offset: 0x6F4E7, size: 0x8, addend: 0x0, symName: '__ZNSt3__110unique_ptrINS_10__function6__funcIZN5hf3fs17monitor_collector19MLWorkloadAnalyticsC1ERKNS5_6ConfigEE3$_0NS_9allocatorIS9_EEFvvEEENS_22__allocator_destructorINSA_ISD_EEEEEC2B8ue170006ILb1EvEEPSD_NS_16__dependent_typeINS_27__unique_ptr_deleter_sfinaeISG_EEXT_EE20__good_rval_ref_typeE', symObjAddr: 0x1337C, symBinAddr: 0x1000216A8, symSize: 0x48 }
  - { offsetInCU: 0x46A0A, offset: 0x6F538, size: 0x8, addend: 0x0, symName: '__ZNSt3__117__compressed_pairIPNS_10__function6__funcIZN5hf3fs17monitor_collector19MLWorkloadAnalyticsC1ERKNS5_6ConfigEE3$_0NS_9allocatorIS9_EEFvvEEENS_22__allocator_destructorINSA_ISD_EEEEEC1B8ue170006IRSE_SH_EEOT_OT0_', symObjAddr: 0x133C4, symBinAddr: 0x1000216F0, symSize: 0x3C }
  - { offsetInCU: 0x46A62, offset: 0x6F590, size: 0x8, addend: 0x0, symName: '__ZNSt3__117__compressed_pairIPNS_10__function6__funcIZN5hf3fs17monitor_collector19MLWorkloadAnalyticsC1ERKNS5_6ConfigEE3$_0NS_9allocatorIS9_EEFvvEEENS_22__allocator_destructorINSA_ISD_EEEEEC2B8ue170006IRSE_SH_EEOT_OT0_', symObjAddr: 0x13400, symBinAddr: 0x10002172C, symSize: 0x48 }
  - { offsetInCU: 0x46ABA, offset: 0x6F5E8, size: 0x8, addend: 0x0, symName: '__ZNSt3__122__compressed_pair_elemIPNS_10__function6__funcIZN5hf3fs17monitor_collector19MLWorkloadAnalyticsC1ERKNS5_6ConfigEE3$_0NS_9allocatorIS9_EEFvvEEELi0ELb0EEC2B8ue170006IRSE_vEEOT_', symObjAddr: 0x13448, symBinAddr: 0x100021774, symSize: 0x24 }
  - { offsetInCU: 0x46AFC, offset: 0x6F62A, size: 0x8, addend: 0x0, symName: '__ZNSt3__122__compressed_pair_elemINS_22__allocator_destructorINS_9allocatorINS_10__function6__funcIZN5hf3fs17monitor_collector19MLWorkloadAnalyticsC1ERKNS7_6ConfigEE3$_0NS2_ISB_EEFvvEEEEEEELi1ELb0EEC2B8ue170006ISG_vEEOT_', symObjAddr: 0x1346C, symBinAddr: 0x100021798, symSize: 0x24 }
  - { offsetInCU: 0x46B3E, offset: 0x6F66C, size: 0x8, addend: 0x0, symName: '__ZNKSt3__117__compressed_pairIPNS_10__function6__funcIZN5hf3fs17monitor_collector19MLWorkloadAnalyticsC1ERKNS5_6ConfigEE3$_0NS_9allocatorIS9_EEFvvEEENS_22__allocator_destructorINSA_ISD_EEEEE5firstB8ue170006Ev', symObjAddr: 0x13490, symBinAddr: 0x1000217BC, symSize: 0x24 }
  - { offsetInCU: 0x46B64, offset: 0x6F692, size: 0x8, addend: 0x0, symName: '__ZNKSt3__122__compressed_pair_elemIPNS_10__function6__funcIZN5hf3fs17monitor_collector19MLWorkloadAnalyticsC1ERKNS5_6ConfigEE3$_0NS_9allocatorIS9_EEFvvEEELi0ELb0EE5__getB8ue170006Ev', symObjAddr: 0x134B4, symBinAddr: 0x1000217E0, symSize: 0x14 }
  - { offsetInCU: 0x46B8A, offset: 0x6F6B8, size: 0x8, addend: 0x0, symName: '__ZNKSt3__117__compressed_pairIZN5hf3fs17monitor_collector19MLWorkloadAnalyticsC1ERKNS3_6ConfigEE3$_0NS_9allocatorIS7_EEE5firstB8ue170006Ev', symObjAddr: 0x134C8, symBinAddr: 0x1000217F4, symSize: 0x24 }
  - { offsetInCU: 0x46BB0, offset: 0x6F6DE, size: 0x8, addend: 0x0, symName: '__ZNKSt3__122__compressed_pair_elemIZN5hf3fs17monitor_collector19MLWorkloadAnalyticsC1ERKNS3_6ConfigEE3$_0Li0ELb1EE5__getB8ue170006Ev', symObjAddr: 0x134EC, symBinAddr: 0x100021818, symSize: 0x14 }
  - { offsetInCU: 0x46BD6, offset: 0x6F704, size: 0x8, addend: 0x0, symName: '__ZNSt3__110__function6__funcIZN5hf3fs17monitor_collector19MLWorkloadAnalyticsC1ERKNS4_6ConfigEE3$_0NS_9allocatorIS8_EEFvvEEC2B8ue170006ERKS8_OSA_', symObjAddr: 0x13500, symBinAddr: 0x10002182C, symSize: 0x88 }
  - { offsetInCU: 0x46C1E, offset: 0x6F74C, size: 0x8, addend: 0x0, symName: '__ZNSt3__110__function12__alloc_funcIZN5hf3fs17monitor_collector19MLWorkloadAnalyticsC1ERKNS4_6ConfigEE3$_0NS_9allocatorIS8_EEFvvEEC1B8ue170006ERKS8_OSA_', symObjAddr: 0x13588, symBinAddr: 0x1000218B4, symSize: 0x3C }
  - { offsetInCU: 0x46C64, offset: 0x6F792, size: 0x8, addend: 0x0, symName: '__ZNSt3__110__function12__alloc_funcIZN5hf3fs17monitor_collector19MLWorkloadAnalyticsC1ERKNS4_6ConfigEE3$_0NS_9allocatorIS8_EEFvvEEC2B8ue170006ERKS8_OSA_', symObjAddr: 0x135C4, symBinAddr: 0x1000218F0, symSize: 0x5C }
  - { offsetInCU: 0x46CAA, offset: 0x6F7D8, size: 0x8, addend: 0x0, symName: '__ZNSt3__117__compressed_pairIZN5hf3fs17monitor_collector19MLWorkloadAnalyticsC1ERKNS3_6ConfigEE3$_0NS_9allocatorIS7_EEEC1B8ue170006IJRKS7_EJOS9_EEENS_21piecewise_construct_tENS_5tupleIJDpT_EEENSG_IJDpT0_EEE', symObjAddr: 0x1364C, symBinAddr: 0x100021978, symSize: 0x3C }
  - { offsetInCU: 0x46D14, offset: 0x6F842, size: 0x8, addend: 0x0, symName: '__ZNSt3__15tupleIJRKZN5hf3fs17monitor_collector19MLWorkloadAnalyticsC1ERKNS3_6ConfigEE3$_0EEC1B8ue170006INS_4_AndELi0EEES9_', symObjAddr: 0x13688, symBinAddr: 0x1000219B4, symSize: 0x34 }
  - { offsetInCU: 0x46D5D, offset: 0x6F88B, size: 0x8, addend: 0x0, symName: '__ZNSt3__15tupleIJRKZN5hf3fs17monitor_collector19MLWorkloadAnalyticsC1ERKNS3_6ConfigEE3$_0EEC2B8ue170006INS_4_AndELi0EEES9_', symObjAddr: 0x136BC, symBinAddr: 0x1000219E8, symSize: 0x34 }
  - { offsetInCU: 0x46DA6, offset: 0x6F8D4, size: 0x8, addend: 0x0, symName: '__ZNSt3__112__tuple_implINS_15__tuple_indicesIJLm0EEEEJRKZN5hf3fs17monitor_collector19MLWorkloadAnalyticsC1ERKNS5_6ConfigEE3$_0EEC1B8ue170006IJLm0EEJSB_EJEJEJSB_EEENS1_IJXspT_EEEENS_13__tuple_typesIJDpT0_EEENS1_IJXspT1_EEEENSF_IJDpT2_EEEDpOT3_', symObjAddr: 0x136F0, symBinAddr: 0x100021A1C, symSize: 0x34 }
  - { offsetInCU: 0x46E37, offset: 0x6F965, size: 0x8, addend: 0x0, symName: '__ZNSt3__112__tuple_implINS_15__tuple_indicesIJLm0EEEEJRKZN5hf3fs17monitor_collector19MLWorkloadAnalyticsC1ERKNS5_6ConfigEE3$_0EEC2B8ue170006IJLm0EEJSB_EJEJEJSB_EEENS1_IJXspT_EEEENS_13__tuple_typesIJDpT0_EEENS1_IJXspT1_EEEENSF_IJDpT2_EEEDpOT3_', symObjAddr: 0x13724, symBinAddr: 0x100021A50, symSize: 0x34 }
  - { offsetInCU: 0x46EC8, offset: 0x6F9F6, size: 0x8, addend: 0x0, symName: '__ZNSt3__112__tuple_leafILm0ERKZN5hf3fs17monitor_collector19MLWorkloadAnalyticsC1ERKNS3_6ConfigEE3$_0Lb0EEC2B8ue170006IS9_vEEOT_', symObjAddr: 0x13758, symBinAddr: 0x100021A84, symSize: 0x20 }
  - { offsetInCU: 0x46F0B, offset: 0x6FA39, size: 0x8, addend: 0x0, symName: '__ZNSt3__117__compressed_pairIZN5hf3fs17monitor_collector19MLWorkloadAnalyticsC1ERKNS3_6ConfigEE3$_0NS_9allocatorIS7_EEEC2B8ue170006IJRKS7_EJOS9_EEENS_21piecewise_construct_tENS_5tupleIJDpT_EEENSG_IJDpT0_EEE', symObjAddr: 0x13778, symBinAddr: 0x100021AA4, symSize: 0x54 }
  - { offsetInCU: 0x46F75, offset: 0x6FAA3, size: 0x8, addend: 0x0, symName: '__ZNSt3__122__compressed_pair_elemIZN5hf3fs17monitor_collector19MLWorkloadAnalyticsC1ERKNS3_6ConfigEE3$_0Li0ELb1EEC2B8ue170006IJRKS7_EJLm0EEEENS_21piecewise_construct_tENS_5tupleIJDpT_EEENS_15__tuple_indicesIJXspT0_EEEE', symObjAddr: 0x137CC, symBinAddr: 0x100021AF8, symSize: 0x38 }
  - { offsetInCU: 0x46FDA, offset: 0x6FB08, size: 0x8, addend: 0x0, symName: '__ZNSt3__112__tuple_leafILm0ERKZN5hf3fs17monitor_collector19MLWorkloadAnalyticsC1ERKNS3_6ConfigEE3$_0Lb0EE3getB8ue170006Ev', symObjAddr: 0x13828, symBinAddr: 0x100021B54, symSize: 0x18 }
  - { offsetInCU: 0x47000, offset: 0x6FB2E, size: 0x8, addend: 0x0, symName: '__ZNSt3__117__compressed_pairIPNS_10__function6__funcIZN5hf3fs17monitor_collector19MLWorkloadAnalyticsC1ERKNS5_6ConfigEE3$_0NS_9allocatorIS9_EEFvvEEENS_22__allocator_destructorINSA_ISD_EEEEE5firstB8ue170006Ev', symObjAddr: 0x13840, symBinAddr: 0x100021B6C, symSize: 0x24 }
  - { offsetInCU: 0x47026, offset: 0x6FB54, size: 0x8, addend: 0x0, symName: '__ZNSt3__122__compressed_pair_elemIPNS_10__function6__funcIZN5hf3fs17monitor_collector19MLWorkloadAnalyticsC1ERKNS5_6ConfigEE3$_0NS_9allocatorIS9_EEFvvEEELi0ELb0EE5__getB8ue170006Ev', symObjAddr: 0x13864, symBinAddr: 0x100021B90, symSize: 0x14 }
  - { offsetInCU: 0x4704C, offset: 0x6FB7A, size: 0x8, addend: 0x0, symName: '__ZNSt3__110unique_ptrINS_10__function6__funcIZN5hf3fs17monitor_collector19MLWorkloadAnalyticsC1ERKNS5_6ConfigEE3$_0NS_9allocatorIS9_EEFvvEEENS_22__allocator_destructorINSA_ISD_EEEEED2B8ue170006Ev', symObjAddr: 0x13878, symBinAddr: 0x100021BA4, symSize: 0x30 }
  - { offsetInCU: 0x47076, offset: 0x6FBA4, size: 0x8, addend: 0x0, symName: '__ZNSt3__110unique_ptrINS_10__function6__funcIZN5hf3fs17monitor_collector19MLWorkloadAnalyticsC1ERKNS5_6ConfigEE3$_0NS_9allocatorIS9_EEFvvEEENS_22__allocator_destructorINSA_ISD_EEEEE5resetB8ue170006EPSD_', symObjAddr: 0x138A8, symBinAddr: 0x100021BD4, symSize: 0x78 }
  - { offsetInCU: 0x470BA, offset: 0x6FBE8, size: 0x8, addend: 0x0, symName: '__ZNSt3__117__compressed_pairIPNS_10__function6__funcIZN5hf3fs17monitor_collector19MLWorkloadAnalyticsC1ERKNS5_6ConfigEE3$_0NS_9allocatorIS9_EEFvvEEENS_22__allocator_destructorINSA_ISD_EEEEE6secondB8ue170006Ev', symObjAddr: 0x13920, symBinAddr: 0x100021C4C, symSize: 0x28 }
  - { offsetInCU: 0x470E0, offset: 0x6FC0E, size: 0x8, addend: 0x0, symName: '__ZNSt3__122__allocator_destructorINS_9allocatorINS_10__function6__funcIZN5hf3fs17monitor_collector19MLWorkloadAnalyticsC1ERKNS6_6ConfigEE3$_0NS1_ISA_EEFvvEEEEEEclB8ue170006EPSD_', symObjAddr: 0x13948, symBinAddr: 0x100021C74, symSize: 0x34 }
  - { offsetInCU: 0x47114, offset: 0x6FC42, size: 0x8, addend: 0x0, symName: '__ZNSt3__122__compressed_pair_elemINS_22__allocator_destructorINS_9allocatorINS_10__function6__funcIZN5hf3fs17monitor_collector19MLWorkloadAnalyticsC1ERKNS7_6ConfigEE3$_0NS2_ISB_EEFvvEEEEEEELi1ELb0EE5__getB8ue170006Ev', symObjAddr: 0x1397C, symBinAddr: 0x100021CA8, symSize: 0x14 }
  - { offsetInCU: 0x4713A, offset: 0x6FC68, size: 0x8, addend: 0x0, symName: '__ZNSt3__116allocator_traitsINS_9allocatorINS_10__function6__funcIZN5hf3fs17monitor_collector19MLWorkloadAnalyticsC1ERKNS6_6ConfigEE3$_0NS1_ISA_EEFvvEEEEEE10deallocateB8ue170006ERSE_PSD_m', symObjAddr: 0x13990, symBinAddr: 0x100021CBC, symSize: 0x34 }
  - { offsetInCU: 0x4717C, offset: 0x6FCAA, size: 0x8, addend: 0x0, symName: '__ZNSt3__19allocatorINS_10__function6__funcIZN5hf3fs17monitor_collector19MLWorkloadAnalyticsC1ERKNS5_6ConfigEE3$_0NS0_IS9_EEFvvEEEE10deallocateB8ue170006EPSC_m', symObjAddr: 0x139C4, symBinAddr: 0x100021CF0, symSize: 0x40 }
  - { offsetInCU: 0x471BE, offset: 0x6FCEC, size: 0x8, addend: 0x0, symName: '__ZNSt3__110__function6__funcIZN5hf3fs17monitor_collector19MLWorkloadAnalyticsC1ERKNS4_6ConfigEE3$_0NS_9allocatorIS8_EEFvvEEC1B8ue170006ERKS8_RKSA_', symObjAddr: 0x13A04, symBinAddr: 0x100021D30, symSize: 0x3C }
  - { offsetInCU: 0x47206, offset: 0x6FD34, size: 0x8, addend: 0x0, symName: '__ZNSt3__110__function6__funcIZN5hf3fs17monitor_collector19MLWorkloadAnalyticsC1ERKNS4_6ConfigEE3$_0NS_9allocatorIS8_EEFvvEEC2B8ue170006ERKS8_RKSA_', symObjAddr: 0x13A40, symBinAddr: 0x100021D6C, symSize: 0x88 }
  - { offsetInCU: 0x4724E, offset: 0x6FD7C, size: 0x8, addend: 0x0, symName: '__ZNSt3__110__function12__alloc_funcIZN5hf3fs17monitor_collector19MLWorkloadAnalyticsC1ERKNS4_6ConfigEE3$_0NS_9allocatorIS8_EEFvvEEC1B8ue170006ERKS8_RKSA_', symObjAddr: 0x13AC8, symBinAddr: 0x100021DF4, symSize: 0x3C }
  - { offsetInCU: 0x47294, offset: 0x6FDC2, size: 0x8, addend: 0x0, symName: '__ZNSt3__110__function12__alloc_funcIZN5hf3fs17monitor_collector19MLWorkloadAnalyticsC1ERKNS4_6ConfigEE3$_0NS_9allocatorIS8_EEFvvEEC2B8ue170006ERKS8_RKSA_', symObjAddr: 0x13B04, symBinAddr: 0x100021E30, symSize: 0x5C }
  - { offsetInCU: 0x472DA, offset: 0x6FE08, size: 0x8, addend: 0x0, symName: '__ZNSt3__117__compressed_pairIZN5hf3fs17monitor_collector19MLWorkloadAnalyticsC1ERKNS3_6ConfigEE3$_0NS_9allocatorIS7_EEEC1B8ue170006IJRKS7_EJRKS9_EEENS_21piecewise_construct_tENS_5tupleIJDpT_EEENSH_IJDpT0_EEE', symObjAddr: 0x13B8C, symBinAddr: 0x100021EB8, symSize: 0x3C }
  - { offsetInCU: 0x47344, offset: 0x6FE72, size: 0x8, addend: 0x0, symName: '__ZNSt3__15tupleIJRKNS_9allocatorIZN5hf3fs17monitor_collector19MLWorkloadAnalyticsC1ERKNS4_6ConfigEE3$_0EEEEC1B8ue170006INS_4_AndELi0EEESB_', symObjAddr: 0x13BC8, symBinAddr: 0x100021EF4, symSize: 0x34 }
  - { offsetInCU: 0x4738D, offset: 0x6FEBB, size: 0x8, addend: 0x0, symName: '__ZNSt3__15tupleIJRKNS_9allocatorIZN5hf3fs17monitor_collector19MLWorkloadAnalyticsC1ERKNS4_6ConfigEE3$_0EEEEC2B8ue170006INS_4_AndELi0EEESB_', symObjAddr: 0x13BFC, symBinAddr: 0x100021F28, symSize: 0x34 }
  - { offsetInCU: 0x473D6, offset: 0x6FF04, size: 0x8, addend: 0x0, symName: '__ZNSt3__112__tuple_implINS_15__tuple_indicesIJLm0EEEEJRKNS_9allocatorIZN5hf3fs17monitor_collector19MLWorkloadAnalyticsC1ERKNS6_6ConfigEE3$_0EEEEC1B8ue170006IJLm0EEJSD_EJEJEJSD_EEENS1_IJXspT_EEEENS_13__tuple_typesIJDpT0_EEENS1_IJXspT1_EEEENSH_IJDpT2_EEEDpOT3_', symObjAddr: 0x13C30, symBinAddr: 0x100021F5C, symSize: 0x34 }
  - { offsetInCU: 0x47467, offset: 0x6FF95, size: 0x8, addend: 0x0, symName: '__ZNSt3__112__tuple_implINS_15__tuple_indicesIJLm0EEEEJRKNS_9allocatorIZN5hf3fs17monitor_collector19MLWorkloadAnalyticsC1ERKNS6_6ConfigEE3$_0EEEEC2B8ue170006IJLm0EEJSD_EJEJEJSD_EEENS1_IJXspT_EEEENS_13__tuple_typesIJDpT0_EEENS1_IJXspT1_EEEENSH_IJDpT2_EEEDpOT3_', symObjAddr: 0x13C64, symBinAddr: 0x100021F90, symSize: 0x34 }
  - { offsetInCU: 0x474F8, offset: 0x70026, size: 0x8, addend: 0x0, symName: '__ZNSt3__112__tuple_leafILm0ERKNS_9allocatorIZN5hf3fs17monitor_collector19MLWorkloadAnalyticsC1ERKNS4_6ConfigEE3$_0EELb0EEC2B8ue170006ISB_vEEOT_', symObjAddr: 0x13C98, symBinAddr: 0x100021FC4, symSize: 0x20 }
  - { offsetInCU: 0x4753B, offset: 0x70069, size: 0x8, addend: 0x0, symName: '__ZNSt3__117__compressed_pairIZN5hf3fs17monitor_collector19MLWorkloadAnalyticsC1ERKNS3_6ConfigEE3$_0NS_9allocatorIS7_EEEC2B8ue170006IJRKS7_EJRKS9_EEENS_21piecewise_construct_tENS_5tupleIJDpT_EEENSH_IJDpT0_EEE', symObjAddr: 0x13CB8, symBinAddr: 0x100021FE4, symSize: 0x54 }
  - { offsetInCU: 0x475A5, offset: 0x700D3, size: 0x8, addend: 0x0, symName: '__ZNSt3__122__compressed_pair_elemINS_9allocatorIZN5hf3fs17monitor_collector19MLWorkloadAnalyticsC1ERKNS4_6ConfigEE3$_0EELi1ELb1EEC2B8ue170006IJRKS9_EJLm0EEEENS_21piecewise_construct_tENS_5tupleIJDpT_EEENS_15__tuple_indicesIJXspT0_EEEE', symObjAddr: 0x13D0C, symBinAddr: 0x100022038, symSize: 0x38 }
  - { offsetInCU: 0x4760A, offset: 0x70138, size: 0x8, addend: 0x0, symName: '__ZNSt3__112__tuple_leafILm0ERKNS_9allocatorIZN5hf3fs17monitor_collector19MLWorkloadAnalyticsC1ERKNS4_6ConfigEE3$_0EELb0EE3getB8ue170006Ev', symObjAddr: 0x13D68, symBinAddr: 0x100022094, symSize: 0x18 }
  - { offsetInCU: 0x47630, offset: 0x7015E, size: 0x8, addend: 0x0, symName: '__ZNSt3__110__function12__alloc_funcIZN5hf3fs17monitor_collector19MLWorkloadAnalyticsC1ERKNS4_6ConfigEE3$_0NS_9allocatorIS8_EEFvvEE7destroyB8ue170006Ev', symObjAddr: 0x13D80, symBinAddr: 0x1000220AC, symSize: 0x10 }
  - { offsetInCU: 0x47656, offset: 0x70184, size: 0x8, addend: 0x0, symName: '__ZNSt3__110__function12__alloc_funcIZN5hf3fs17monitor_collector19MLWorkloadAnalyticsC1ERKNS4_6ConfigEE3$_0NS_9allocatorIS8_EEFvvEEclB8ue170006Ev', symObjAddr: 0x13D90, symBinAddr: 0x1000220BC, symSize: 0x28 }
  - { offsetInCU: 0x4767C, offset: 0x701AA, size: 0x8, addend: 0x0, symName: '__ZNSt3__128__invoke_void_return_wrapperIvLb1EE6__callB8ue170006IJRZN5hf3fs17monitor_collector19MLWorkloadAnalyticsC1ERKNS5_6ConfigEE3$_0EEEvDpOT_', symObjAddr: 0x13DB8, symBinAddr: 0x1000220E4, symSize: 0x24 }
  - { offsetInCU: 0x476AB, offset: 0x701D9, size: 0x8, addend: 0x0, symName: '__ZNSt3__117__compressed_pairIZN5hf3fs17monitor_collector19MLWorkloadAnalyticsC1ERKNS3_6ConfigEE3$_0NS_9allocatorIS7_EEE5firstB8ue170006Ev', symObjAddr: 0x13DDC, symBinAddr: 0x100022108, symSize: 0x24 }
  - { offsetInCU: 0x476D6, offset: 0x70204, size: 0x8, addend: 0x0, symName: '__ZZN5hf3fs17monitor_collector19MLWorkloadAnalyticsC1ERKNS1_6ConfigEENK3$_0clEv', symObjAddr: 0x13E24, symBinAddr: 0x100022150, symSize: 0x3C }
  - { offsetInCU: 0x47700, offset: 0x7022E, size: 0x8, addend: 0x0, symName: '__ZNSt3__122__compressed_pair_elemIZN5hf3fs17monitor_collector19MLWorkloadAnalyticsC1ERKNS3_6ConfigEE3$_0Li0ELb1EE5__getB8ue170006Ev', symObjAddr: 0x13E60, symBinAddr: 0x10002218C, symSize: 0x14 }
  - { offsetInCU: 0x4775C, offset: 0x7028A, size: 0x8, addend: 0x0, symName: __ZNKSt9type_infoeqB8ue170006ERKS_, symObjAddr: 0x13E74, symBinAddr: 0x1000221A0, symSize: 0xDC }
  - { offsetInCU: 0x477FA, offset: 0x70328, size: 0x8, addend: 0x0, symName: __ZNSt27__type_info_implementations30__non_unique_arm_rtti_bit_impl21__is_type_name_uniqueB8ue170006Em, symObjAddr: 0x13F50, symBinAddr: 0x10002227C, symSize: 0x20 }
  - { offsetInCU: 0x4781E, offset: 0x7034C, size: 0x8, addend: 0x0, symName: __ZNKSt3__117__compressed_pairIPN5hf3fs16BackgroundRunnerENS_14default_deleteIS2_EEE5firstB8ue170006Ev, symObjAddr: 0x13F70, symBinAddr: 0x10002229C, symSize: 0x24 }
  - { offsetInCU: 0x47844, offset: 0x70372, size: 0x8, addend: 0x0, symName: __ZNKSt3__122__compressed_pair_elemIPN5hf3fs16BackgroundRunnerELi0ELb0EE5__getB8ue170006Ev, symObjAddr: 0x13F94, symBinAddr: 0x1000222C0, symSize: 0x14 }
  - { offsetInCU: 0x4786A, offset: 0x70398, size: 0x8, addend: 0x0, symName: '__ZNSt3__18functionIFvvEEC1IZN5hf3fs17monitor_collector19MLWorkloadAnalytics4initEvE3$_1vEET_', symObjAddr: 0x13FA8, symBinAddr: 0x1000222D4, symSize: 0x34 }
  - { offsetInCU: 0x478AF, offset: 0x703DD, size: 0x8, addend: 0x0, symName: __ZN5hf3fs16BackgroundRunnerC1ERKNSt3__112basic_stringIcNS1_11char_traitsIcEENS1_9allocatorIcEEEENS1_8functionIFvvEEENS1_6chrono8durationIxNS1_5ratioILl1ELl1000EEEEE, symObjAddr: 0x13FDC, symBinAddr: 0x100022308, symSize: 0x44 }
  - { offsetInCU: 0x47904, offset: 0x70432, size: 0x8, addend: 0x0, symName: __ZNSt3__110unique_ptrIN5hf3fs16BackgroundRunnerENS_14default_deleteIS2_EEEC1B8ue170006ILb1EvEEPS2_, symObjAddr: 0x14020, symBinAddr: 0x10002234C, symSize: 0x34 }
  - { offsetInCU: 0x47947, offset: 0x70475, size: 0x8, addend: 0x0, symName: '__ZNSt3__18functionIFvvEEC2IZN5hf3fs17monitor_collector19MLWorkloadAnalytics4initEvE3$_1vEET_', symObjAddr: 0x14054, symBinAddr: 0x100022380, symSize: 0x38 }
  - { offsetInCU: 0x4798C, offset: 0x704BA, size: 0x8, addend: 0x0, symName: '__ZNSt3__110__function12__value_funcIFvvEEC1B8ue170006IZN5hf3fs17monitor_collector19MLWorkloadAnalytics4initEvE3$_1vEEOT_', symObjAddr: 0x1408C, symBinAddr: 0x1000223B8, symSize: 0x50 }
  - { offsetInCU: 0x479CF, offset: 0x704FD, size: 0x8, addend: 0x0, symName: '__ZNSt3__19allocatorIZN5hf3fs17monitor_collector19MLWorkloadAnalytics4initEvE3$_1EC1B8ue170006Ev', symObjAddr: 0x140DC, symBinAddr: 0x100022408, symSize: 0x2C }
  - { offsetInCU: 0x479F9, offset: 0x70527, size: 0x8, addend: 0x0, symName: '__ZNSt3__110__function12__value_funcIFvvEEC1B8ue170006IZN5hf3fs17monitor_collector19MLWorkloadAnalytics4initEvE3$_1NS_9allocatorIS8_EEEEOT_RKT0_', symObjAddr: 0x14108, symBinAddr: 0x100022434, symSize: 0x3C }
  - { offsetInCU: 0x47A53, offset: 0x70581, size: 0x8, addend: 0x0, symName: '__ZNSt3__19allocatorIZN5hf3fs17monitor_collector19MLWorkloadAnalytics4initEvE3$_1EC2B8ue170006Ev', symObjAddr: 0x14144, symBinAddr: 0x100022470, symSize: 0x2C }
  - { offsetInCU: 0x47A7D, offset: 0x705AB, size: 0x8, addend: 0x0, symName: '__ZNSt3__116__non_trivial_ifILb1ENS_9allocatorIZN5hf3fs17monitor_collector19MLWorkloadAnalytics4initEvE3$_1EEEC2B8ue170006Ev', symObjAddr: 0x14170, symBinAddr: 0x10002249C, symSize: 0x14 }
  - { offsetInCU: 0x47AA7, offset: 0x705D5, size: 0x8, addend: 0x0, symName: '__ZNSt3__110__function12__value_funcIFvvEEC2B8ue170006IZN5hf3fs17monitor_collector19MLWorkloadAnalytics4initEvE3$_1NS_9allocatorIS8_EEEEOT_RKT0_', symObjAddr: 0x14184, symBinAddr: 0x1000224B0, symSize: 0x94 }
  - { offsetInCU: 0x47B50, offset: 0x7067E, size: 0x8, addend: 0x0, symName: '__ZNSt3__19allocatorINS_10__function6__funcIZN5hf3fs17monitor_collector19MLWorkloadAnalytics4initEvE3$_1NS0_IS6_EEFvvEEEEC1B8ue170006IS6_EERKNS0_IT_EE', symObjAddr: 0x14230, symBinAddr: 0x10002255C, symSize: 0x34 }
  - { offsetInCU: 0x47B94, offset: 0x706C2, size: 0x8, addend: 0x0, symName: '__ZNSt3__19allocatorIZN5hf3fs17monitor_collector19MLWorkloadAnalytics4initEvE3$_1EC1B8ue170006INS_10__function6__funcIS4_S5_FvvEEEEERKNS0_IT_EE', symObjAddr: 0x14264, symBinAddr: 0x100022590, symSize: 0x34 }
  - { offsetInCU: 0x47BD2, offset: 0x70700, size: 0x8, addend: 0x0, symName: '__ZNSt3__110__function6__funcIZN5hf3fs17monitor_collector19MLWorkloadAnalytics4initEvE3$_1NS_9allocatorIS5_EEFvvEEC1B8ue170006EOS5_OS7_', symObjAddr: 0x14298, symBinAddr: 0x1000225C4, symSize: 0x3C }
  - { offsetInCU: 0x47C1A, offset: 0x70748, size: 0x8, addend: 0x0, symName: '__ZNSt3__19allocatorINS_10__function6__funcIZN5hf3fs17monitor_collector19MLWorkloadAnalytics4initEvE3$_1NS0_IS6_EEFvvEEEEC2B8ue170006IS6_EERKNS0_IT_EE', symObjAddr: 0x142D4, symBinAddr: 0x100022600, symSize: 0x30 }
  - { offsetInCU: 0x47C58, offset: 0x70786, size: 0x8, addend: 0x0, symName: '__ZNSt3__116__non_trivial_ifILb1ENS_9allocatorINS_10__function6__funcIZN5hf3fs17monitor_collector19MLWorkloadAnalytics4initEvE3$_1NS1_IS7_EEFvvEEEEEEC2B8ue170006Ev', symObjAddr: 0x14304, symBinAddr: 0x100022630, symSize: 0x14 }
  - { offsetInCU: 0x47C82, offset: 0x707B0, size: 0x8, addend: 0x0, symName: '__ZNSt3__19allocatorIZN5hf3fs17monitor_collector19MLWorkloadAnalytics4initEvE3$_1EC2B8ue170006INS_10__function6__funcIS4_S5_FvvEEEEERKNS0_IT_EE', symObjAddr: 0x14318, symBinAddr: 0x100022644, symSize: 0x30 }
  - { offsetInCU: 0x47CC0, offset: 0x707EE, size: 0x8, addend: 0x0, symName: '__ZNSt3__110__function6__funcIZN5hf3fs17monitor_collector19MLWorkloadAnalytics4initEvE3$_1NS_9allocatorIS5_EEFvvEEC2B8ue170006EOS5_OS7_', symObjAddr: 0x14348, symBinAddr: 0x100022674, symSize: 0x88 }
